ARM GAS  C:\Users\Nelson\AppData\Local\Temp\ccgC0n3g.s 			page 1


   1              		.syntax unified
   2              		.cpu cortex-m3
   3              		.fpu softvfp
   4              		.eabi_attribute 20, 1
   5              		.eabi_attribute 21, 1
   6              		.eabi_attribute 23, 3
   7              		.eabi_attribute 24, 1
   8              		.eabi_attribute 25, 1
   9              		.eabi_attribute 26, 1
  10              		.eabi_attribute 30, 1
  11              		.eabi_attribute 34, 1
  12              		.eabi_attribute 18, 4
  13              		.thumb
  14              		.file	"ADC_DelSig.c"
  15              		.text
  16              	.Ltext0:
  17              		.cfi_sections	.debug_frame
  18              		.section	.text.ADC_DelSig_GainCompensation,"ax",%progbits
  19              		.align	2
  20              		.thumb
  21              		.thumb_func
  22              		.type	ADC_DelSig_GainCompensation, %function
  23              	ADC_DelSig_GainCompensation:
  24              	.LFB21:
  25              		.file 1 "Generated_Source\\PSoC5\\ADC_DelSig.c"
   1:Generated_Source\PSoC5/ADC_DelSig.c **** /*******************************************************************************
   2:Generated_Source\PSoC5/ADC_DelSig.c **** * File Name: ADC_DelSig.c
   3:Generated_Source\PSoC5/ADC_DelSig.c **** * Version 3.20
   4:Generated_Source\PSoC5/ADC_DelSig.c **** *
   5:Generated_Source\PSoC5/ADC_DelSig.c **** * Description:
   6:Generated_Source\PSoC5/ADC_DelSig.c **** *  This file provides the source code to the API for the Delta-Sigma ADC
   7:Generated_Source\PSoC5/ADC_DelSig.c **** *  Component.
   8:Generated_Source\PSoC5/ADC_DelSig.c **** *
   9:Generated_Source\PSoC5/ADC_DelSig.c **** * Note:
  10:Generated_Source\PSoC5/ADC_DelSig.c **** *
  11:Generated_Source\PSoC5/ADC_DelSig.c **** ********************************************************************************
  12:Generated_Source\PSoC5/ADC_DelSig.c **** * Copyright 2008-2015, Cypress Semiconductor Corporation.  All rights reserved.
  13:Generated_Source\PSoC5/ADC_DelSig.c **** * You may use this file only in accordance with the license, terms, conditions,
  14:Generated_Source\PSoC5/ADC_DelSig.c **** * disclaimers, and limitations in the end user license agreement accompanying
  15:Generated_Source\PSoC5/ADC_DelSig.c **** * the software package with which this file was provided.
  16:Generated_Source\PSoC5/ADC_DelSig.c **** *******************************************************************************/
  17:Generated_Source\PSoC5/ADC_DelSig.c **** 
  18:Generated_Source\PSoC5/ADC_DelSig.c **** #include "ADC_DelSig.h"
  19:Generated_Source\PSoC5/ADC_DelSig.c **** 
  20:Generated_Source\PSoC5/ADC_DelSig.c **** #if(ADC_DelSig_DEFAULT_INTERNAL_CLK)
  21:Generated_Source\PSoC5/ADC_DelSig.c ****     #include "ADC_DelSig_theACLK.h"
  22:Generated_Source\PSoC5/ADC_DelSig.c **** #endif /* ADC_DelSig_DEFAULT_INTERNAL_CLK */
  23:Generated_Source\PSoC5/ADC_DelSig.c **** 
  24:Generated_Source\PSoC5/ADC_DelSig.c **** #include "ADC_DelSig_Ext_CP_Clk.h"
  25:Generated_Source\PSoC5/ADC_DelSig.c **** 
  26:Generated_Source\PSoC5/ADC_DelSig.c **** #if(ADC_DelSig_DEFAULT_INPUT_MODE)
  27:Generated_Source\PSoC5/ADC_DelSig.c ****     #include "ADC_DelSig_AMux.h"
  28:Generated_Source\PSoC5/ADC_DelSig.c **** #endif /* ADC_DelSig_DEFAULT_INPUT_MODE */
  29:Generated_Source\PSoC5/ADC_DelSig.c **** 
  30:Generated_Source\PSoC5/ADC_DelSig.c **** 
  31:Generated_Source\PSoC5/ADC_DelSig.c **** /***************************************
  32:Generated_Source\PSoC5/ADC_DelSig.c **** * Global data allocation
ARM GAS  C:\Users\Nelson\AppData\Local\Temp\ccgC0n3g.s 			page 2


  33:Generated_Source\PSoC5/ADC_DelSig.c **** ***************************************/
  34:Generated_Source\PSoC5/ADC_DelSig.c **** 
  35:Generated_Source\PSoC5/ADC_DelSig.c **** /* Software flag for checking conversion completed or not */
  36:Generated_Source\PSoC5/ADC_DelSig.c **** volatile uint8 ADC_DelSig_convDone = 0u;
  37:Generated_Source\PSoC5/ADC_DelSig.c **** 
  38:Generated_Source\PSoC5/ADC_DelSig.c **** /* Software flag to stop conversion for single sample conversion mode
  39:Generated_Source\PSoC5/ADC_DelSig.c **** *   with resolution above 16 bits 
  40:Generated_Source\PSoC5/ADC_DelSig.c **** */
  41:Generated_Source\PSoC5/ADC_DelSig.c **** volatile uint8 ADC_DelSig_stopConversion = 0u;
  42:Generated_Source\PSoC5/ADC_DelSig.c **** 
  43:Generated_Source\PSoC5/ADC_DelSig.c **** /* To run the initialization block only at the start up */
  44:Generated_Source\PSoC5/ADC_DelSig.c **** uint8 ADC_DelSig_initVar = 0u;
  45:Generated_Source\PSoC5/ADC_DelSig.c **** 
  46:Generated_Source\PSoC5/ADC_DelSig.c **** /* To check whether ADC started or not before switching the configuration */
  47:Generated_Source\PSoC5/ADC_DelSig.c **** volatile uint8 ADC_DelSig_started = 0u;
  48:Generated_Source\PSoC5/ADC_DelSig.c **** 
  49:Generated_Source\PSoC5/ADC_DelSig.c **** /* Flag to hold ADC config number. By default active config is 1. */
  50:Generated_Source\PSoC5/ADC_DelSig.c **** volatile uint8 ADC_DelSig_Config = 1u;
  51:Generated_Source\PSoC5/ADC_DelSig.c **** 
  52:Generated_Source\PSoC5/ADC_DelSig.c **** volatile int32 ADC_DelSig_Offset;
  53:Generated_Source\PSoC5/ADC_DelSig.c **** volatile int32 ADC_DelSig_CountsPerVolt;
  54:Generated_Source\PSoC5/ADC_DelSig.c **** 
  55:Generated_Source\PSoC5/ADC_DelSig.c **** 
  56:Generated_Source\PSoC5/ADC_DelSig.c **** /***************************************
  57:Generated_Source\PSoC5/ADC_DelSig.c **** * Local data allocation
  58:Generated_Source\PSoC5/ADC_DelSig.c **** ***************************************/
  59:Generated_Source\PSoC5/ADC_DelSig.c **** 
  60:Generated_Source\PSoC5/ADC_DelSig.c **** /* The array with precalculated gain compensation coefficients */
  61:Generated_Source\PSoC5/ADC_DelSig.c **** static ADC_DelSig_GCOR_STRUCT ADC_DelSig_gcor[ADC_DelSig_DEFAULT_NUM_CONFIGS];
  62:Generated_Source\PSoC5/ADC_DelSig.c **** 
  63:Generated_Source\PSoC5/ADC_DelSig.c **** 
  64:Generated_Source\PSoC5/ADC_DelSig.c **** 
  65:Generated_Source\PSoC5/ADC_DelSig.c **** /***************************************
  66:Generated_Source\PSoC5/ADC_DelSig.c **** * Forward function references
  67:Generated_Source\PSoC5/ADC_DelSig.c **** ***************************************/
  68:Generated_Source\PSoC5/ADC_DelSig.c **** static void ADC_DelSig_InitConfig(uint8 config) ;
  69:Generated_Source\PSoC5/ADC_DelSig.c **** static void ADC_DelSig_GainCompensation(uint8 inputRange, uint16 idealDecGain, uint16 idealOddDecGa
  70:Generated_Source\PSoC5/ADC_DelSig.c ****                             uint8 resolution, uint8 config) ;
  71:Generated_Source\PSoC5/ADC_DelSig.c **** static void ADC_DelSig_SetDSMRef0Reg(uint8 value) ;
  72:Generated_Source\PSoC5/ADC_DelSig.c **** 
  73:Generated_Source\PSoC5/ADC_DelSig.c **** 
  74:Generated_Source\PSoC5/ADC_DelSig.c **** /******************************************************************************
  75:Generated_Source\PSoC5/ADC_DelSig.c **** * Function Name: ADC_DelSig_Init
  76:Generated_Source\PSoC5/ADC_DelSig.c **** *******************************************************************************
  77:Generated_Source\PSoC5/ADC_DelSig.c **** *
  78:Generated_Source\PSoC5/ADC_DelSig.c **** * Summary:
  79:Generated_Source\PSoC5/ADC_DelSig.c **** *  Initialize component's parameters to the parameters set by user in the
  80:Generated_Source\PSoC5/ADC_DelSig.c **** *  customizer of the component placed onto schematic. Usually called in
  81:Generated_Source\PSoC5/ADC_DelSig.c **** * ADC_DelSig_Start().
  82:Generated_Source\PSoC5/ADC_DelSig.c **** *
  83:Generated_Source\PSoC5/ADC_DelSig.c **** *
  84:Generated_Source\PSoC5/ADC_DelSig.c **** * Parameters:
  85:Generated_Source\PSoC5/ADC_DelSig.c **** *  None
  86:Generated_Source\PSoC5/ADC_DelSig.c **** *
  87:Generated_Source\PSoC5/ADC_DelSig.c **** * Return:
  88:Generated_Source\PSoC5/ADC_DelSig.c **** *  None
  89:Generated_Source\PSoC5/ADC_DelSig.c **** *
ARM GAS  C:\Users\Nelson\AppData\Local\Temp\ccgC0n3g.s 			page 3


  90:Generated_Source\PSoC5/ADC_DelSig.c **** *******************************************************************************/
  91:Generated_Source\PSoC5/ADC_DelSig.c **** void ADC_DelSig_Init(void) 
  92:Generated_Source\PSoC5/ADC_DelSig.c **** {
  93:Generated_Source\PSoC5/ADC_DelSig.c **** 
  94:Generated_Source\PSoC5/ADC_DelSig.c ****     ADC_DelSig_Config = 1u;
  95:Generated_Source\PSoC5/ADC_DelSig.c ****     ADC_DelSig_convDone = 0u;
  96:Generated_Source\PSoC5/ADC_DelSig.c **** 
  97:Generated_Source\PSoC5/ADC_DelSig.c ****     ADC_DelSig_Ext_CP_Clk_SetMode(CYCLK_DUTY);
  98:Generated_Source\PSoC5/ADC_DelSig.c **** 
  99:Generated_Source\PSoC5/ADC_DelSig.c ****     /* This is only valid if there is an internal clock */
 100:Generated_Source\PSoC5/ADC_DelSig.c ****     #if(ADC_DelSig_DEFAULT_INTERNAL_CLK)
 101:Generated_Source\PSoC5/ADC_DelSig.c ****         ADC_DelSig_theACLK_SetMode(CYCLK_DUTY);
 102:Generated_Source\PSoC5/ADC_DelSig.c ****     #endif /* ADC_DelSig_DEFAULT_INTERNAL_CLK */
 103:Generated_Source\PSoC5/ADC_DelSig.c **** 
 104:Generated_Source\PSoC5/ADC_DelSig.c ****     #if(ADC_DelSig_IRQ_REMOVE == 0u)
 105:Generated_Source\PSoC5/ADC_DelSig.c ****         /* Set interrupt priority */
 106:Generated_Source\PSoC5/ADC_DelSig.c ****         CyIntSetPriority(ADC_DelSig_INTC_NUMBER, ADC_DelSig_INTC_PRIOR_NUMBER);
 107:Generated_Source\PSoC5/ADC_DelSig.c ****     #endif   /* End ADC_DelSig_IRQ_REMOVE */
 108:Generated_Source\PSoC5/ADC_DelSig.c **** 
 109:Generated_Source\PSoC5/ADC_DelSig.c ****     /* Init static registers with common configuration */
 110:Generated_Source\PSoC5/ADC_DelSig.c ****     ADC_DelSig_DSM_DEM0_REG    = ADC_DelSig_CFG1_DSM_DEM0;
 111:Generated_Source\PSoC5/ADC_DelSig.c ****     ADC_DelSig_DSM_DEM1_REG    = ADC_DelSig_CFG1_DSM_DEM1;
 112:Generated_Source\PSoC5/ADC_DelSig.c ****     ADC_DelSig_DSM_MISC_REG    = ADC_DelSig_CFG1_DSM_MISC;
 113:Generated_Source\PSoC5/ADC_DelSig.c ****     ADC_DelSig_DSM_CLK_REG    |= ADC_DelSig_CFG1_DSM_CLK;
 114:Generated_Source\PSoC5/ADC_DelSig.c ****     ADC_DelSig_DSM_REF1_REG    = ADC_DelSig_CFG1_DSM_REF1;
 115:Generated_Source\PSoC5/ADC_DelSig.c **** 
 116:Generated_Source\PSoC5/ADC_DelSig.c ****     ADC_DelSig_DSM_OUT0_REG    = ADC_DelSig_CFG1_DSM_OUT0;
 117:Generated_Source\PSoC5/ADC_DelSig.c ****     ADC_DelSig_DSM_OUT1_REG    = ADC_DelSig_CFG1_DSM_OUT1;
 118:Generated_Source\PSoC5/ADC_DelSig.c **** 
 119:Generated_Source\PSoC5/ADC_DelSig.c ****     ADC_DelSig_DSM_CR0_REG     = ADC_DelSig_CFG1_DSM_CR0;
 120:Generated_Source\PSoC5/ADC_DelSig.c ****     ADC_DelSig_DSM_CR1_REG     = ADC_DelSig_CFG1_DSM_CR1;
 121:Generated_Source\PSoC5/ADC_DelSig.c **** #if(ADC_DelSig_MI_ENABLE != 0u) /* Enable Modulator Input */
 122:Generated_Source\PSoC5/ADC_DelSig.c ****     ADC_DelSig_DSM_CR3_REG     |= ADC_DelSig_DSM_MODBIT_EN;
 123:Generated_Source\PSoC5/ADC_DelSig.c **** #else
 124:Generated_Source\PSoC5/ADC_DelSig.c ****     ADC_DelSig_DSM_CR3_REG     = ADC_DelSig_CFG1_DSM_CR3;
 125:Generated_Source\PSoC5/ADC_DelSig.c **** #endif /* ADC_DelSig_MI_ENABLE != 0u*/    
 126:Generated_Source\PSoC5/ADC_DelSig.c ****     ADC_DelSig_DSM_CR8_REG     = ADC_DelSig_CFG1_DSM_CR8;
 127:Generated_Source\PSoC5/ADC_DelSig.c ****     ADC_DelSig_DSM_CR9_REG     = ADC_DelSig_CFG1_DSM_CR9;
 128:Generated_Source\PSoC5/ADC_DelSig.c ****     ADC_DelSig_DSM_CR13_REG    = ADC_DelSig_CFG1_DSM_CR13;
 129:Generated_Source\PSoC5/ADC_DelSig.c **** 
 130:Generated_Source\PSoC5/ADC_DelSig.c ****     ADC_DelSig_DEC_SR_REG      = ADC_DelSig_CFG1_DEC_SR;
 131:Generated_Source\PSoC5/ADC_DelSig.c **** 
 132:Generated_Source\PSoC5/ADC_DelSig.c ****     /* Calculate Gain compensation coefficients for all configurations */
 133:Generated_Source\PSoC5/ADC_DelSig.c ****     ADC_DelSig_GainCompensation(ADC_DelSig_CFG1_INPUT_RANGE,
 134:Generated_Source\PSoC5/ADC_DelSig.c ****                                       ADC_DelSig_CFG1_IDEAL_DEC_GAIN,
 135:Generated_Source\PSoC5/ADC_DelSig.c ****                                       ADC_DelSig_CFG1_IDEAL_ODDDEC_GAIN,
 136:Generated_Source\PSoC5/ADC_DelSig.c ****                                       ADC_DelSig_CFG1_RESOLUTION,
 137:Generated_Source\PSoC5/ADC_DelSig.c ****                                       ADC_DelSig_CFG1);
 138:Generated_Source\PSoC5/ADC_DelSig.c ****     #if(ADC_DelSig_DEFAULT_NUM_CONFIGS > 1)
 139:Generated_Source\PSoC5/ADC_DelSig.c ****         ADC_DelSig_GainCompensation(ADC_DelSig_CFG2_INPUT_RANGE,
 140:Generated_Source\PSoC5/ADC_DelSig.c ****                                           ADC_DelSig_CFG2_IDEAL_DEC_GAIN,
 141:Generated_Source\PSoC5/ADC_DelSig.c ****                                           ADC_DelSig_CFG2_IDEAL_ODDDEC_GAIN,
 142:Generated_Source\PSoC5/ADC_DelSig.c ****                                           ADC_DelSig_CFG2_RESOLUTION,
 143:Generated_Source\PSoC5/ADC_DelSig.c ****                                           ADC_DelSig_CFG2);
 144:Generated_Source\PSoC5/ADC_DelSig.c ****     #endif /* ADC_DelSig_DEFAULT_NUM_CONFIGS > 1 */
 145:Generated_Source\PSoC5/ADC_DelSig.c ****     #if(ADC_DelSig_DEFAULT_NUM_CONFIGS > 2)
 146:Generated_Source\PSoC5/ADC_DelSig.c ****         ADC_DelSig_GainCompensation(ADC_DelSig_CFG3_INPUT_RANGE,
ARM GAS  C:\Users\Nelson\AppData\Local\Temp\ccgC0n3g.s 			page 4


 147:Generated_Source\PSoC5/ADC_DelSig.c ****                                           ADC_DelSig_CFG3_IDEAL_DEC_GAIN,
 148:Generated_Source\PSoC5/ADC_DelSig.c ****                                           ADC_DelSig_CFG3_IDEAL_ODDDEC_GAIN,
 149:Generated_Source\PSoC5/ADC_DelSig.c ****                                           ADC_DelSig_CFG3_RESOLUTION,
 150:Generated_Source\PSoC5/ADC_DelSig.c ****                                           ADC_DelSig_CFG3);
 151:Generated_Source\PSoC5/ADC_DelSig.c ****     #endif /* ADC_DelSig_DEFAULT_NUM_CONFIGS > 2 */
 152:Generated_Source\PSoC5/ADC_DelSig.c ****     #if(ADC_DelSig_DEFAULT_NUM_CONFIGS > 3)
 153:Generated_Source\PSoC5/ADC_DelSig.c ****         ADC_DelSig_GainCompensation(ADC_DelSig_CFG4_INPUT_RANGE,
 154:Generated_Source\PSoC5/ADC_DelSig.c ****                                           ADC_DelSig_CFG4_IDEAL_DEC_GAIN,
 155:Generated_Source\PSoC5/ADC_DelSig.c ****                                           ADC_DelSig_CFG4_IDEAL_ODDDEC_GAIN,
 156:Generated_Source\PSoC5/ADC_DelSig.c ****                                           ADC_DelSig_CFG4_RESOLUTION,
 157:Generated_Source\PSoC5/ADC_DelSig.c ****                                           ADC_DelSig_CFG4);
 158:Generated_Source\PSoC5/ADC_DelSig.c ****     #endif /* ADC_DelSig_DEFAULT_NUM_CONFIGS > 3 */
 159:Generated_Source\PSoC5/ADC_DelSig.c **** 
 160:Generated_Source\PSoC5/ADC_DelSig.c ****     /* Set GCOR register for config1 */
 161:Generated_Source\PSoC5/ADC_DelSig.c ****     ADC_DelSig_DEC_GVAL_REG = ADC_DelSig_gcor[ADC_DelSig_Config - 1u].gval;
 162:Generated_Source\PSoC5/ADC_DelSig.c ****     CY_SET_REG16(ADC_DelSig_DEC_GCOR_16B_PTR, ADC_DelSig_gcor[ADC_DelSig_Config - 1u].gcor);
 163:Generated_Source\PSoC5/ADC_DelSig.c **** 
 164:Generated_Source\PSoC5/ADC_DelSig.c ****     /* Initialize the registers with default customizer settings for config1 */
 165:Generated_Source\PSoC5/ADC_DelSig.c ****     ADC_DelSig_InitConfig(ADC_DelSig_Config);
 166:Generated_Source\PSoC5/ADC_DelSig.c **** }
 167:Generated_Source\PSoC5/ADC_DelSig.c **** 
 168:Generated_Source\PSoC5/ADC_DelSig.c **** 
 169:Generated_Source\PSoC5/ADC_DelSig.c **** /******************************************************************************
 170:Generated_Source\PSoC5/ADC_DelSig.c **** * Function Name: ADC_DelSig_Enable
 171:Generated_Source\PSoC5/ADC_DelSig.c **** *******************************************************************************
 172:Generated_Source\PSoC5/ADC_DelSig.c **** *
 173:Generated_Source\PSoC5/ADC_DelSig.c **** * Summary:
 174:Generated_Source\PSoC5/ADC_DelSig.c **** *  Enables the ADC DelSig block operation.
 175:Generated_Source\PSoC5/ADC_DelSig.c **** *
 176:Generated_Source\PSoC5/ADC_DelSig.c **** *
 177:Generated_Source\PSoC5/ADC_DelSig.c **** * Parameters:
 178:Generated_Source\PSoC5/ADC_DelSig.c **** *  None
 179:Generated_Source\PSoC5/ADC_DelSig.c **** *
 180:Generated_Source\PSoC5/ADC_DelSig.c **** * Return:
 181:Generated_Source\PSoC5/ADC_DelSig.c **** *  None
 182:Generated_Source\PSoC5/ADC_DelSig.c **** *
 183:Generated_Source\PSoC5/ADC_DelSig.c **** *******************************************************************************/
 184:Generated_Source\PSoC5/ADC_DelSig.c **** void ADC_DelSig_Enable(void) 
 185:Generated_Source\PSoC5/ADC_DelSig.c **** {
 186:Generated_Source\PSoC5/ADC_DelSig.c **** 	uint8 config;
 187:Generated_Source\PSoC5/ADC_DelSig.c ****     uint8 enableInterrupts;
 188:Generated_Source\PSoC5/ADC_DelSig.c ****     enableInterrupts = CyEnterCriticalSection();
 189:Generated_Source\PSoC5/ADC_DelSig.c **** 
 190:Generated_Source\PSoC5/ADC_DelSig.c ****     /* Read volatile variable to the local variable */
 191:Generated_Source\PSoC5/ADC_DelSig.c ****     config = ADC_DelSig_Config;
 192:Generated_Source\PSoC5/ADC_DelSig.c ****     
 193:Generated_Source\PSoC5/ADC_DelSig.c ****     /* Enable active mode power for ADC */
 194:Generated_Source\PSoC5/ADC_DelSig.c ****     ADC_DelSig_PWRMGR_DEC_REG |= ADC_DelSig_ACT_PWR_DEC_EN;
 195:Generated_Source\PSoC5/ADC_DelSig.c ****     ADC_DelSig_PWRMGR_DSM_REG |= ADC_DelSig_ACT_PWR_DSM_EN;
 196:Generated_Source\PSoC5/ADC_DelSig.c **** 
 197:Generated_Source\PSoC5/ADC_DelSig.c ****      /* Enable alternative active mode power for ADC */
 198:Generated_Source\PSoC5/ADC_DelSig.c ****     ADC_DelSig_STBY_PWRMGR_DEC_REG |= ADC_DelSig_STBY_PWR_DEC_EN;
 199:Generated_Source\PSoC5/ADC_DelSig.c ****     ADC_DelSig_STBY_PWRMGR_DSM_REG |= ADC_DelSig_STBY_PWR_DSM_EN;
 200:Generated_Source\PSoC5/ADC_DelSig.c **** 
 201:Generated_Source\PSoC5/ADC_DelSig.c ****     /* Disable PRES, Enable power to VCMBUF0, REFBUF0 and REFBUF1, enable PRES */
 202:Generated_Source\PSoC5/ADC_DelSig.c ****     ADC_DelSig_RESET_CR4_REG |= ADC_DelSig_IGNORE_PRESA1;
 203:Generated_Source\PSoC5/ADC_DelSig.c ****     ADC_DelSig_RESET_CR5_REG |= ADC_DelSig_IGNORE_PRESA2;
ARM GAS  C:\Users\Nelson\AppData\Local\Temp\ccgC0n3g.s 			page 5


 204:Generated_Source\PSoC5/ADC_DelSig.c **** 
 205:Generated_Source\PSoC5/ADC_DelSig.c ****     ADC_DelSig_DSM_CR17_REG |= (ADC_DelSig_DSM_EN_BUF_VREF | ADC_DelSig_DSM_EN_BUF_VCM);
 206:Generated_Source\PSoC5/ADC_DelSig.c **** 
 207:Generated_Source\PSoC5/ADC_DelSig.c ****     /* Code to disable the REFBUF0 if reference chosen is External ref */
 208:Generated_Source\PSoC5/ADC_DelSig.c ****     #if (((ADC_DelSig_CFG1_REFERENCE == ADC_DelSig_EXT_REF_ON_P03) || \
 209:Generated_Source\PSoC5/ADC_DelSig.c ****           (ADC_DelSig_CFG1_REFERENCE == ADC_DelSig_EXT_REF_ON_P32)) || \
 210:Generated_Source\PSoC5/ADC_DelSig.c ****          ((ADC_DelSig_DEFAULT_NUM_CONFIGS > 1) && \
 211:Generated_Source\PSoC5/ADC_DelSig.c ****           ((ADC_DelSig_CFG2_REFERENCE == ADC_DelSig_EXT_REF_ON_P03) ||  \
 212:Generated_Source\PSoC5/ADC_DelSig.c ****            (ADC_DelSig_CFG2_REFERENCE == ADC_DelSig_EXT_REF_ON_P32))) || \
 213:Generated_Source\PSoC5/ADC_DelSig.c ****          ((ADC_DelSig_DEFAULT_NUM_CONFIGS > 2) && \
 214:Generated_Source\PSoC5/ADC_DelSig.c ****           ((ADC_DelSig_CFG3_REFERENCE == ADC_DelSig_EXT_REF_ON_P03) ||  \
 215:Generated_Source\PSoC5/ADC_DelSig.c ****            (ADC_DelSig_CFG3_REFERENCE == ADC_DelSig_EXT_REF_ON_P32))) || \
 216:Generated_Source\PSoC5/ADC_DelSig.c ****          ((ADC_DelSig_DEFAULT_NUM_CONFIGS > 3) && \
 217:Generated_Source\PSoC5/ADC_DelSig.c ****           ((ADC_DelSig_CFG4_REFERENCE == ADC_DelSig_EXT_REF_ON_P03) || \
 218:Generated_Source\PSoC5/ADC_DelSig.c ****            (ADC_DelSig_CFG4_REFERENCE == ADC_DelSig_EXT_REF_ON_P32))))
 219:Generated_Source\PSoC5/ADC_DelSig.c ****         if (((config == 1u) &&
 220:Generated_Source\PSoC5/ADC_DelSig.c ****             ((ADC_DelSig_CFG1_REFERENCE == ADC_DelSig_EXT_REF_ON_P03) ||
 221:Generated_Source\PSoC5/ADC_DelSig.c ****              (ADC_DelSig_CFG1_REFERENCE == ADC_DelSig_EXT_REF_ON_P32))) ||
 222:Generated_Source\PSoC5/ADC_DelSig.c ****             ((config == 2u) &&
 223:Generated_Source\PSoC5/ADC_DelSig.c ****             ((ADC_DelSig_CFG2_REFERENCE == ADC_DelSig_EXT_REF_ON_P03) ||
 224:Generated_Source\PSoC5/ADC_DelSig.c ****              (ADC_DelSig_CFG2_REFERENCE == ADC_DelSig_EXT_REF_ON_P32))) ||
 225:Generated_Source\PSoC5/ADC_DelSig.c ****             ((config == 3u) &&
 226:Generated_Source\PSoC5/ADC_DelSig.c ****             ((ADC_DelSig_CFG3_REFERENCE == ADC_DelSig_EXT_REF_ON_P03) ||
 227:Generated_Source\PSoC5/ADC_DelSig.c ****              (ADC_DelSig_CFG3_REFERENCE == ADC_DelSig_EXT_REF_ON_P32))) ||
 228:Generated_Source\PSoC5/ADC_DelSig.c ****             ((config == 4u) &&
 229:Generated_Source\PSoC5/ADC_DelSig.c ****             ((ADC_DelSig_CFG4_REFERENCE == ADC_DelSig_EXT_REF_ON_P03) ||
 230:Generated_Source\PSoC5/ADC_DelSig.c ****              (ADC_DelSig_CFG4_REFERENCE == ADC_DelSig_EXT_REF_ON_P32))))
 231:Generated_Source\PSoC5/ADC_DelSig.c ****         {
 232:Generated_Source\PSoC5/ADC_DelSig.c ****             /* Disable the REFBUF0 */
 233:Generated_Source\PSoC5/ADC_DelSig.c ****             ADC_DelSig_DSM_CR17_REG &= (uint8)~ADC_DelSig_DSM_EN_BUF_VREF;
 234:Generated_Source\PSoC5/ADC_DelSig.c ****         }
 235:Generated_Source\PSoC5/ADC_DelSig.c ****     #endif /* External ref */
 236:Generated_Source\PSoC5/ADC_DelSig.c **** 
 237:Generated_Source\PSoC5/ADC_DelSig.c ****     #if (((ADC_DelSig_CFG1_INPUT_RANGE == ADC_DelSig_IR_VSSA_TO_2VREF) || \
 238:Generated_Source\PSoC5/ADC_DelSig.c ****          ((ADC_DelSig_DEFAULT_NUM_CONFIGS > 1) && \
 239:Generated_Source\PSoC5/ADC_DelSig.c ****           (ADC_DelSig_CFG2_INPUT_RANGE == ADC_DelSig_IR_VSSA_TO_2VREF)) || \
 240:Generated_Source\PSoC5/ADC_DelSig.c ****          ((ADC_DelSig_DEFAULT_NUM_CONFIGS > 2) && \
 241:Generated_Source\PSoC5/ADC_DelSig.c ****           (ADC_DelSig_CFG3_INPUT_RANGE == ADC_DelSig_IR_VSSA_TO_2VREF)) || \
 242:Generated_Source\PSoC5/ADC_DelSig.c ****          ((ADC_DelSig_DEFAULT_NUM_CONFIGS > 3) && \
 243:Generated_Source\PSoC5/ADC_DelSig.c ****           (ADC_DelSig_CFG4_INPUT_RANGE == ADC_DelSig_IR_VSSA_TO_2VREF))))
 244:Generated_Source\PSoC5/ADC_DelSig.c ****         if(((config == 1u) &&
 245:Generated_Source\PSoC5/ADC_DelSig.c ****             (ADC_DelSig_CFG1_INPUT_RANGE == ADC_DelSig_IR_VSSA_TO_2VREF) &&
 246:Generated_Source\PSoC5/ADC_DelSig.c ****             ((ADC_DelSig_CFG1_REFERENCE != ADC_DelSig_EXT_REF_ON_P03) &&
 247:Generated_Source\PSoC5/ADC_DelSig.c ****              (ADC_DelSig_CFG1_REFERENCE != ADC_DelSig_EXT_REF_ON_P32))) ||
 248:Generated_Source\PSoC5/ADC_DelSig.c ****              ((config == 2u) &&
 249:Generated_Source\PSoC5/ADC_DelSig.c ****               (ADC_DelSig_CFG2_INPUT_RANGE == ADC_DelSig_IR_VSSA_TO_2VREF) &&
 250:Generated_Source\PSoC5/ADC_DelSig.c ****              ((ADC_DelSig_CFG2_REFERENCE != ADC_DelSig_EXT_REF_ON_P03) &&
 251:Generated_Source\PSoC5/ADC_DelSig.c ****              (ADC_DelSig_CFG2_REFERENCE != ADC_DelSig_EXT_REF_ON_P32))) ||
 252:Generated_Source\PSoC5/ADC_DelSig.c ****              ((config == 3u) &&
 253:Generated_Source\PSoC5/ADC_DelSig.c ****               (ADC_DelSig_CFG3_INPUT_RANGE == ADC_DelSig_IR_VSSA_TO_2VREF) &&
 254:Generated_Source\PSoC5/ADC_DelSig.c ****              ((ADC_DelSig_CFG3_REFERENCE != ADC_DelSig_EXT_REF_ON_P03) &&
 255:Generated_Source\PSoC5/ADC_DelSig.c ****              (ADC_DelSig_CFG3_REFERENCE != ADC_DelSig_EXT_REF_ON_P32))) ||
 256:Generated_Source\PSoC5/ADC_DelSig.c ****              ((config == 4u) &&
 257:Generated_Source\PSoC5/ADC_DelSig.c ****               (ADC_DelSig_CFG4_INPUT_RANGE == ADC_DelSig_IR_VSSA_TO_2VREF) &&
 258:Generated_Source\PSoC5/ADC_DelSig.c ****              ((ADC_DelSig_CFG4_REFERENCE != ADC_DelSig_EXT_REF_ON_P03) &&
 259:Generated_Source\PSoC5/ADC_DelSig.c ****              (ADC_DelSig_CFG4_REFERENCE != ADC_DelSig_EXT_REF_ON_P32))))
 260:Generated_Source\PSoC5/ADC_DelSig.c ****         {
ARM GAS  C:\Users\Nelson\AppData\Local\Temp\ccgC0n3g.s 			page 6


 261:Generated_Source\PSoC5/ADC_DelSig.c ****             /* Enable the REFBUF1 */
 262:Generated_Source\PSoC5/ADC_DelSig.c ****             ADC_DelSig_DSM_REF0_REG |= ADC_DelSig_DSM_EN_BUF_VREF_INN;
 263:Generated_Source\PSoC5/ADC_DelSig.c ****         }
 264:Generated_Source\PSoC5/ADC_DelSig.c ****     #endif /* VSSA_TO_2VREF */
 265:Generated_Source\PSoC5/ADC_DelSig.c ****     if(config != 0u)
 266:Generated_Source\PSoC5/ADC_DelSig.c ****     {
 267:Generated_Source\PSoC5/ADC_DelSig.c ****         /* Suppress compiler warning */
 268:Generated_Source\PSoC5/ADC_DelSig.c ****     }
 269:Generated_Source\PSoC5/ADC_DelSig.c **** 
 270:Generated_Source\PSoC5/ADC_DelSig.c ****     /* Wait for 3 microseconds */
 271:Generated_Source\PSoC5/ADC_DelSig.c ****     CyDelayUs(ADC_DelSig_PRES_DELAY_TIME);
 272:Generated_Source\PSoC5/ADC_DelSig.c **** 
 273:Generated_Source\PSoC5/ADC_DelSig.c ****     /* Enable the press circuit */
 274:Generated_Source\PSoC5/ADC_DelSig.c ****     ADC_DelSig_RESET_CR4_REG &= (uint8)~ADC_DelSig_IGNORE_PRESA1;
 275:Generated_Source\PSoC5/ADC_DelSig.c ****     ADC_DelSig_RESET_CR5_REG &= (uint8)~ADC_DelSig_IGNORE_PRESA2;
 276:Generated_Source\PSoC5/ADC_DelSig.c **** 
 277:Generated_Source\PSoC5/ADC_DelSig.c ****     /* Enable negative pumps for DSM  */
 278:Generated_Source\PSoC5/ADC_DelSig.c ****     ADC_DelSig_PUMP_CR1_REG  |= ( ADC_DelSig_PUMP_CR1_CLKSEL | ADC_DelSig_PUMP_CR1_FORCE );
 279:Generated_Source\PSoC5/ADC_DelSig.c **** 
 280:Generated_Source\PSoC5/ADC_DelSig.c ****     /* Enable Modulator Chopping if required */
 281:Generated_Source\PSoC5/ADC_DelSig.c ****     ADC_DelSig_DSM_CR2_REG = ADC_DelSig_CFG1_DSM_CR2;
 282:Generated_Source\PSoC5/ADC_DelSig.c **** 
 283:Generated_Source\PSoC5/ADC_DelSig.c ****     /* This is only valid if there is an internal clock */
 284:Generated_Source\PSoC5/ADC_DelSig.c ****     #if(ADC_DelSig_DEFAULT_INTERNAL_CLK)
 285:Generated_Source\PSoC5/ADC_DelSig.c ****         ADC_DelSig_PWRMGR_CLK_REG |= ADC_DelSig_ACT_PWR_CLK_EN;
 286:Generated_Source\PSoC5/ADC_DelSig.c ****         ADC_DelSig_STBY_PWRMGR_CLK_REG |= ADC_DelSig_STBY_PWR_CLK_EN;
 287:Generated_Source\PSoC5/ADC_DelSig.c ****     #endif /* ADC_DelSig_DEFAULT_INTERNAL_CLK */
 288:Generated_Source\PSoC5/ADC_DelSig.c **** 
 289:Generated_Source\PSoC5/ADC_DelSig.c ****     /* Enable the active and alternate active power for charge pump clock */
 290:Generated_Source\PSoC5/ADC_DelSig.c ****     ADC_DelSig_PWRMGR_CHARGE_PUMP_CLK_REG |= ADC_DelSig_ACT_PWR_CHARGE_PUMP_CLK_EN;
 291:Generated_Source\PSoC5/ADC_DelSig.c ****     ADC_DelSig_STBY_PWRMGR_CHARGE_PUMP_CLK_REG |= ADC_DelSig_STBY_PWR_CHARGE_PUMP_CLK_EN;
 292:Generated_Source\PSoC5/ADC_DelSig.c **** 
 293:Generated_Source\PSoC5/ADC_DelSig.c ****     #if(ADC_DelSig_IRQ_REMOVE == 0u)
 294:Generated_Source\PSoC5/ADC_DelSig.c ****         /* Clear a pending interrupt */
 295:Generated_Source\PSoC5/ADC_DelSig.c ****         CyIntClearPending(ADC_DelSig_INTC_NUMBER);
 296:Generated_Source\PSoC5/ADC_DelSig.c ****         /* Enable interrupt */
 297:Generated_Source\PSoC5/ADC_DelSig.c ****         CyIntEnable(ADC_DelSig_INTC_NUMBER);
 298:Generated_Source\PSoC5/ADC_DelSig.c ****     #endif   /* End ADC_DelSig_IRQ_REMOVE */
 299:Generated_Source\PSoC5/ADC_DelSig.c **** 
 300:Generated_Source\PSoC5/ADC_DelSig.c ****     CyExitCriticalSection(enableInterrupts);
 301:Generated_Source\PSoC5/ADC_DelSig.c **** 
 302:Generated_Source\PSoC5/ADC_DelSig.c **** }
 303:Generated_Source\PSoC5/ADC_DelSig.c **** 
 304:Generated_Source\PSoC5/ADC_DelSig.c **** 
 305:Generated_Source\PSoC5/ADC_DelSig.c **** /*******************************************************************************
 306:Generated_Source\PSoC5/ADC_DelSig.c **** * Function Name: ADC_DelSig_Start
 307:Generated_Source\PSoC5/ADC_DelSig.c **** ********************************************************************************
 308:Generated_Source\PSoC5/ADC_DelSig.c **** *
 309:Generated_Source\PSoC5/ADC_DelSig.c **** * Summary:
 310:Generated_Source\PSoC5/ADC_DelSig.c **** *  Performs all required initialization for this component and enables
 311:Generated_Source\PSoC5/ADC_DelSig.c **** *  the power. It configure all the register the first time it is called.
 312:Generated_Source\PSoC5/ADC_DelSig.c **** *  Subsequent calls of the Start function only enable the ADC and turn
 313:Generated_Source\PSoC5/ADC_DelSig.c **** *  on the power. If multiple configurations are selected, it will
 314:Generated_Source\PSoC5/ADC_DelSig.c **** *  configure the ADC for configuration 1 by default, unless the
 315:Generated_Source\PSoC5/ADC_DelSig.c **** *  ADC_DelSig_SelectConfiguration( ) function has been called to change
 316:Generated_Source\PSoC5/ADC_DelSig.c **** *  the default setting.
 317:Generated_Source\PSoC5/ADC_DelSig.c **** *
ARM GAS  C:\Users\Nelson\AppData\Local\Temp\ccgC0n3g.s 			page 7


 318:Generated_Source\PSoC5/ADC_DelSig.c **** * Parameters:
 319:Generated_Source\PSoC5/ADC_DelSig.c **** *  None
 320:Generated_Source\PSoC5/ADC_DelSig.c **** *
 321:Generated_Source\PSoC5/ADC_DelSig.c **** * Return:
 322:Generated_Source\PSoC5/ADC_DelSig.c **** *  None
 323:Generated_Source\PSoC5/ADC_DelSig.c **** *
 324:Generated_Source\PSoC5/ADC_DelSig.c **** * Global variables:
 325:Generated_Source\PSoC5/ADC_DelSig.c **** *  ADC_DelSig_initVar:  Used to check the initial configuration,
 326:Generated_Source\PSoC5/ADC_DelSig.c **** *  modified when this function is called for the first time.
 327:Generated_Source\PSoC5/ADC_DelSig.c **** *
 328:Generated_Source\PSoC5/ADC_DelSig.c **** *******************************************************************************/
 329:Generated_Source\PSoC5/ADC_DelSig.c **** void ADC_DelSig_Start(void) 
 330:Generated_Source\PSoC5/ADC_DelSig.c **** {
 331:Generated_Source\PSoC5/ADC_DelSig.c ****     if(ADC_DelSig_initVar == 0u)
 332:Generated_Source\PSoC5/ADC_DelSig.c ****     {
 333:Generated_Source\PSoC5/ADC_DelSig.c ****         if(ADC_DelSig_started == 0u)
 334:Generated_Source\PSoC5/ADC_DelSig.c ****         {
 335:Generated_Source\PSoC5/ADC_DelSig.c ****             ADC_DelSig_Init();
 336:Generated_Source\PSoC5/ADC_DelSig.c ****         }
 337:Generated_Source\PSoC5/ADC_DelSig.c ****         ADC_DelSig_initVar = 1u;
 338:Generated_Source\PSoC5/ADC_DelSig.c ****     }
 339:Generated_Source\PSoC5/ADC_DelSig.c **** 
 340:Generated_Source\PSoC5/ADC_DelSig.c ****     /* Enable the ADC */
 341:Generated_Source\PSoC5/ADC_DelSig.c ****     ADC_DelSig_Enable();
 342:Generated_Source\PSoC5/ADC_DelSig.c **** }
 343:Generated_Source\PSoC5/ADC_DelSig.c **** 
 344:Generated_Source\PSoC5/ADC_DelSig.c **** 
 345:Generated_Source\PSoC5/ADC_DelSig.c **** /*******************************************************************************
 346:Generated_Source\PSoC5/ADC_DelSig.c **** * Function Name: ADC_DelSig_Stop
 347:Generated_Source\PSoC5/ADC_DelSig.c **** ********************************************************************************
 348:Generated_Source\PSoC5/ADC_DelSig.c **** *
 349:Generated_Source\PSoC5/ADC_DelSig.c **** * Summary:
 350:Generated_Source\PSoC5/ADC_DelSig.c **** *  This function stops and powers down the ADC component and the internal
 351:Generated_Source\PSoC5/ADC_DelSig.c **** *  clock if the external clock is not selected. If an external clock is
 352:Generated_Source\PSoC5/ADC_DelSig.c **** *  used, it is up to the designer to power down the external clock it
 353:Generated_Source\PSoC5/ADC_DelSig.c **** *  required.
 354:Generated_Source\PSoC5/ADC_DelSig.c **** *
 355:Generated_Source\PSoC5/ADC_DelSig.c **** * Parameters:
 356:Generated_Source\PSoC5/ADC_DelSig.c **** *  None
 357:Generated_Source\PSoC5/ADC_DelSig.c **** *
 358:Generated_Source\PSoC5/ADC_DelSig.c **** * Return:
 359:Generated_Source\PSoC5/ADC_DelSig.c **** *  None
 360:Generated_Source\PSoC5/ADC_DelSig.c **** *
 361:Generated_Source\PSoC5/ADC_DelSig.c **** *******************************************************************************/
 362:Generated_Source\PSoC5/ADC_DelSig.c **** void ADC_DelSig_Stop(void) 
 363:Generated_Source\PSoC5/ADC_DelSig.c **** {
 364:Generated_Source\PSoC5/ADC_DelSig.c ****     uint8 enableInterrupts;
 365:Generated_Source\PSoC5/ADC_DelSig.c ****     enableInterrupts = CyEnterCriticalSection();
 366:Generated_Source\PSoC5/ADC_DelSig.c **** 
 367:Generated_Source\PSoC5/ADC_DelSig.c ****     /* Stop conversions */
 368:Generated_Source\PSoC5/ADC_DelSig.c ****     ADC_DelSig_DEC_CR_REG &= (uint8)~ADC_DelSig_DEC_START_CONV;
 369:Generated_Source\PSoC5/ADC_DelSig.c ****     ADC_DelSig_DEC_SR_REG |=  ADC_DelSig_DEC_INTR_CLEAR;
 370:Generated_Source\PSoC5/ADC_DelSig.c **** 
 371:Generated_Source\PSoC5/ADC_DelSig.c ****     /* Disable PRES, Disable power to VCMBUF0, REFBUF0 and REFBUF1,
 372:Generated_Source\PSoC5/ADC_DelSig.c ****        enable PRES */
 373:Generated_Source\PSoC5/ADC_DelSig.c ****     ADC_DelSig_RESET_CR4_REG |= ADC_DelSig_IGNORE_PRESA1;
 374:Generated_Source\PSoC5/ADC_DelSig.c ****     ADC_DelSig_RESET_CR5_REG |= ADC_DelSig_IGNORE_PRESA2;
ARM GAS  C:\Users\Nelson\AppData\Local\Temp\ccgC0n3g.s 			page 8


 375:Generated_Source\PSoC5/ADC_DelSig.c **** 
 376:Generated_Source\PSoC5/ADC_DelSig.c ****     ADC_DelSig_DSM_CR17_REG &= (uint8)~(ADC_DelSig_DSM_EN_BUF_VREF | ADC_DelSig_DSM_EN_BUF_VCM);
 377:Generated_Source\PSoC5/ADC_DelSig.c ****     ADC_DelSig_DSM_REF0_REG &= (uint8)~ADC_DelSig_DSM_EN_BUF_VREF_INN;
 378:Generated_Source\PSoC5/ADC_DelSig.c **** 
 379:Generated_Source\PSoC5/ADC_DelSig.c ****     /* Wait for 3 microseconds. */
 380:Generated_Source\PSoC5/ADC_DelSig.c ****     CyDelayUs(ADC_DelSig_PRES_DELAY_TIME);
 381:Generated_Source\PSoC5/ADC_DelSig.c **** 
 382:Generated_Source\PSoC5/ADC_DelSig.c ****     /* Enable the press circuit */
 383:Generated_Source\PSoC5/ADC_DelSig.c ****     ADC_DelSig_RESET_CR4_REG &= (uint8)~ADC_DelSig_IGNORE_PRESA1;
 384:Generated_Source\PSoC5/ADC_DelSig.c ****     ADC_DelSig_RESET_CR5_REG &= (uint8)~ADC_DelSig_IGNORE_PRESA2;
 385:Generated_Source\PSoC5/ADC_DelSig.c **** 
 386:Generated_Source\PSoC5/ADC_DelSig.c ****     /* Disable power to the ADC */
 387:Generated_Source\PSoC5/ADC_DelSig.c ****     ADC_DelSig_PWRMGR_DSM_REG &= (uint8)~ADC_DelSig_ACT_PWR_DSM_EN;
 388:Generated_Source\PSoC5/ADC_DelSig.c **** 
 389:Generated_Source\PSoC5/ADC_DelSig.c ****     /* Disable power to Decimator block */
 390:Generated_Source\PSoC5/ADC_DelSig.c ****     ADC_DelSig_PWRMGR_DEC_REG &= (uint8)~ADC_DelSig_ACT_PWR_DEC_EN;
 391:Generated_Source\PSoC5/ADC_DelSig.c **** 
 392:Generated_Source\PSoC5/ADC_DelSig.c ****     /* Disable alternative active power to the ADC */
 393:Generated_Source\PSoC5/ADC_DelSig.c ****     ADC_DelSig_STBY_PWRMGR_DEC_REG &= (uint8)~ADC_DelSig_STBY_PWR_DEC_EN;
 394:Generated_Source\PSoC5/ADC_DelSig.c ****     ADC_DelSig_STBY_PWRMGR_DSM_REG &= (uint8)~ADC_DelSig_STBY_PWR_DSM_EN;
 395:Generated_Source\PSoC5/ADC_DelSig.c **** 
 396:Generated_Source\PSoC5/ADC_DelSig.c ****    /* Disable negative pumps for DSM  */
 397:Generated_Source\PSoC5/ADC_DelSig.c ****     ADC_DelSig_PUMP_CR1_REG &= (uint8)~(ADC_DelSig_PUMP_CR1_CLKSEL | ADC_DelSig_PUMP_CR1_FORCE );
 398:Generated_Source\PSoC5/ADC_DelSig.c **** 
 399:Generated_Source\PSoC5/ADC_DelSig.c ****     /* This is only valid if there is an internal clock */
 400:Generated_Source\PSoC5/ADC_DelSig.c ****     #if(ADC_DelSig_DEFAULT_INTERNAL_CLK)
 401:Generated_Source\PSoC5/ADC_DelSig.c ****         ADC_DelSig_PWRMGR_CLK_REG &= (uint8)~ADC_DelSig_ACT_PWR_CLK_EN;
 402:Generated_Source\PSoC5/ADC_DelSig.c ****         ADC_DelSig_STBY_PWRMGR_CLK_REG &= (uint8)~ADC_DelSig_STBY_PWR_CLK_EN;
 403:Generated_Source\PSoC5/ADC_DelSig.c ****     #endif /* ADC_DelSig_DEFAULT_INTERNAL_CLK */
 404:Generated_Source\PSoC5/ADC_DelSig.c **** 
 405:Generated_Source\PSoC5/ADC_DelSig.c ****     /* Disable Modulator Chopping */
 406:Generated_Source\PSoC5/ADC_DelSig.c ****     ADC_DelSig_DSM_CR2_REG &= (uint8)~ADC_DelSig_DSM_MOD_CHOP_EN;
 407:Generated_Source\PSoC5/ADC_DelSig.c ****     /* Disable power to charge pump clock */
 408:Generated_Source\PSoC5/ADC_DelSig.c ****     ADC_DelSig_PWRMGR_CHARGE_PUMP_CLK_REG &= (uint8)~ADC_DelSig_ACT_PWR_CHARGE_PUMP_CLK_EN;
 409:Generated_Source\PSoC5/ADC_DelSig.c ****     ADC_DelSig_STBY_PWRMGR_CHARGE_PUMP_CLK_REG &= (uint8)~ADC_DelSig_STBY_PWR_CHARGE_PUMP_CLK_EN;
 410:Generated_Source\PSoC5/ADC_DelSig.c ****     
 411:Generated_Source\PSoC5/ADC_DelSig.c ****     CyExitCriticalSection(enableInterrupts);
 412:Generated_Source\PSoC5/ADC_DelSig.c **** }
 413:Generated_Source\PSoC5/ADC_DelSig.c **** 
 414:Generated_Source\PSoC5/ADC_DelSig.c **** 
 415:Generated_Source\PSoC5/ADC_DelSig.c **** /*******************************************************************************
 416:Generated_Source\PSoC5/ADC_DelSig.c **** * Function Name: ADC_DelSig_SetBufferGain
 417:Generated_Source\PSoC5/ADC_DelSig.c **** ********************************************************************************
 418:Generated_Source\PSoC5/ADC_DelSig.c **** *
 419:Generated_Source\PSoC5/ADC_DelSig.c **** * Summary:
 420:Generated_Source\PSoC5/ADC_DelSig.c **** *  Sets input buffer gain.
 421:Generated_Source\PSoC5/ADC_DelSig.c **** *
 422:Generated_Source\PSoC5/ADC_DelSig.c **** * Parameters:
 423:Generated_Source\PSoC5/ADC_DelSig.c **** *  gain:  Two bit value to select a gain of 1, 2, 4, or 8.
 424:Generated_Source\PSoC5/ADC_DelSig.c **** *
 425:Generated_Source\PSoC5/ADC_DelSig.c **** * Return:
 426:Generated_Source\PSoC5/ADC_DelSig.c **** *  None
 427:Generated_Source\PSoC5/ADC_DelSig.c **** *
 428:Generated_Source\PSoC5/ADC_DelSig.c **** *******************************************************************************/
 429:Generated_Source\PSoC5/ADC_DelSig.c **** void ADC_DelSig_SetBufferGain(uint8 gain) 
 430:Generated_Source\PSoC5/ADC_DelSig.c **** {
 431:Generated_Source\PSoC5/ADC_DelSig.c ****     uint8 tmpReg;
ARM GAS  C:\Users\Nelson\AppData\Local\Temp\ccgC0n3g.s 			page 9


 432:Generated_Source\PSoC5/ADC_DelSig.c ****     tmpReg = ADC_DelSig_DSM_BUF1_REG & (uint8)~ADC_DelSig_DSM_GAIN_MASK;
 433:Generated_Source\PSoC5/ADC_DelSig.c ****     tmpReg |= (uint8)(gain << ADC_DelSig_DSM_GAIN_SHIFT) & ADC_DelSig_DSM_GAIN_MASK;
 434:Generated_Source\PSoC5/ADC_DelSig.c ****     ADC_DelSig_DSM_BUF1_REG = tmpReg;
 435:Generated_Source\PSoC5/ADC_DelSig.c **** }
 436:Generated_Source\PSoC5/ADC_DelSig.c **** 
 437:Generated_Source\PSoC5/ADC_DelSig.c **** 
 438:Generated_Source\PSoC5/ADC_DelSig.c **** /*******************************************************************************
 439:Generated_Source\PSoC5/ADC_DelSig.c **** * Function Name: ADC_DelSig_SetCoherency
 440:Generated_Source\PSoC5/ADC_DelSig.c **** ********************************************************************************
 441:Generated_Source\PSoC5/ADC_DelSig.c **** *
 442:Generated_Source\PSoC5/ADC_DelSig.c **** * Summary:
 443:Generated_Source\PSoC5/ADC_DelSig.c **** *  This function allows the user to change which of the ADC's 3 word
 444:Generated_Source\PSoC5/ADC_DelSig.c **** *  result will trigger a coherency unlock. The ADC's result will not be
 445:Generated_Source\PSoC5/ADC_DelSig.c **** *  updated until the set byte is read either by the ADC or DMA. 
 446:Generated_Source\PSoC5/ADC_DelSig.c **** *  By default the LSB is the coherency byte for right alignment data format. 
 447:Generated_Source\PSoC5/ADC_DelSig.c **** *  The middle or high byte is set automatically depend on left alignment 
 448:Generated_Source\PSoC5/ADC_DelSig.c **** *  configuration for DMA data transfer.
 449:Generated_Source\PSoC5/ADC_DelSig.c **** *  If DMA or if a custom API requires different byte to be read the last,
 450:Generated_Source\PSoC5/ADC_DelSig.c **** *  this API should be used to set the last byte of the ADC result that is read. 
 451:Generated_Source\PSoC5/ADC_DelSig.c **** *  If a multibyte read is performed either by DMA or the ARM processor, the
 452:Generated_Source\PSoC5/ADC_DelSig.c **** *  coherency can be set to any byte in the last word read.
 453:Generated_Source\PSoC5/ADC_DelSig.c **** *
 454:Generated_Source\PSoC5/ADC_DelSig.c **** * Parameters:
 455:Generated_Source\PSoC5/ADC_DelSig.c **** *  coherency:  Two bit value to set the coherency bit.
 456:Generated_Source\PSoC5/ADC_DelSig.c **** *           00-Coherency checking off
 457:Generated_Source\PSoC5/ADC_DelSig.c **** *           01-low byte is key byte
 458:Generated_Source\PSoC5/ADC_DelSig.c **** *           02-middle byte is the key byte
 459:Generated_Source\PSoC5/ADC_DelSig.c **** *           03-high byte is the key byte
 460:Generated_Source\PSoC5/ADC_DelSig.c **** *
 461:Generated_Source\PSoC5/ADC_DelSig.c **** * Return:
 462:Generated_Source\PSoC5/ADC_DelSig.c **** *  None
 463:Generated_Source\PSoC5/ADC_DelSig.c **** *
 464:Generated_Source\PSoC5/ADC_DelSig.c **** *******************************************************************************/
 465:Generated_Source\PSoC5/ADC_DelSig.c **** void ADC_DelSig_SetCoherency(uint8 coherency) 
 466:Generated_Source\PSoC5/ADC_DelSig.c **** {
 467:Generated_Source\PSoC5/ADC_DelSig.c ****     uint8 tmpReg;
 468:Generated_Source\PSoC5/ADC_DelSig.c **** 
 469:Generated_Source\PSoC5/ADC_DelSig.c ****     tmpReg = ADC_DelSig_DEC_COHER_REG & (uint8)~ADC_DelSig_DEC_SAMP_KEY_MASK;
 470:Generated_Source\PSoC5/ADC_DelSig.c ****     tmpReg |= coherency & ADC_DelSig_DEC_SAMP_KEY_MASK;
 471:Generated_Source\PSoC5/ADC_DelSig.c ****     ADC_DelSig_DEC_COHER_REG = tmpReg;
 472:Generated_Source\PSoC5/ADC_DelSig.c **** }
 473:Generated_Source\PSoC5/ADC_DelSig.c **** 
 474:Generated_Source\PSoC5/ADC_DelSig.c **** 
 475:Generated_Source\PSoC5/ADC_DelSig.c **** /*******************************************************************************
 476:Generated_Source\PSoC5/ADC_DelSig.c **** * Function Name: ADC_DelSig_SetGCOR
 477:Generated_Source\PSoC5/ADC_DelSig.c **** ********************************************************************************
 478:Generated_Source\PSoC5/ADC_DelSig.c **** *
 479:Generated_Source\PSoC5/ADC_DelSig.c **** * Summary:
 480:Generated_Source\PSoC5/ADC_DelSig.c **** *  Calculates a new GCOR value and writes it into the GCOR register. 
 481:Generated_Source\PSoC5/ADC_DelSig.c **** *  The GCOR value is a 16-bit value that represents a gain of 0 to 2. 
 482:Generated_Source\PSoC5/ADC_DelSig.c **** *  The ADC result is multiplied by this value before it is placed in the ADC 
 483:Generated_Source\PSoC5/ADC_DelSig.c **** *  output registers. The numerical format for the GCOR value is:
 484:Generated_Source\PSoC5/ADC_DelSig.c **** *  0x0000 -> 0.000
 485:Generated_Source\PSoC5/ADC_DelSig.c **** *  0x8000 -> 1.000
 486:Generated_Source\PSoC5/ADC_DelSig.c **** *  0xFFFF -> 1.99997
 487:Generated_Source\PSoC5/ADC_DelSig.c **** *  When executing the function, the old GCOR value is multiplied by
 488:Generated_Source\PSoC5/ADC_DelSig.c **** *  gainAdjust and reloaded into the GCOR register.
ARM GAS  C:\Users\Nelson\AppData\Local\Temp\ccgC0n3g.s 			page 10


 489:Generated_Source\PSoC5/ADC_DelSig.c **** *
 490:Generated_Source\PSoC5/ADC_DelSig.c **** * Parameters:
 491:Generated_Source\PSoC5/ADC_DelSig.c **** *  gainAdjust:  floating point value to set GCOR registers.
 492:Generated_Source\PSoC5/ADC_DelSig.c **** *
 493:Generated_Source\PSoC5/ADC_DelSig.c **** * Return:
 494:Generated_Source\PSoC5/ADC_DelSig.c **** *  uint8: 0 - if GCOR value is within the expected range.
 495:Generated_Source\PSoC5/ADC_DelSig.c **** *         1 - the correction value is outside GCOR value range of
 496:Generated_Source\PSoC5/ADC_DelSig.c **** *             0.00 to 1.9999.
 497:Generated_Source\PSoC5/ADC_DelSig.c **** *
 498:Generated_Source\PSoC5/ADC_DelSig.c **** * Side Effects:  The GVAL register is set to the amount of valid bits in the
 499:Generated_Source\PSoC5/ADC_DelSig.c **** *                GCOR  register minus one. If GVAL is 15 (0x0F), all 16 bits
 500:Generated_Source\PSoC5/ADC_DelSig.c **** *                of the GCOR registers will be valid. If for example GVAL is
 501:Generated_Source\PSoC5/ADC_DelSig.c **** *                11 (0x0B) only 12 bits will be valid. The least 4 bits will
 502:Generated_Source\PSoC5/ADC_DelSig.c **** *                be lost when the GCOR value is shifted 4 places to the right.
 503:Generated_Source\PSoC5/ADC_DelSig.c **** *
 504:Generated_Source\PSoC5/ADC_DelSig.c **** ******************************************************************************/
 505:Generated_Source\PSoC5/ADC_DelSig.c **** uint8 ADC_DelSig_SetGCOR(float32 gainAdjust) 
 506:Generated_Source\PSoC5/ADC_DelSig.c **** {
 507:Generated_Source\PSoC5/ADC_DelSig.c ****     uint16 tmpReg;
 508:Generated_Source\PSoC5/ADC_DelSig.c ****     uint8 status;
 509:Generated_Source\PSoC5/ADC_DelSig.c ****     float32 tmpValue;
 510:Generated_Source\PSoC5/ADC_DelSig.c **** 
 511:Generated_Source\PSoC5/ADC_DelSig.c ****     tmpReg = ADC_DelSig_gcor[ADC_DelSig_Config - 1u].gcor;
 512:Generated_Source\PSoC5/ADC_DelSig.c ****     tmpValue = ((float32)tmpReg / (float32)ADC_DelSig_IDEAL_GAIN_CONST);
 513:Generated_Source\PSoC5/ADC_DelSig.c ****     tmpValue = tmpValue * gainAdjust;
 514:Generated_Source\PSoC5/ADC_DelSig.c **** 
 515:Generated_Source\PSoC5/ADC_DelSig.c ****     if (tmpValue > 1.9999)
 516:Generated_Source\PSoC5/ADC_DelSig.c ****     {
 517:Generated_Source\PSoC5/ADC_DelSig.c ****         status = 1u;
 518:Generated_Source\PSoC5/ADC_DelSig.c ****     }
 519:Generated_Source\PSoC5/ADC_DelSig.c ****     else
 520:Generated_Source\PSoC5/ADC_DelSig.c ****     {
 521:Generated_Source\PSoC5/ADC_DelSig.c ****         tmpValue *= (float32)ADC_DelSig_IDEAL_GAIN_CONST;
 522:Generated_Source\PSoC5/ADC_DelSig.c **** 		tmpReg = (uint16)tmpValue;
 523:Generated_Source\PSoC5/ADC_DelSig.c ****         CY_SET_REG16(ADC_DelSig_DEC_GCOR_16B_PTR, tmpReg);
 524:Generated_Source\PSoC5/ADC_DelSig.c ****         /* Update gain array to be used by SelectConfiguration() API */
 525:Generated_Source\PSoC5/ADC_DelSig.c ****        ADC_DelSig_gcor[ADC_DelSig_Config - 1u].gcor = tmpReg;
 526:Generated_Source\PSoC5/ADC_DelSig.c **** 
 527:Generated_Source\PSoC5/ADC_DelSig.c ****         status = 0u;
 528:Generated_Source\PSoC5/ADC_DelSig.c **** 
 529:Generated_Source\PSoC5/ADC_DelSig.c ****     }
 530:Generated_Source\PSoC5/ADC_DelSig.c ****     return(status);
 531:Generated_Source\PSoC5/ADC_DelSig.c **** }
 532:Generated_Source\PSoC5/ADC_DelSig.c **** 
 533:Generated_Source\PSoC5/ADC_DelSig.c **** 
 534:Generated_Source\PSoC5/ADC_DelSig.c **** /******************************************************************************
 535:Generated_Source\PSoC5/ADC_DelSig.c **** * Function Name: ADC_DelSig_ReadGCOR
 536:Generated_Source\PSoC5/ADC_DelSig.c **** *******************************************************************************
 537:Generated_Source\PSoC5/ADC_DelSig.c **** *
 538:Generated_Source\PSoC5/ADC_DelSig.c **** * Summary:
 539:Generated_Source\PSoC5/ADC_DelSig.c **** *  This API returns the current GCOR register value, normalized based on the
 540:Generated_Source\PSoC5/ADC_DelSig.c **** *  GVAL register settings.
 541:Generated_Source\PSoC5/ADC_DelSig.c **** *  For example, if the GCOR value is 0x0812 and the GVAL register is set to 
 542:Generated_Source\PSoC5/ADC_DelSig.c **** *  11 (0x0B) then the returned value will be shifted by for bits to the left.
 543:Generated_Source\PSoC5/ADC_DelSig.c **** *  (Actual GCOR value = 0x0812, returned value = 0x8120)
 544:Generated_Source\PSoC5/ADC_DelSig.c **** *
 545:Generated_Source\PSoC5/ADC_DelSig.c **** * Parameters:
ARM GAS  C:\Users\Nelson\AppData\Local\Temp\ccgC0n3g.s 			page 11


 546:Generated_Source\PSoC5/ADC_DelSig.c **** *  None
 547:Generated_Source\PSoC5/ADC_DelSig.c **** *
 548:Generated_Source\PSoC5/ADC_DelSig.c **** * Return:
 549:Generated_Source\PSoC5/ADC_DelSig.c **** *  uint16:  Normalized GCOR value.
 550:Generated_Source\PSoC5/ADC_DelSig.c **** *
 551:Generated_Source\PSoC5/ADC_DelSig.c **** *******************************************************************************/
 552:Generated_Source\PSoC5/ADC_DelSig.c **** uint16 ADC_DelSig_ReadGCOR(void) 
 553:Generated_Source\PSoC5/ADC_DelSig.c **** {
 554:Generated_Source\PSoC5/ADC_DelSig.c ****     uint8 gValue;
 555:Generated_Source\PSoC5/ADC_DelSig.c ****     uint16 gcorValue;
 556:Generated_Source\PSoC5/ADC_DelSig.c **** 
 557:Generated_Source\PSoC5/ADC_DelSig.c ****     gValue = ADC_DelSig_DEC_GVAL_REG;
 558:Generated_Source\PSoC5/ADC_DelSig.c ****     gcorValue = CY_GET_REG16(ADC_DelSig_DEC_GCOR_16B_PTR);
 559:Generated_Source\PSoC5/ADC_DelSig.c **** 
 560:Generated_Source\PSoC5/ADC_DelSig.c ****     if (gValue < ADC_DelSig_MAX_GVAL)
 561:Generated_Source\PSoC5/ADC_DelSig.c ****     {
 562:Generated_Source\PSoC5/ADC_DelSig.c ****         gcorValue <<= ADC_DelSig_MAX_GVAL - gValue;
 563:Generated_Source\PSoC5/ADC_DelSig.c ****     }
 564:Generated_Source\PSoC5/ADC_DelSig.c **** 
 565:Generated_Source\PSoC5/ADC_DelSig.c ****     return gcorValue;
 566:Generated_Source\PSoC5/ADC_DelSig.c **** }
 567:Generated_Source\PSoC5/ADC_DelSig.c **** 
 568:Generated_Source\PSoC5/ADC_DelSig.c **** 
 569:Generated_Source\PSoC5/ADC_DelSig.c **** /*******************************************************************************
 570:Generated_Source\PSoC5/ADC_DelSig.c **** * Function Name: ADC_DelSig_StartConvert
 571:Generated_Source\PSoC5/ADC_DelSig.c **** ********************************************************************************
 572:Generated_Source\PSoC5/ADC_DelSig.c **** *
 573:Generated_Source\PSoC5/ADC_DelSig.c **** * Summary:
 574:Generated_Source\PSoC5/ADC_DelSig.c **** *  Forces the ADC to initiate a conversion. If in the "Single Sample"
 575:Generated_Source\PSoC5/ADC_DelSig.c **** *  mode, one conversion will be performed then the ADC will halt. If in
 576:Generated_Source\PSoC5/ADC_DelSig.c **** *  one of the other three conversion modes, the ADC will run
 577:Generated_Source\PSoC5/ADC_DelSig.c **** *  continuously until the ADC_Stop() or ADC_StopConvert() is called.
 578:Generated_Source\PSoC5/ADC_DelSig.c **** *
 579:Generated_Source\PSoC5/ADC_DelSig.c **** * Parameters:
 580:Generated_Source\PSoC5/ADC_DelSig.c **** *  None
 581:Generated_Source\PSoC5/ADC_DelSig.c **** *
 582:Generated_Source\PSoC5/ADC_DelSig.c **** * Return:
 583:Generated_Source\PSoC5/ADC_DelSig.c **** *  None
 584:Generated_Source\PSoC5/ADC_DelSig.c **** *
 585:Generated_Source\PSoC5/ADC_DelSig.c **** *******************************************************************************/
 586:Generated_Source\PSoC5/ADC_DelSig.c **** void ADC_DelSig_StartConvert(void) 
 587:Generated_Source\PSoC5/ADC_DelSig.c **** {
 588:Generated_Source\PSoC5/ADC_DelSig.c ****     /* Start the conversion */
 589:Generated_Source\PSoC5/ADC_DelSig.c ****     ADC_DelSig_DEC_CR_REG |= ADC_DelSig_DEC_START_CONV;
 590:Generated_Source\PSoC5/ADC_DelSig.c **** }
 591:Generated_Source\PSoC5/ADC_DelSig.c **** 
 592:Generated_Source\PSoC5/ADC_DelSig.c **** 
 593:Generated_Source\PSoC5/ADC_DelSig.c **** /*******************************************************************************
 594:Generated_Source\PSoC5/ADC_DelSig.c **** * Function Name: ADC_DelSig_StopConvert
 595:Generated_Source\PSoC5/ADC_DelSig.c **** ********************************************************************************
 596:Generated_Source\PSoC5/ADC_DelSig.c **** *
 597:Generated_Source\PSoC5/ADC_DelSig.c **** * Summary:
 598:Generated_Source\PSoC5/ADC_DelSig.c **** *  Forces the ADC to stop all conversions. If the ADC is in the middle of a
 599:Generated_Source\PSoC5/ADC_DelSig.c **** *  conversion, the ADC will be reset and not provide a result for that partial
 600:Generated_Source\PSoC5/ADC_DelSig.c **** *  conversion.
 601:Generated_Source\PSoC5/ADC_DelSig.c **** *
 602:Generated_Source\PSoC5/ADC_DelSig.c **** * Parameters:
ARM GAS  C:\Users\Nelson\AppData\Local\Temp\ccgC0n3g.s 			page 12


 603:Generated_Source\PSoC5/ADC_DelSig.c **** *  None
 604:Generated_Source\PSoC5/ADC_DelSig.c **** *
 605:Generated_Source\PSoC5/ADC_DelSig.c **** * Return:
 606:Generated_Source\PSoC5/ADC_DelSig.c **** *  None
 607:Generated_Source\PSoC5/ADC_DelSig.c **** *
 608:Generated_Source\PSoC5/ADC_DelSig.c **** *******************************************************************************/
 609:Generated_Source\PSoC5/ADC_DelSig.c **** void ADC_DelSig_StopConvert(void) 
 610:Generated_Source\PSoC5/ADC_DelSig.c **** {
 611:Generated_Source\PSoC5/ADC_DelSig.c ****     /* Stop all conversions */
 612:Generated_Source\PSoC5/ADC_DelSig.c ****     ADC_DelSig_DEC_CR_REG &= (uint8)~ADC_DelSig_DEC_START_CONV;
 613:Generated_Source\PSoC5/ADC_DelSig.c **** }
 614:Generated_Source\PSoC5/ADC_DelSig.c **** 
 615:Generated_Source\PSoC5/ADC_DelSig.c **** 
 616:Generated_Source\PSoC5/ADC_DelSig.c **** /*******************************************************************************
 617:Generated_Source\PSoC5/ADC_DelSig.c **** * Function Name: ADC_DelSig_IsEndConversion
 618:Generated_Source\PSoC5/ADC_DelSig.c **** ********************************************************************************
 619:Generated_Source\PSoC5/ADC_DelSig.c **** *
 620:Generated_Source\PSoC5/ADC_DelSig.c **** * Summary:
 621:Generated_Source\PSoC5/ADC_DelSig.c **** *  Checks the status that the most recently started conversion has completed.
 622:Generated_Source\PSoC5/ADC_DelSig.c **** *  The status is cleared by any of ADC_GetResult8(), ADC_GetResult16() or 
 623:Generated_Source\PSoC5/ADC_DelSig.c **** *  ADC_GetResult32() API.
 624:Generated_Source\PSoC5/ADC_DelSig.c **** *  This function provides the programmer with two options. In one mode this 
 625:Generated_Source\PSoC5/ADC_DelSig.c **** *  function immediately returns with the conversion status. In the other mode,
 626:Generated_Source\PSoC5/ADC_DelSig.c **** *  the function does not return (blocking) until the conversion has completed.
 627:Generated_Source\PSoC5/ADC_DelSig.c **** *
 628:Generated_Source\PSoC5/ADC_DelSig.c **** * Parameters:
 629:Generated_Source\PSoC5/ADC_DelSig.c **** *  retMode: Check conversion return mode. See the following table for options.
 630:Generated_Source\PSoC5/ADC_DelSig.c **** *   ADC_DelSig_RETURN_STATUS -   Immediately returns conversion result
 631:Generated_Source\PSoC5/ADC_DelSig.c **** *                                      status.
 632:Generated_Source\PSoC5/ADC_DelSig.c **** *   ADC_DelSig_WAIT_FOR_RESULT - Does not return until ADC conversion
 633:Generated_Source\PSoC5/ADC_DelSig.c **** *                                      is complete.
 634:Generated_Source\PSoC5/ADC_DelSig.c **** *
 635:Generated_Source\PSoC5/ADC_DelSig.c **** * Return:
 636:Generated_Source\PSoC5/ADC_DelSig.c **** *  If a nonzero value is returned, the last conversion has completed.
 637:Generated_Source\PSoC5/ADC_DelSig.c **** *  If the returned value is zero, the ADC is still calculating the last result.
 638:Generated_Source\PSoC5/ADC_DelSig.c **** *
 639:Generated_Source\PSoC5/ADC_DelSig.c **** * Global variables:
 640:Generated_Source\PSoC5/ADC_DelSig.c **** *  ADC_DelSig_convDone:  Used to check whether conversion is complete
 641:Generated_Source\PSoC5/ADC_DelSig.c **** *  or not for single sample mode with resolution is above 16
 642:Generated_Source\PSoC5/ADC_DelSig.c **** *
 643:Generated_Source\PSoC5/ADC_DelSig.c **** *******************************************************************************/
 644:Generated_Source\PSoC5/ADC_DelSig.c **** uint8 ADC_DelSig_IsEndConversion(uint8 retMode) 
 645:Generated_Source\PSoC5/ADC_DelSig.c **** {
 646:Generated_Source\PSoC5/ADC_DelSig.c ****     uint8 status;
 647:Generated_Source\PSoC5/ADC_DelSig.c **** 
 648:Generated_Source\PSoC5/ADC_DelSig.c ****     do
 649:Generated_Source\PSoC5/ADC_DelSig.c ****     {
 650:Generated_Source\PSoC5/ADC_DelSig.c ****         /* Check for stop convert if conversion mode is Single Sample with
 651:Generated_Source\PSoC5/ADC_DelSig.c ****         *   resolution above 16 bit
 652:Generated_Source\PSoC5/ADC_DelSig.c ****         */
 653:Generated_Source\PSoC5/ADC_DelSig.c ****         if(ADC_DelSig_stopConversion != 0u)
 654:Generated_Source\PSoC5/ADC_DelSig.c ****         {
 655:Generated_Source\PSoC5/ADC_DelSig.c ****             status = ADC_DelSig_convDone;
 656:Generated_Source\PSoC5/ADC_DelSig.c ****         }
 657:Generated_Source\PSoC5/ADC_DelSig.c ****         else
 658:Generated_Source\PSoC5/ADC_DelSig.c ****         {
 659:Generated_Source\PSoC5/ADC_DelSig.c ****             status = ADC_DelSig_DEC_SR_REG & ADC_DelSig_DEC_CONV_DONE;
ARM GAS  C:\Users\Nelson\AppData\Local\Temp\ccgC0n3g.s 			page 13


 660:Generated_Source\PSoC5/ADC_DelSig.c ****         }
 661:Generated_Source\PSoC5/ADC_DelSig.c ****     }while((status != ADC_DelSig_DEC_CONV_DONE) && (retMode == ADC_DelSig_WAIT_FOR_RESULT));
 662:Generated_Source\PSoC5/ADC_DelSig.c **** 
 663:Generated_Source\PSoC5/ADC_DelSig.c ****     return(status);
 664:Generated_Source\PSoC5/ADC_DelSig.c **** }
 665:Generated_Source\PSoC5/ADC_DelSig.c **** 
 666:Generated_Source\PSoC5/ADC_DelSig.c **** 
 667:Generated_Source\PSoC5/ADC_DelSig.c **** /*******************************************************************************
 668:Generated_Source\PSoC5/ADC_DelSig.c **** * Function Name: ADC_DelSig_GetResult8
 669:Generated_Source\PSoC5/ADC_DelSig.c **** ********************************************************************************
 670:Generated_Source\PSoC5/ADC_DelSig.c **** *
 671:Generated_Source\PSoC5/ADC_DelSig.c **** * Summary:
 672:Generated_Source\PSoC5/ADC_DelSig.c **** *  This function returns the result of an 8-bit conversion. If the
 673:Generated_Source\PSoC5/ADC_DelSig.c **** *  resolution is set greater than 8-bits, the LSB of the result will be
 674:Generated_Source\PSoC5/ADC_DelSig.c **** *  returned. When the ADC is configured for 8-bit single ended mode,
 675:Generated_Source\PSoC5/ADC_DelSig.c **** *  the ADC_GetResult16() function should be used instead. This
 676:Generated_Source\PSoC5/ADC_DelSig.c **** *  function returns only signed 8-bit values. The maximum positive
 677:Generated_Source\PSoC5/ADC_DelSig.c **** *  signed 8-bit value is 127, but in singled ended 8-bit mode, the
 678:Generated_Source\PSoC5/ADC_DelSig.c **** *  maximum positive value is 255.
 679:Generated_Source\PSoC5/ADC_DelSig.c **** *
 680:Generated_Source\PSoC5/ADC_DelSig.c **** * Parameters:
 681:Generated_Source\PSoC5/ADC_DelSig.c **** *  None
 682:Generated_Source\PSoC5/ADC_DelSig.c **** *
 683:Generated_Source\PSoC5/ADC_DelSig.c **** * Return:
 684:Generated_Source\PSoC5/ADC_DelSig.c **** *  int8: The LSB of the last ADC conversion.
 685:Generated_Source\PSoC5/ADC_DelSig.c **** *
 686:Generated_Source\PSoC5/ADC_DelSig.c **** * Global variables:
 687:Generated_Source\PSoC5/ADC_DelSig.c **** *  ADC_DelSig_convDone:  Cleared in single sample mode with resolution
 688:Generated_Source\PSoC5/ADC_DelSig.c **** *                              above 16 bits
 689:Generated_Source\PSoC5/ADC_DelSig.c **** *
 690:Generated_Source\PSoC5/ADC_DelSig.c **** *******************************************************************************/
 691:Generated_Source\PSoC5/ADC_DelSig.c **** int8 ADC_DelSig_GetResult8( void ) 
 692:Generated_Source\PSoC5/ADC_DelSig.c **** {
 693:Generated_Source\PSoC5/ADC_DelSig.c ****     int8 result;
 694:Generated_Source\PSoC5/ADC_DelSig.c ****     uint8 coherency;
 695:Generated_Source\PSoC5/ADC_DelSig.c **** 
 696:Generated_Source\PSoC5/ADC_DelSig.c ****     /* Read active coherency configuration */
 697:Generated_Source\PSoC5/ADC_DelSig.c ****     coherency = ADC_DelSig_DEC_COHER_REG & ADC_DelSig_DEC_SAMP_KEY_MASK;
 698:Generated_Source\PSoC5/ADC_DelSig.c **** 
 699:Generated_Source\PSoC5/ADC_DelSig.c ****     result = (int8)ADC_DelSig_DEC_SAMP_REG;
 700:Generated_Source\PSoC5/ADC_DelSig.c **** 
 701:Generated_Source\PSoC5/ADC_DelSig.c ****     if(coherency == ADC_DelSig_DEC_SAMP_KEY_MID)
 702:Generated_Source\PSoC5/ADC_DelSig.c ****     {   /* Dummy read of the middle byte to unlock the coherency */
 703:Generated_Source\PSoC5/ADC_DelSig.c ****         (void)ADC_DelSig_DEC_SAMPM_REG;
 704:Generated_Source\PSoC5/ADC_DelSig.c ****     }
 705:Generated_Source\PSoC5/ADC_DelSig.c ****     else  if(coherency == ADC_DelSig_DEC_SAMP_KEY_HIGH)
 706:Generated_Source\PSoC5/ADC_DelSig.c ****     {   /* Dummy read of the MSB byte to unlock the coherency */
 707:Generated_Source\PSoC5/ADC_DelSig.c ****         (void)ADC_DelSig_DEC_SAMPH_REG;
 708:Generated_Source\PSoC5/ADC_DelSig.c ****     }
 709:Generated_Source\PSoC5/ADC_DelSig.c ****     else /*No action required for other coherency */
 710:Generated_Source\PSoC5/ADC_DelSig.c ****     {
 711:Generated_Source\PSoC5/ADC_DelSig.c ****     }
 712:Generated_Source\PSoC5/ADC_DelSig.c ****     /* Clear conversion complete status in Single Sample mode with resolution above 16 bit */
 713:Generated_Source\PSoC5/ADC_DelSig.c ****     if(ADC_DelSig_stopConversion != 0u)
 714:Generated_Source\PSoC5/ADC_DelSig.c ****     {
 715:Generated_Source\PSoC5/ADC_DelSig.c ****         ADC_DelSig_convDone = 0u;
 716:Generated_Source\PSoC5/ADC_DelSig.c ****     }
ARM GAS  C:\Users\Nelson\AppData\Local\Temp\ccgC0n3g.s 			page 14


 717:Generated_Source\PSoC5/ADC_DelSig.c ****     return (result);
 718:Generated_Source\PSoC5/ADC_DelSig.c **** }
 719:Generated_Source\PSoC5/ADC_DelSig.c **** 
 720:Generated_Source\PSoC5/ADC_DelSig.c **** 
 721:Generated_Source\PSoC5/ADC_DelSig.c **** /*******************************************************************************
 722:Generated_Source\PSoC5/ADC_DelSig.c **** * Function Name: ADC_DelSig_GetResult16
 723:Generated_Source\PSoC5/ADC_DelSig.c **** ********************************************************************************
 724:Generated_Source\PSoC5/ADC_DelSig.c **** *
 725:Generated_Source\PSoC5/ADC_DelSig.c **** * Summary:
 726:Generated_Source\PSoC5/ADC_DelSig.c **** *  Returns a 16-bit result for a conversion with a result that has a
 727:Generated_Source\PSoC5/ADC_DelSig.c **** *  resolution of 8 to 16 bits. If the resolution is set greater than 16-bits,
 728:Generated_Source\PSoC5/ADC_DelSig.c **** *  it will return the 16 least significant bits of the result. When the ADC
 729:Generated_Source\PSoC5/ADC_DelSig.c **** *  is configured for 16-bit single ended mode, the ADC_GetResult32()
 730:Generated_Source\PSoC5/ADC_DelSig.c **** *  function should be used instead. This function returns only signed
 731:Generated_Source\PSoC5/ADC_DelSig.c **** *  16-bit result, which allows a maximum positive value of 32767, not 65535.
 732:Generated_Source\PSoC5/ADC_DelSig.c **** *  This function supports different coherency settings.
 733:Generated_Source\PSoC5/ADC_DelSig.c **** *
 734:Generated_Source\PSoC5/ADC_DelSig.c **** * Parameters:
 735:Generated_Source\PSoC5/ADC_DelSig.c **** *   void
 736:Generated_Source\PSoC5/ADC_DelSig.c **** *
 737:Generated_Source\PSoC5/ADC_DelSig.c **** * Return:
 738:Generated_Source\PSoC5/ADC_DelSig.c **** *  int16:  ADC result.
 739:Generated_Source\PSoC5/ADC_DelSig.c **** *
 740:Generated_Source\PSoC5/ADC_DelSig.c **** * Global variables:
 741:Generated_Source\PSoC5/ADC_DelSig.c **** *  ADC_DelSig_convDone:  Cleared in single sample mode with resolution
 742:Generated_Source\PSoC5/ADC_DelSig.c **** *                              above 16 bits
 743:Generated_Source\PSoC5/ADC_DelSig.c **** *
 744:Generated_Source\PSoC5/ADC_DelSig.c **** *******************************************************************************/
 745:Generated_Source\PSoC5/ADC_DelSig.c **** int16 ADC_DelSig_GetResult16(void) 
 746:Generated_Source\PSoC5/ADC_DelSig.c **** {
 747:Generated_Source\PSoC5/ADC_DelSig.c ****     uint16 result;
 748:Generated_Source\PSoC5/ADC_DelSig.c ****     uint8 coherency;
 749:Generated_Source\PSoC5/ADC_DelSig.c **** 
 750:Generated_Source\PSoC5/ADC_DelSig.c ****     /* Read active coherency configuration */
 751:Generated_Source\PSoC5/ADC_DelSig.c ****     coherency = ADC_DelSig_DEC_COHER_REG & ADC_DelSig_DEC_SAMP_KEY_MASK;
 752:Generated_Source\PSoC5/ADC_DelSig.c **** 
 753:Generated_Source\PSoC5/ADC_DelSig.c ****     if(coherency <= ADC_DelSig_DEC_SAMP_KEY_LOW)
 754:Generated_Source\PSoC5/ADC_DelSig.c ****     {   /*  Use default method to read result registers i.e. LSB byte read at the end*/
 755:Generated_Source\PSoC5/ADC_DelSig.c ****         #if (CY_PSOC3)
 756:Generated_Source\PSoC5/ADC_DelSig.c ****             result = ADC_DelSig_DEC_SAMPM_REG;
 757:Generated_Source\PSoC5/ADC_DelSig.c ****             result = (result << 8u) | ADC_DelSig_DEC_SAMP_REG;
 758:Generated_Source\PSoC5/ADC_DelSig.c ****         #else
 759:Generated_Source\PSoC5/ADC_DelSig.c ****             result = (CY_GET_REG16(ADC_DelSig_DEC_SAMP_16B_PTR));
 760:Generated_Source\PSoC5/ADC_DelSig.c ****         #endif /* CY_PSOC3 */
 761:Generated_Source\PSoC5/ADC_DelSig.c ****     }
 762:Generated_Source\PSoC5/ADC_DelSig.c ****     else /* MID or HIGH */
 763:Generated_Source\PSoC5/ADC_DelSig.c ****     {   /* Read middle byte at the end */
 764:Generated_Source\PSoC5/ADC_DelSig.c ****         #if (CY_PSOC3)
 765:Generated_Source\PSoC5/ADC_DelSig.c ****             result = (CY_GET_REG16(ADC_DelSig_DEC_SAMP_16B_PTR));
 766:Generated_Source\PSoC5/ADC_DelSig.c ****         #else
 767:Generated_Source\PSoC5/ADC_DelSig.c ****             result = ADC_DelSig_DEC_SAMP_REG;
 768:Generated_Source\PSoC5/ADC_DelSig.c ****             result |=  (uint16)((uint16)ADC_DelSig_DEC_SAMPM_REG << 8u);
 769:Generated_Source\PSoC5/ADC_DelSig.c ****         #endif /* CY_PSOC3 */
 770:Generated_Source\PSoC5/ADC_DelSig.c ****         if(coherency == ADC_DelSig_DEC_SAMP_KEY_HIGH)
 771:Generated_Source\PSoC5/ADC_DelSig.c ****         {   /* Dummy read of the MSB byte to unlock the coherency */
 772:Generated_Source\PSoC5/ADC_DelSig.c ****             (void)ADC_DelSig_DEC_SAMPH_REG;
 773:Generated_Source\PSoC5/ADC_DelSig.c ****         }
ARM GAS  C:\Users\Nelson\AppData\Local\Temp\ccgC0n3g.s 			page 15


 774:Generated_Source\PSoC5/ADC_DelSig.c ****     }
 775:Generated_Source\PSoC5/ADC_DelSig.c ****     /* Clear conversion complete status in Single Sample mode with resolution above 16 bit */
 776:Generated_Source\PSoC5/ADC_DelSig.c ****     if(ADC_DelSig_stopConversion != 0u)
 777:Generated_Source\PSoC5/ADC_DelSig.c ****     {
 778:Generated_Source\PSoC5/ADC_DelSig.c ****         ADC_DelSig_convDone = 0u;
 779:Generated_Source\PSoC5/ADC_DelSig.c ****     }
 780:Generated_Source\PSoC5/ADC_DelSig.c **** 
 781:Generated_Source\PSoC5/ADC_DelSig.c ****     return ((int16)result);
 782:Generated_Source\PSoC5/ADC_DelSig.c **** }
 783:Generated_Source\PSoC5/ADC_DelSig.c **** 
 784:Generated_Source\PSoC5/ADC_DelSig.c **** 
 785:Generated_Source\PSoC5/ADC_DelSig.c **** /*******************************************************************************
 786:Generated_Source\PSoC5/ADC_DelSig.c **** * Function Name: ADC_DelSig_GetResult32
 787:Generated_Source\PSoC5/ADC_DelSig.c **** ********************************************************************************
 788:Generated_Source\PSoC5/ADC_DelSig.c **** *
 789:Generated_Source\PSoC5/ADC_DelSig.c **** * Summary:
 790:Generated_Source\PSoC5/ADC_DelSig.c **** *  Returns a 32-bit result for a conversion with a result that has a
 791:Generated_Source\PSoC5/ADC_DelSig.c **** *  resolution of 8 to 20 bits.
 792:Generated_Source\PSoC5/ADC_DelSig.c **** *  This function supports different coherency settings.
 793:Generated_Source\PSoC5/ADC_DelSig.c **** *
 794:Generated_Source\PSoC5/ADC_DelSig.c **** * Parameters:
 795:Generated_Source\PSoC5/ADC_DelSig.c **** *  None
 796:Generated_Source\PSoC5/ADC_DelSig.c **** *
 797:Generated_Source\PSoC5/ADC_DelSig.c **** * Return:
 798:Generated_Source\PSoC5/ADC_DelSig.c **** *  int32: Result of the last ADC conversion.
 799:Generated_Source\PSoC5/ADC_DelSig.c **** *
 800:Generated_Source\PSoC5/ADC_DelSig.c **** * Global variables:
 801:Generated_Source\PSoC5/ADC_DelSig.c **** *  ADC_DelSig_convDone:  Cleared in single sample mode with resolution
 802:Generated_Source\PSoC5/ADC_DelSig.c **** *                              above 16 bits
 803:Generated_Source\PSoC5/ADC_DelSig.c **** *
 804:Generated_Source\PSoC5/ADC_DelSig.c **** *******************************************************************************/
 805:Generated_Source\PSoC5/ADC_DelSig.c **** int32 ADC_DelSig_GetResult32(void) 
 806:Generated_Source\PSoC5/ADC_DelSig.c **** {
 807:Generated_Source\PSoC5/ADC_DelSig.c ****     uint32 result;
 808:Generated_Source\PSoC5/ADC_DelSig.c ****     uint8 coherency;
 809:Generated_Source\PSoC5/ADC_DelSig.c ****     #if (CY_PSOC3)
 810:Generated_Source\PSoC5/ADC_DelSig.c **** 	    uint16 tmp;
 811:Generated_Source\PSoC5/ADC_DelSig.c ****     #endif /* CY_PSOC3 */
 812:Generated_Source\PSoC5/ADC_DelSig.c **** 
 813:Generated_Source\PSoC5/ADC_DelSig.c ****     /* Read active coherency configuration */
 814:Generated_Source\PSoC5/ADC_DelSig.c ****     coherency = ADC_DelSig_DEC_COHER_REG & ADC_DelSig_DEC_SAMP_KEY_MASK;
 815:Generated_Source\PSoC5/ADC_DelSig.c **** 
 816:Generated_Source\PSoC5/ADC_DelSig.c ****     if(coherency <= ADC_DelSig_DEC_SAMP_KEY_LOW)
 817:Generated_Source\PSoC5/ADC_DelSig.c ****     {   /*  Use default method to read result registers i.e. LSB byte read at the end*/
 818:Generated_Source\PSoC5/ADC_DelSig.c ****         #if (CY_PSOC3)
 819:Generated_Source\PSoC5/ADC_DelSig.c ****             result = ADC_DelSig_DEC_SAMPH_REG;
 820:Generated_Source\PSoC5/ADC_DelSig.c ****             if((result & 0x80u) != 0u)
 821:Generated_Source\PSoC5/ADC_DelSig.c ****             {   /* Sign extend */
 822:Generated_Source\PSoC5/ADC_DelSig.c ****                 result |= 0xFF00u;
 823:Generated_Source\PSoC5/ADC_DelSig.c ****             }
 824:Generated_Source\PSoC5/ADC_DelSig.c ****             result = (result << 8u) | ADC_DelSig_DEC_SAMPM_REG;
 825:Generated_Source\PSoC5/ADC_DelSig.c ****             result = (result << 8u) | ADC_DelSig_DEC_SAMP_REG;
 826:Generated_Source\PSoC5/ADC_DelSig.c ****         #else
 827:Generated_Source\PSoC5/ADC_DelSig.c ****             result = CY_GET_REG16(ADC_DelSig_DEC_SAMPH_16B_PTR);
 828:Generated_Source\PSoC5/ADC_DelSig.c ****             result = (result << 16u) | (CY_GET_REG16(ADC_DelSig_DEC_SAMP_16B_PTR));
 829:Generated_Source\PSoC5/ADC_DelSig.c ****         #endif /* CY_PSOC3 */
 830:Generated_Source\PSoC5/ADC_DelSig.c ****     }
ARM GAS  C:\Users\Nelson\AppData\Local\Temp\ccgC0n3g.s 			page 16


 831:Generated_Source\PSoC5/ADC_DelSig.c ****     else if(coherency == ADC_DelSig_DEC_SAMP_KEY_MID)
 832:Generated_Source\PSoC5/ADC_DelSig.c ****     {   /* Read middle byte at the end */
 833:Generated_Source\PSoC5/ADC_DelSig.c ****         #if (CY_PSOC3)
 834:Generated_Source\PSoC5/ADC_DelSig.c ****             result = ADC_DelSig_DEC_SAMPH_REG;
 835:Generated_Source\PSoC5/ADC_DelSig.c ****             if((result & 0x80u) != 0u)
 836:Generated_Source\PSoC5/ADC_DelSig.c ****             {   /* Sign extend */
 837:Generated_Source\PSoC5/ADC_DelSig.c ****                 result |= 0xFF00u;
 838:Generated_Source\PSoC5/ADC_DelSig.c ****             }
 839:Generated_Source\PSoC5/ADC_DelSig.c ****             result = (result << 16u) | (CY_GET_REG16(ADC_DelSig_DEC_SAMP_16B_PTR));
 840:Generated_Source\PSoC5/ADC_DelSig.c ****         #else
 841:Generated_Source\PSoC5/ADC_DelSig.c ****             result = CY_GET_REG16(ADC_DelSig_DEC_SAMPH_16B_PTR);
 842:Generated_Source\PSoC5/ADC_DelSig.c ****             result = (result << 16u) | ADC_DelSig_DEC_SAMP_REG;
 843:Generated_Source\PSoC5/ADC_DelSig.c ****             result |=  (uint32)((uint32)ADC_DelSig_DEC_SAMPM_REG << 8u);
 844:Generated_Source\PSoC5/ADC_DelSig.c ****         #endif /* CY_PSOC3 */
 845:Generated_Source\PSoC5/ADC_DelSig.c ****     }
 846:Generated_Source\PSoC5/ADC_DelSig.c ****     else /*ADC_DelSig_DEC_SAMP_KEY_HIGH */
 847:Generated_Source\PSoC5/ADC_DelSig.c ****     {
 848:Generated_Source\PSoC5/ADC_DelSig.c ****         /* Read MSB byte at the end */
 849:Generated_Source\PSoC5/ADC_DelSig.c ****         #if (CY_PSOC3)
 850:Generated_Source\PSoC5/ADC_DelSig.c ****             result = CY_GET_REG16(ADC_DelSig_DEC_SAMP_16B_PTR);
 851:Generated_Source\PSoC5/ADC_DelSig.c **** 			tmp = ADC_DelSig_DEC_SAMPH_REG;
 852:Generated_Source\PSoC5/ADC_DelSig.c ****             if((tmp & 0x80u) != 0u)
 853:Generated_Source\PSoC5/ADC_DelSig.c ****             {   /* Sign extend */
 854:Generated_Source\PSoC5/ADC_DelSig.c ****                 tmp |= 0xFF00u;
 855:Generated_Source\PSoC5/ADC_DelSig.c ****             }
 856:Generated_Source\PSoC5/ADC_DelSig.c ****             result |= (uint32)tmp << 16u;
 857:Generated_Source\PSoC5/ADC_DelSig.c ****         #else
 858:Generated_Source\PSoC5/ADC_DelSig.c ****             result = CY_GET_REG16(ADC_DelSig_DEC_SAMP_16B_PTR);
 859:Generated_Source\PSoC5/ADC_DelSig.c ****             result |= (uint32)((uint32)CY_GET_REG16(ADC_DelSig_DEC_SAMPH_16B_PTR) << 16u);
 860:Generated_Source\PSoC5/ADC_DelSig.c ****         #endif /* CY_PSOC3 */
 861:Generated_Source\PSoC5/ADC_DelSig.c ****     }
 862:Generated_Source\PSoC5/ADC_DelSig.c ****     /* Clear conversion complete status in Single Sample mode with resolution above 16 bit */
 863:Generated_Source\PSoC5/ADC_DelSig.c ****     if(ADC_DelSig_stopConversion != 0u)
 864:Generated_Source\PSoC5/ADC_DelSig.c ****     {
 865:Generated_Source\PSoC5/ADC_DelSig.c ****         ADC_DelSig_convDone = 0u;
 866:Generated_Source\PSoC5/ADC_DelSig.c ****     }
 867:Generated_Source\PSoC5/ADC_DelSig.c **** 
 868:Generated_Source\PSoC5/ADC_DelSig.c ****     return ((int32)result);
 869:Generated_Source\PSoC5/ADC_DelSig.c **** }
 870:Generated_Source\PSoC5/ADC_DelSig.c **** 
 871:Generated_Source\PSoC5/ADC_DelSig.c **** 
 872:Generated_Source\PSoC5/ADC_DelSig.c **** /*******************************************************************************
 873:Generated_Source\PSoC5/ADC_DelSig.c **** * Function Name: ADC_DelSig_SetOffset
 874:Generated_Source\PSoC5/ADC_DelSig.c **** ********************************************************************************
 875:Generated_Source\PSoC5/ADC_DelSig.c **** *
 876:Generated_Source\PSoC5/ADC_DelSig.c **** * Summary:
 877:Generated_Source\PSoC5/ADC_DelSig.c **** *  Sets the ADC offset which is used by the functions ADC_CountsTo_uVolts, 
 878:Generated_Source\PSoC5/ADC_DelSig.c **** *  ADC_CountsTo_mVolts, and ADC_CountsTo_Volts to subtract the offset from the 
 879:Generated_Source\PSoC5/ADC_DelSig.c **** *  given reading before calculating the voltage conversion.
 880:Generated_Source\PSoC5/ADC_DelSig.c **** *
 881:Generated_Source\PSoC5/ADC_DelSig.c **** * Parameters:
 882:Generated_Source\PSoC5/ADC_DelSig.c **** *  int32:  This value is a measured value when the inputs are shorted or 
 883:Generated_Source\PSoC5/ADC_DelSig.c **** *          connected to the same input voltage.
 884:Generated_Source\PSoC5/ADC_DelSig.c **** *
 885:Generated_Source\PSoC5/ADC_DelSig.c **** * Return:
 886:Generated_Source\PSoC5/ADC_DelSig.c **** *  None
 887:Generated_Source\PSoC5/ADC_DelSig.c **** *
ARM GAS  C:\Users\Nelson\AppData\Local\Temp\ccgC0n3g.s 			page 17


 888:Generated_Source\PSoC5/ADC_DelSig.c **** * Global variables:
 889:Generated_Source\PSoC5/ADC_DelSig.c **** *  ADC_DelSig_Offset:  Modified to set the user provided offset. This
 890:Generated_Source\PSoC5/ADC_DelSig.c **** *  variable is used for offset calibration purpose.
 891:Generated_Source\PSoC5/ADC_DelSig.c **** *
 892:Generated_Source\PSoC5/ADC_DelSig.c **** * Side Effects:
 893:Generated_Source\PSoC5/ADC_DelSig.c **** *  Affects the ADC_DelSig_CountsTo_Volts,
 894:Generated_Source\PSoC5/ADC_DelSig.c **** *  ADC_DelSig_CountsTo_mVolts, ADC_DelSig_CountsTo_uVolts functions
 895:Generated_Source\PSoC5/ADC_DelSig.c **** *  by subtracting the given offset.
 896:Generated_Source\PSoC5/ADC_DelSig.c **** *
 897:Generated_Source\PSoC5/ADC_DelSig.c **** *******************************************************************************/
 898:Generated_Source\PSoC5/ADC_DelSig.c **** void ADC_DelSig_SetOffset(int32 offset) 
 899:Generated_Source\PSoC5/ADC_DelSig.c **** {
 900:Generated_Source\PSoC5/ADC_DelSig.c **** 
 901:Generated_Source\PSoC5/ADC_DelSig.c ****     ADC_DelSig_Offset = offset;
 902:Generated_Source\PSoC5/ADC_DelSig.c **** }
 903:Generated_Source\PSoC5/ADC_DelSig.c **** 
 904:Generated_Source\PSoC5/ADC_DelSig.c **** 
 905:Generated_Source\PSoC5/ADC_DelSig.c **** /*******************************************************************************
 906:Generated_Source\PSoC5/ADC_DelSig.c **** * Function Name: ADC_DelSig_SetGain
 907:Generated_Source\PSoC5/ADC_DelSig.c **** ********************************************************************************
 908:Generated_Source\PSoC5/ADC_DelSig.c **** *
 909:Generated_Source\PSoC5/ADC_DelSig.c **** * Summary:
 910:Generated_Source\PSoC5/ADC_DelSig.c **** *  Sets the ADC gain in counts per volt for the voltage conversion
 911:Generated_Source\PSoC5/ADC_DelSig.c **** *  functions below. This value is set by default by the reference and
 912:Generated_Source\PSoC5/ADC_DelSig.c **** *  input range settings. It should only be used to further calibrate the
 913:Generated_Source\PSoC5/ADC_DelSig.c **** *  ADC with a known input or if an external reference is used. This
 914:Generated_Source\PSoC5/ADC_DelSig.c **** *  function may also be used to calibrate an entire signal chain, not
 915:Generated_Source\PSoC5/ADC_DelSig.c **** *  just the ADC.
 916:Generated_Source\PSoC5/ADC_DelSig.c **** *
 917:Generated_Source\PSoC5/ADC_DelSig.c **** * Parameters:
 918:Generated_Source\PSoC5/ADC_DelSig.c **** *  int32: ADC gain in counts per volt.
 919:Generated_Source\PSoC5/ADC_DelSig.c **** *
 920:Generated_Source\PSoC5/ADC_DelSig.c **** * Return:
 921:Generated_Source\PSoC5/ADC_DelSig.c **** *  None
 922:Generated_Source\PSoC5/ADC_DelSig.c **** *
 923:Generated_Source\PSoC5/ADC_DelSig.c **** * Global variables:
 924:Generated_Source\PSoC5/ADC_DelSig.c **** *  ADC_DelSig_CountsPerVolt:  modified to set the ADC gain in counts
 925:Generated_Source\PSoC5/ADC_DelSig.c **** *   per volt.
 926:Generated_Source\PSoC5/ADC_DelSig.c **** *
 927:Generated_Source\PSoC5/ADC_DelSig.c **** * Side Effects:
 928:Generated_Source\PSoC5/ADC_DelSig.c **** *  Affects the ADC_DelSig_CountsTo_Volts,
 929:Generated_Source\PSoC5/ADC_DelSig.c **** *  ADC_DelSig_CountsTo_mVolts, ADC_DelSig_CountsTo_uVolts functions
 930:Generated_Source\PSoC5/ADC_DelSig.c **** *  supplying the correct conversion between ADC counts and voltage.
 931:Generated_Source\PSoC5/ADC_DelSig.c **** *
 932:Generated_Source\PSoC5/ADC_DelSig.c **** *******************************************************************************/
 933:Generated_Source\PSoC5/ADC_DelSig.c **** void ADC_DelSig_SetGain(int32 adcGain) 
 934:Generated_Source\PSoC5/ADC_DelSig.c **** {
 935:Generated_Source\PSoC5/ADC_DelSig.c ****     ADC_DelSig_CountsPerVolt = adcGain;
 936:Generated_Source\PSoC5/ADC_DelSig.c **** }
 937:Generated_Source\PSoC5/ADC_DelSig.c **** 
 938:Generated_Source\PSoC5/ADC_DelSig.c **** 
 939:Generated_Source\PSoC5/ADC_DelSig.c **** /*******************************************************************************
 940:Generated_Source\PSoC5/ADC_DelSig.c **** * Function Name: ADC_DelSig_CountsTo_mVolts
 941:Generated_Source\PSoC5/ADC_DelSig.c **** ********************************************************************************
 942:Generated_Source\PSoC5/ADC_DelSig.c **** *
 943:Generated_Source\PSoC5/ADC_DelSig.c **** * Summary:
 944:Generated_Source\PSoC5/ADC_DelSig.c **** *  Converts the ADC counts output to mVolts as a 16-bit integer. For
ARM GAS  C:\Users\Nelson\AppData\Local\Temp\ccgC0n3g.s 			page 18


 945:Generated_Source\PSoC5/ADC_DelSig.c **** *  example, if the ADC measured 0.534 volts, the return value would
 946:Generated_Source\PSoC5/ADC_DelSig.c **** *  be 534 mVolts.
 947:Generated_Source\PSoC5/ADC_DelSig.c **** *
 948:Generated_Source\PSoC5/ADC_DelSig.c **** * Parameters:
 949:Generated_Source\PSoC5/ADC_DelSig.c **** *  int32: adcCounts Result from the ADC conversion.
 950:Generated_Source\PSoC5/ADC_DelSig.c **** *
 951:Generated_Source\PSoC5/ADC_DelSig.c **** * Return:
 952:Generated_Source\PSoC5/ADC_DelSig.c **** *  int16:  Result in mVolts
 953:Generated_Source\PSoC5/ADC_DelSig.c **** *
 954:Generated_Source\PSoC5/ADC_DelSig.c **** * Global variables:
 955:Generated_Source\PSoC5/ADC_DelSig.c **** *  ADC_DelSig_CountsPerVolt:  used to convert ADC counts to mVolts.
 956:Generated_Source\PSoC5/ADC_DelSig.c **** *  ADC_DelSig_Offset:  Used as the offset while converting ADC counts
 957:Generated_Source\PSoC5/ADC_DelSig.c **** *   to mVolts.
 958:Generated_Source\PSoC5/ADC_DelSig.c **** *
 959:Generated_Source\PSoC5/ADC_DelSig.c **** *******************************************************************************/
 960:Generated_Source\PSoC5/ADC_DelSig.c **** int16 ADC_DelSig_CountsTo_mVolts(int32 adcCounts) 
 961:Generated_Source\PSoC5/ADC_DelSig.c **** {
 962:Generated_Source\PSoC5/ADC_DelSig.c **** 
 963:Generated_Source\PSoC5/ADC_DelSig.c ****     int16 mVolts;
 964:Generated_Source\PSoC5/ADC_DelSig.c **** 
 965:Generated_Source\PSoC5/ADC_DelSig.c ****     /* Convert adcCounts to the right align if left option selected */
 966:Generated_Source\PSoC5/ADC_DelSig.c ****     #if(ADC_DelSig_CFG1_DEC_DIV != 0)
 967:Generated_Source\PSoC5/ADC_DelSig.c ****         if(ADC_DelSig_Config == ADC_DelSig_CFG1)
 968:Generated_Source\PSoC5/ADC_DelSig.c ****         {
 969:Generated_Source\PSoC5/ADC_DelSig.c ****             adcCounts /= ADC_DelSig_CFG1_DEC_DIV;
 970:Generated_Source\PSoC5/ADC_DelSig.c ****         }
 971:Generated_Source\PSoC5/ADC_DelSig.c ****     #endif /* ADC_DelSig_CFG1_DEC_DIV */
 972:Generated_Source\PSoC5/ADC_DelSig.c ****     #if((ADC_DelSig_CFG2_DEC_DIV != 0) && (ADC_DelSig_DEFAULT_NUM_CONFIGS > 1))
 973:Generated_Source\PSoC5/ADC_DelSig.c ****         if(ADC_DelSig_Config == ADC_DelSig_CFG2)
 974:Generated_Source\PSoC5/ADC_DelSig.c ****         {
 975:Generated_Source\PSoC5/ADC_DelSig.c ****             adcCounts /= ADC_DelSig_CFG2_DEC_DIV;
 976:Generated_Source\PSoC5/ADC_DelSig.c ****         }
 977:Generated_Source\PSoC5/ADC_DelSig.c ****     #endif /* ADC_DelSig_CFG2_DEC_DIV */
 978:Generated_Source\PSoC5/ADC_DelSig.c ****     #if((ADC_DelSig_CFG3_DEC_DIV != 0) && (ADC_DelSig_DEFAULT_NUM_CONFIGS > 2))
 979:Generated_Source\PSoC5/ADC_DelSig.c ****         if(ADC_DelSig_Config == ADC_DelSig_CFG3)
 980:Generated_Source\PSoC5/ADC_DelSig.c ****         {
 981:Generated_Source\PSoC5/ADC_DelSig.c ****             adcCounts /= ADC_DelSig_CFG3_DEC_DIV;
 982:Generated_Source\PSoC5/ADC_DelSig.c ****         }
 983:Generated_Source\PSoC5/ADC_DelSig.c ****     #endif /* ADC_DelSig_CFG2_DEC_DIV */
 984:Generated_Source\PSoC5/ADC_DelSig.c ****     #if((ADC_DelSig_CFG4_DEC_DIV != 0) && (ADC_DelSig_DEFAULT_NUM_CONFIGS > 3))
 985:Generated_Source\PSoC5/ADC_DelSig.c ****         if(ADC_DelSig_Config == ADC_DelSig_CFG4)
 986:Generated_Source\PSoC5/ADC_DelSig.c ****         {
 987:Generated_Source\PSoC5/ADC_DelSig.c ****             adcCounts /= ADC_DelSig_CFG4_DEC_DIV;
 988:Generated_Source\PSoC5/ADC_DelSig.c ****         }
 989:Generated_Source\PSoC5/ADC_DelSig.c ****     #endif /* ADC_DelSig_CFG2_DEC_DIV */
 990:Generated_Source\PSoC5/ADC_DelSig.c **** 
 991:Generated_Source\PSoC5/ADC_DelSig.c ****     /* Subtract ADC offset */
 992:Generated_Source\PSoC5/ADC_DelSig.c ****     adcCounts -= ADC_DelSig_Offset;
 993:Generated_Source\PSoC5/ADC_DelSig.c **** 
 994:Generated_Source\PSoC5/ADC_DelSig.c ****     mVolts = (int16)(( adcCounts * ADC_DelSig_1MV_COUNTS ) / ADC_DelSig_CountsPerVolt) ;
 995:Generated_Source\PSoC5/ADC_DelSig.c **** 
 996:Generated_Source\PSoC5/ADC_DelSig.c ****     return(mVolts);
 997:Generated_Source\PSoC5/ADC_DelSig.c **** }
 998:Generated_Source\PSoC5/ADC_DelSig.c **** 
 999:Generated_Source\PSoC5/ADC_DelSig.c **** 
1000:Generated_Source\PSoC5/ADC_DelSig.c **** /*******************************************************************************
1001:Generated_Source\PSoC5/ADC_DelSig.c **** * Function Name: ADC_DelSig_CountsTo_Volts
ARM GAS  C:\Users\Nelson\AppData\Local\Temp\ccgC0n3g.s 			page 19


1002:Generated_Source\PSoC5/ADC_DelSig.c **** ********************************************************************************
1003:Generated_Source\PSoC5/ADC_DelSig.c **** *
1004:Generated_Source\PSoC5/ADC_DelSig.c **** * Summary:
1005:Generated_Source\PSoC5/ADC_DelSig.c **** *  Converts the ADC output to Volts as a floating point number. For
1006:Generated_Source\PSoC5/ADC_DelSig.c **** *  example, if the ADC measure a voltage of 1.2345 Volts, the
1007:Generated_Source\PSoC5/ADC_DelSig.c **** *  returned result would be +1.2345 Volts.
1008:Generated_Source\PSoC5/ADC_DelSig.c **** *
1009:Generated_Source\PSoC5/ADC_DelSig.c **** * Parameters:
1010:Generated_Source\PSoC5/ADC_DelSig.c **** *  int32 adcCounts:  Result from the ADC conversion.
1011:Generated_Source\PSoC5/ADC_DelSig.c **** *
1012:Generated_Source\PSoC5/ADC_DelSig.c **** * Return:
1013:Generated_Source\PSoC5/ADC_DelSig.c **** *  float32: Result in Volts
1014:Generated_Source\PSoC5/ADC_DelSig.c **** *
1015:Generated_Source\PSoC5/ADC_DelSig.c **** * Global variables:
1016:Generated_Source\PSoC5/ADC_DelSig.c **** *  ADC_DelSig_CountsPerVolt:  used to convert to Volts.
1017:Generated_Source\PSoC5/ADC_DelSig.c **** *  ADC_DelSig_Offset:  Used as the offset while converting ADC counts
1018:Generated_Source\PSoC5/ADC_DelSig.c **** *   to Volts.
1019:Generated_Source\PSoC5/ADC_DelSig.c **** *
1020:Generated_Source\PSoC5/ADC_DelSig.c **** *******************************************************************************/
1021:Generated_Source\PSoC5/ADC_DelSig.c **** float32 ADC_DelSig_CountsTo_Volts(int32 adcCounts) 
1022:Generated_Source\PSoC5/ADC_DelSig.c **** {
1023:Generated_Source\PSoC5/ADC_DelSig.c **** 
1024:Generated_Source\PSoC5/ADC_DelSig.c ****     float32 Volts;
1025:Generated_Source\PSoC5/ADC_DelSig.c **** 
1026:Generated_Source\PSoC5/ADC_DelSig.c ****     /* Convert adcCounts to the right align if left option selected */
1027:Generated_Source\PSoC5/ADC_DelSig.c ****     #if(ADC_DelSig_CFG1_DEC_DIV != 0)
1028:Generated_Source\PSoC5/ADC_DelSig.c ****         if(ADC_DelSig_Config == ADC_DelSig_CFG1)
1029:Generated_Source\PSoC5/ADC_DelSig.c ****         {
1030:Generated_Source\PSoC5/ADC_DelSig.c ****             adcCounts /= ADC_DelSig_CFG1_DEC_DIV;
1031:Generated_Source\PSoC5/ADC_DelSig.c ****         }
1032:Generated_Source\PSoC5/ADC_DelSig.c ****     #endif /* ADC_DelSig_CFG1_DEC_DIV */
1033:Generated_Source\PSoC5/ADC_DelSig.c ****     #if((ADC_DelSig_CFG2_DEC_DIV != 0) && (ADC_DelSig_DEFAULT_NUM_CONFIGS > 1))
1034:Generated_Source\PSoC5/ADC_DelSig.c ****         if(ADC_DelSig_Config == ADC_DelSig_CFG2)
1035:Generated_Source\PSoC5/ADC_DelSig.c ****         {
1036:Generated_Source\PSoC5/ADC_DelSig.c ****             adcCounts /= ADC_DelSig_CFG2_DEC_DIV;
1037:Generated_Source\PSoC5/ADC_DelSig.c ****         }
1038:Generated_Source\PSoC5/ADC_DelSig.c ****     #endif /* ADC_DelSig_CFG2_DEC_DIV */
1039:Generated_Source\PSoC5/ADC_DelSig.c ****     #if((ADC_DelSig_CFG3_DEC_DIV != 0) && (ADC_DelSig_DEFAULT_NUM_CONFIGS > 2))
1040:Generated_Source\PSoC5/ADC_DelSig.c ****         if(ADC_DelSig_Config == ADC_DelSig_CFG3)
1041:Generated_Source\PSoC5/ADC_DelSig.c ****         {
1042:Generated_Source\PSoC5/ADC_DelSig.c ****             adcCounts /= ADC_DelSig_CFG3_DEC_DIV;
1043:Generated_Source\PSoC5/ADC_DelSig.c ****         }
1044:Generated_Source\PSoC5/ADC_DelSig.c ****     #endif /* ADC_DelSig_CFG2_DEC_DIV */
1045:Generated_Source\PSoC5/ADC_DelSig.c ****     #if((ADC_DelSig_CFG4_DEC_DIV != 0) && (ADC_DelSig_DEFAULT_NUM_CONFIGS > 3))
1046:Generated_Source\PSoC5/ADC_DelSig.c ****         if(ADC_DelSig_Config == ADC_DelSig_CFG4)
1047:Generated_Source\PSoC5/ADC_DelSig.c ****         {
1048:Generated_Source\PSoC5/ADC_DelSig.c ****             adcCounts /= ADC_DelSig_CFG4_DEC_DIV;
1049:Generated_Source\PSoC5/ADC_DelSig.c ****         }
1050:Generated_Source\PSoC5/ADC_DelSig.c ****     #endif /* ADC_DelSig_CFG2_DEC_DIV */
1051:Generated_Source\PSoC5/ADC_DelSig.c **** 
1052:Generated_Source\PSoC5/ADC_DelSig.c ****     /* Subtract ADC offset */
1053:Generated_Source\PSoC5/ADC_DelSig.c ****     adcCounts -= ADC_DelSig_Offset;
1054:Generated_Source\PSoC5/ADC_DelSig.c **** 
1055:Generated_Source\PSoC5/ADC_DelSig.c ****     Volts = (float32)adcCounts / (float32)ADC_DelSig_CountsPerVolt;
1056:Generated_Source\PSoC5/ADC_DelSig.c **** 
1057:Generated_Source\PSoC5/ADC_DelSig.c ****     return( Volts );
1058:Generated_Source\PSoC5/ADC_DelSig.c **** }
ARM GAS  C:\Users\Nelson\AppData\Local\Temp\ccgC0n3g.s 			page 20


1059:Generated_Source\PSoC5/ADC_DelSig.c **** 
1060:Generated_Source\PSoC5/ADC_DelSig.c **** 
1061:Generated_Source\PSoC5/ADC_DelSig.c **** /*******************************************************************************
1062:Generated_Source\PSoC5/ADC_DelSig.c **** * Function Name: ADC_DelSig_CountsTo_uVolts
1063:Generated_Source\PSoC5/ADC_DelSig.c **** ********************************************************************************
1064:Generated_Source\PSoC5/ADC_DelSig.c **** *
1065:Generated_Source\PSoC5/ADC_DelSig.c **** * Summary:
1066:Generated_Source\PSoC5/ADC_DelSig.c **** *  Converts the ADC output to uVolts as a 32-bit integer. For example,
1067:Generated_Source\PSoC5/ADC_DelSig.c **** *  if the ADC measured -0.02345 Volts, the return value would be -23450 uVolts.
1068:Generated_Source\PSoC5/ADC_DelSig.c **** *
1069:Generated_Source\PSoC5/ADC_DelSig.c **** * Parameters:
1070:Generated_Source\PSoC5/ADC_DelSig.c **** *  int32 adcCounts: Result from the ADC conversion.
1071:Generated_Source\PSoC5/ADC_DelSig.c **** *
1072:Generated_Source\PSoC5/ADC_DelSig.c **** * Return:
1073:Generated_Source\PSoC5/ADC_DelSig.c **** *  int32:  Result in uVolts
1074:Generated_Source\PSoC5/ADC_DelSig.c **** *
1075:Generated_Source\PSoC5/ADC_DelSig.c **** * Global variables:
1076:Generated_Source\PSoC5/ADC_DelSig.c **** *  ADC_DelSig_CountsPerVolt:  used to convert ADC counts to mVolts.
1077:Generated_Source\PSoC5/ADC_DelSig.c **** *  ADC_DelSig_Offset:  Used as the offset while converting ADC counts
1078:Generated_Source\PSoC5/ADC_DelSig.c **** *   to mVolts.
1079:Generated_Source\PSoC5/ADC_DelSig.c **** *
1080:Generated_Source\PSoC5/ADC_DelSig.c **** * Theory:
1081:Generated_Source\PSoC5/ADC_DelSig.c **** *  Care must be taken to not exceed the maximum value for a 31 bit signed
1082:Generated_Source\PSoC5/ADC_DelSig.c **** *  number in the conversion to uVolts and at the same time not lose resolution.
1083:Generated_Source\PSoC5/ADC_DelSig.c **** *
1084:Generated_Source\PSoC5/ADC_DelSig.c **** *  uVolts = ((A * adcCounts) / ((int32)ADC_DelSig_CountsPerVolt / B));
1085:Generated_Source\PSoC5/ADC_DelSig.c **** *
1086:Generated_Source\PSoC5/ADC_DelSig.c **** *******************************************************************************/
1087:Generated_Source\PSoC5/ADC_DelSig.c **** int32 ADC_DelSig_CountsTo_uVolts(int32 adcCounts) 
1088:Generated_Source\PSoC5/ADC_DelSig.c **** {
1089:Generated_Source\PSoC5/ADC_DelSig.c **** 
1090:Generated_Source\PSoC5/ADC_DelSig.c ****     int32 uVolts;
1091:Generated_Source\PSoC5/ADC_DelSig.c ****     int32 coefA;
1092:Generated_Source\PSoC5/ADC_DelSig.c ****     int32 coefB;
1093:Generated_Source\PSoC5/ADC_DelSig.c ****     uint8 resolution;
1094:Generated_Source\PSoC5/ADC_DelSig.c **** 
1095:Generated_Source\PSoC5/ADC_DelSig.c ****     /* Set the resolution based on the configuration */
1096:Generated_Source\PSoC5/ADC_DelSig.c ****     /* Convert adcCounts to the right align if left option selected */
1097:Generated_Source\PSoC5/ADC_DelSig.c ****     if (ADC_DelSig_Config == ADC_DelSig_CFG1)
1098:Generated_Source\PSoC5/ADC_DelSig.c ****     {
1099:Generated_Source\PSoC5/ADC_DelSig.c ****         resolution = ADC_DelSig_CFG1_RESOLUTION;
1100:Generated_Source\PSoC5/ADC_DelSig.c ****         #if(ADC_DelSig_CFG1_DEC_DIV != 0)
1101:Generated_Source\PSoC5/ADC_DelSig.c ****             adcCounts /= ADC_DelSig_CFG1_DEC_DIV;
1102:Generated_Source\PSoC5/ADC_DelSig.c ****         #endif /* ADC_DelSig_CFG1_DEC_DIV */
1103:Generated_Source\PSoC5/ADC_DelSig.c ****     }
1104:Generated_Source\PSoC5/ADC_DelSig.c ****     else if (ADC_DelSig_Config == ADC_DelSig_CFG2)
1105:Generated_Source\PSoC5/ADC_DelSig.c ****     {
1106:Generated_Source\PSoC5/ADC_DelSig.c ****         resolution = ADC_DelSig_CFG2_RESOLUTION;
1107:Generated_Source\PSoC5/ADC_DelSig.c ****         #if(ADC_DelSig_CFG2_DEC_DIV != 0)
1108:Generated_Source\PSoC5/ADC_DelSig.c ****             adcCounts /= ADC_DelSig_CFG2_DEC_DIV;
1109:Generated_Source\PSoC5/ADC_DelSig.c ****         #endif /* ADC_DelSig_CFG2_DEC_DIV */
1110:Generated_Source\PSoC5/ADC_DelSig.c ****     }
1111:Generated_Source\PSoC5/ADC_DelSig.c ****     else if (ADC_DelSig_Config == ADC_DelSig_CFG3)
1112:Generated_Source\PSoC5/ADC_DelSig.c ****     {
1113:Generated_Source\PSoC5/ADC_DelSig.c ****         resolution = ADC_DelSig_CFG3_RESOLUTION;
1114:Generated_Source\PSoC5/ADC_DelSig.c ****         #if(ADC_DelSig_CFG3_DEC_DIV != 0)
1115:Generated_Source\PSoC5/ADC_DelSig.c ****             adcCounts /= ADC_DelSig_CFG3_DEC_DIV;
ARM GAS  C:\Users\Nelson\AppData\Local\Temp\ccgC0n3g.s 			page 21


1116:Generated_Source\PSoC5/ADC_DelSig.c ****         #endif /* ADC_DelSig_CFG3_DEC_DIV */
1117:Generated_Source\PSoC5/ADC_DelSig.c ****     }
1118:Generated_Source\PSoC5/ADC_DelSig.c ****     else
1119:Generated_Source\PSoC5/ADC_DelSig.c ****     {
1120:Generated_Source\PSoC5/ADC_DelSig.c ****         resolution = ADC_DelSig_CFG4_RESOLUTION;
1121:Generated_Source\PSoC5/ADC_DelSig.c ****         #if(ADC_DelSig_CFG4_DEC_DIV != 0)
1122:Generated_Source\PSoC5/ADC_DelSig.c ****             adcCounts /= ADC_DelSig_CFG4_DEC_DIV;
1123:Generated_Source\PSoC5/ADC_DelSig.c ****         #endif /* ADC_DelSig_CFG4_DEC_DIV */
1124:Generated_Source\PSoC5/ADC_DelSig.c ****     }
1125:Generated_Source\PSoC5/ADC_DelSig.c **** 
1126:Generated_Source\PSoC5/ADC_DelSig.c ****     switch (resolution)
1127:Generated_Source\PSoC5/ADC_DelSig.c ****     {
1128:Generated_Source\PSoC5/ADC_DelSig.c ****         #if( (ADC_DelSig_CFG1_RESOLUTION == ADC_DelSig__BITS_12) || \
1129:Generated_Source\PSoC5/ADC_DelSig.c ****              (ADC_DelSig_CFG2_RESOLUTION == ADC_DelSig__BITS_12) || \
1130:Generated_Source\PSoC5/ADC_DelSig.c ****              (ADC_DelSig_CFG3_RESOLUTION == ADC_DelSig__BITS_12) || \
1131:Generated_Source\PSoC5/ADC_DelSig.c ****              (ADC_DelSig_CFG4_RESOLUTION == ADC_DelSig__BITS_12) )
1132:Generated_Source\PSoC5/ADC_DelSig.c ****             case (uint8)ADC_DelSig__BITS_12:
1133:Generated_Source\PSoC5/ADC_DelSig.c ****                 coefA = ADC_DelSig_1UV_COUNTS / ADC_DelSig_DIVISOR_2;
1134:Generated_Source\PSoC5/ADC_DelSig.c ****                 coefB = ADC_DelSig_DIVISOR_2;
1135:Generated_Source\PSoC5/ADC_DelSig.c ****                 break;
1136:Generated_Source\PSoC5/ADC_DelSig.c ****         #endif /* ADC_DelSig__BITS_12 */    
1137:Generated_Source\PSoC5/ADC_DelSig.c ****         #if( (ADC_DelSig_CFG1_RESOLUTION == ADC_DelSig__BITS_13) || \
1138:Generated_Source\PSoC5/ADC_DelSig.c ****              (ADC_DelSig_CFG2_RESOLUTION == ADC_DelSig__BITS_13) || \
1139:Generated_Source\PSoC5/ADC_DelSig.c ****              (ADC_DelSig_CFG3_RESOLUTION == ADC_DelSig__BITS_13) || \
1140:Generated_Source\PSoC5/ADC_DelSig.c ****              (ADC_DelSig_CFG4_RESOLUTION == ADC_DelSig__BITS_13) )
1141:Generated_Source\PSoC5/ADC_DelSig.c ****             case (uint8)ADC_DelSig__BITS_13:
1142:Generated_Source\PSoC5/ADC_DelSig.c ****                 coefA = ADC_DelSig_1UV_COUNTS / ADC_DelSig_DIVISOR_4;
1143:Generated_Source\PSoC5/ADC_DelSig.c ****                 coefB = ADC_DelSig_DIVISOR_4;
1144:Generated_Source\PSoC5/ADC_DelSig.c ****                 break;
1145:Generated_Source\PSoC5/ADC_DelSig.c ****         #endif /* ADC_DelSig__BITS_13 */    
1146:Generated_Source\PSoC5/ADC_DelSig.c ****         #if( (ADC_DelSig_CFG1_RESOLUTION == ADC_DelSig__BITS_14) || \
1147:Generated_Source\PSoC5/ADC_DelSig.c ****              (ADC_DelSig_CFG2_RESOLUTION == ADC_DelSig__BITS_14) || \
1148:Generated_Source\PSoC5/ADC_DelSig.c ****              (ADC_DelSig_CFG3_RESOLUTION == ADC_DelSig__BITS_14) || \
1149:Generated_Source\PSoC5/ADC_DelSig.c ****              (ADC_DelSig_CFG4_RESOLUTION == ADC_DelSig__BITS_14) )
1150:Generated_Source\PSoC5/ADC_DelSig.c ****             case (uint8)ADC_DelSig__BITS_14:
1151:Generated_Source\PSoC5/ADC_DelSig.c ****                 coefA = ADC_DelSig_1UV_COUNTS / ADC_DelSig_DIVISOR_8;
1152:Generated_Source\PSoC5/ADC_DelSig.c ****                 coefB = ADC_DelSig_DIVISOR_8;
1153:Generated_Source\PSoC5/ADC_DelSig.c ****                 break;
1154:Generated_Source\PSoC5/ADC_DelSig.c ****         #endif /* ADC_DelSig__BITS_14 */    
1155:Generated_Source\PSoC5/ADC_DelSig.c ****         #if( (ADC_DelSig_CFG1_RESOLUTION == ADC_DelSig__BITS_15) || \
1156:Generated_Source\PSoC5/ADC_DelSig.c ****              (ADC_DelSig_CFG2_RESOLUTION == ADC_DelSig__BITS_15) || \
1157:Generated_Source\PSoC5/ADC_DelSig.c ****              (ADC_DelSig_CFG3_RESOLUTION == ADC_DelSig__BITS_15) || \
1158:Generated_Source\PSoC5/ADC_DelSig.c ****              (ADC_DelSig_CFG4_RESOLUTION == ADC_DelSig__BITS_15) )
1159:Generated_Source\PSoC5/ADC_DelSig.c ****             case (uint8)ADC_DelSig__BITS_15:
1160:Generated_Source\PSoC5/ADC_DelSig.c ****                 coefA = ADC_DelSig_1UV_COUNTS / ADC_DelSig_DIVISOR_16;
1161:Generated_Source\PSoC5/ADC_DelSig.c ****                 coefB = ADC_DelSig_DIVISOR_16;
1162:Generated_Source\PSoC5/ADC_DelSig.c ****                 break;
1163:Generated_Source\PSoC5/ADC_DelSig.c ****         #endif /* ADC_DelSig__BITS_15 */    
1164:Generated_Source\PSoC5/ADC_DelSig.c ****         #if( (ADC_DelSig_CFG1_RESOLUTION == ADC_DelSig__BITS_16) || \
1165:Generated_Source\PSoC5/ADC_DelSig.c ****              (ADC_DelSig_CFG2_RESOLUTION == ADC_DelSig__BITS_16) || \
1166:Generated_Source\PSoC5/ADC_DelSig.c ****              (ADC_DelSig_CFG3_RESOLUTION == ADC_DelSig__BITS_16) || \
1167:Generated_Source\PSoC5/ADC_DelSig.c ****              (ADC_DelSig_CFG4_RESOLUTION == ADC_DelSig__BITS_16) )
1168:Generated_Source\PSoC5/ADC_DelSig.c ****             case (uint8)ADC_DelSig__BITS_16:
1169:Generated_Source\PSoC5/ADC_DelSig.c ****                 coefA = ADC_DelSig_1UV_COUNTS / ADC_DelSig_DIVISOR_32;
1170:Generated_Source\PSoC5/ADC_DelSig.c ****                 coefB = ADC_DelSig_DIVISOR_32;
1171:Generated_Source\PSoC5/ADC_DelSig.c ****                 break;
1172:Generated_Source\PSoC5/ADC_DelSig.c ****         #endif /* ADC_DelSig__BITS_16 */    
ARM GAS  C:\Users\Nelson\AppData\Local\Temp\ccgC0n3g.s 			page 22


1173:Generated_Source\PSoC5/ADC_DelSig.c ****         #if( (ADC_DelSig_CFG1_RESOLUTION == ADC_DelSig__BITS_17) || \
1174:Generated_Source\PSoC5/ADC_DelSig.c ****              (ADC_DelSig_CFG2_RESOLUTION == ADC_DelSig__BITS_17) || \
1175:Generated_Source\PSoC5/ADC_DelSig.c ****              (ADC_DelSig_CFG3_RESOLUTION == ADC_DelSig__BITS_17) || \
1176:Generated_Source\PSoC5/ADC_DelSig.c ****              (ADC_DelSig_CFG4_RESOLUTION == ADC_DelSig__BITS_17) )
1177:Generated_Source\PSoC5/ADC_DelSig.c ****             case (uint8)ADC_DelSig__BITS_17:
1178:Generated_Source\PSoC5/ADC_DelSig.c ****                 coefA = ADC_DelSig_1UV_COUNTS / ADC_DelSig_DIVISOR_64;
1179:Generated_Source\PSoC5/ADC_DelSig.c ****                 coefB = ADC_DelSig_DIVISOR_64;
1180:Generated_Source\PSoC5/ADC_DelSig.c ****                 break;
1181:Generated_Source\PSoC5/ADC_DelSig.c ****         #endif /* ADC_DelSig__BITS_17 */    
1182:Generated_Source\PSoC5/ADC_DelSig.c ****         #if( (ADC_DelSig_CFG1_RESOLUTION == ADC_DelSig__BITS_18) || \
1183:Generated_Source\PSoC5/ADC_DelSig.c ****              (ADC_DelSig_CFG2_RESOLUTION == ADC_DelSig__BITS_18) || \
1184:Generated_Source\PSoC5/ADC_DelSig.c ****              (ADC_DelSig_CFG3_RESOLUTION == ADC_DelSig__BITS_18) || \
1185:Generated_Source\PSoC5/ADC_DelSig.c ****              (ADC_DelSig_CFG4_RESOLUTION == ADC_DelSig__BITS_18) )
1186:Generated_Source\PSoC5/ADC_DelSig.c ****             case (uint8)ADC_DelSig__BITS_18:
1187:Generated_Source\PSoC5/ADC_DelSig.c ****                 coefA = ADC_DelSig_1UV_COUNTS / ADC_DelSig_DIVISOR_125;
1188:Generated_Source\PSoC5/ADC_DelSig.c ****                 coefB = ADC_DelSig_DIVISOR_125;
1189:Generated_Source\PSoC5/ADC_DelSig.c ****                 break;
1190:Generated_Source\PSoC5/ADC_DelSig.c ****         #endif /* ADC_DelSig__BITS_18 */    
1191:Generated_Source\PSoC5/ADC_DelSig.c ****         #if( (ADC_DelSig_CFG1_RESOLUTION == ADC_DelSig__BITS_19) || \
1192:Generated_Source\PSoC5/ADC_DelSig.c ****              (ADC_DelSig_CFG2_RESOLUTION == ADC_DelSig__BITS_19) || \
1193:Generated_Source\PSoC5/ADC_DelSig.c ****              (ADC_DelSig_CFG3_RESOLUTION == ADC_DelSig__BITS_19) || \
1194:Generated_Source\PSoC5/ADC_DelSig.c ****              (ADC_DelSig_CFG4_RESOLUTION == ADC_DelSig__BITS_19) )
1195:Generated_Source\PSoC5/ADC_DelSig.c ****             case (uint8)ADC_DelSig__BITS_19:
1196:Generated_Source\PSoC5/ADC_DelSig.c ****                 coefA = ADC_DelSig_1UV_COUNTS / ADC_DelSig_DIVISOR_250;
1197:Generated_Source\PSoC5/ADC_DelSig.c ****                 coefB = ADC_DelSig_DIVISOR_250;
1198:Generated_Source\PSoC5/ADC_DelSig.c ****                 break;
1199:Generated_Source\PSoC5/ADC_DelSig.c ****         #endif /* ADC_DelSig__BITS_19 */    
1200:Generated_Source\PSoC5/ADC_DelSig.c ****         #if( (ADC_DelSig_CFG1_RESOLUTION == ADC_DelSig__BITS_20) || \
1201:Generated_Source\PSoC5/ADC_DelSig.c ****              (ADC_DelSig_CFG2_RESOLUTION == ADC_DelSig__BITS_20) || \
1202:Generated_Source\PSoC5/ADC_DelSig.c ****              (ADC_DelSig_CFG3_RESOLUTION == ADC_DelSig__BITS_20) || \
1203:Generated_Source\PSoC5/ADC_DelSig.c ****              (ADC_DelSig_CFG4_RESOLUTION == ADC_DelSig__BITS_20) )
1204:Generated_Source\PSoC5/ADC_DelSig.c ****             case (uint8)ADC_DelSig__BITS_20:
1205:Generated_Source\PSoC5/ADC_DelSig.c ****                 coefA = ADC_DelSig_1UV_COUNTS / ADC_DelSig_DIVISOR_500;
1206:Generated_Source\PSoC5/ADC_DelSig.c ****                 coefB = ADC_DelSig_DIVISOR_500;
1207:Generated_Source\PSoC5/ADC_DelSig.c ****                 break;
1208:Generated_Source\PSoC5/ADC_DelSig.c ****         #endif /* ADC_DelSig__BITS_20 */    
1209:Generated_Source\PSoC5/ADC_DelSig.c ****         default:    /* resolution < 12 */
1210:Generated_Source\PSoC5/ADC_DelSig.c ****             /* 11 bits ADC + 2^20(1048576) = 31 bits */
1211:Generated_Source\PSoC5/ADC_DelSig.c ****             coefA = ADC_DelSig_1UV_COUNTS;
1212:Generated_Source\PSoC5/ADC_DelSig.c ****             coefB = ADC_DelSig_DIVISOR_1;
1213:Generated_Source\PSoC5/ADC_DelSig.c ****             break;
1214:Generated_Source\PSoC5/ADC_DelSig.c ****     }
1215:Generated_Source\PSoC5/ADC_DelSig.c ****     coefB = ADC_DelSig_CountsPerVolt / coefB;
1216:Generated_Source\PSoC5/ADC_DelSig.c ****     uVolts = ((coefA * adcCounts) / coefB) - ((coefA * ADC_DelSig_Offset) / coefB);
1217:Generated_Source\PSoC5/ADC_DelSig.c **** 
1218:Generated_Source\PSoC5/ADC_DelSig.c ****     return( uVolts );
1219:Generated_Source\PSoC5/ADC_DelSig.c **** }
1220:Generated_Source\PSoC5/ADC_DelSig.c **** 
1221:Generated_Source\PSoC5/ADC_DelSig.c **** 
1222:Generated_Source\PSoC5/ADC_DelSig.c **** /*******************************************************************************
1223:Generated_Source\PSoC5/ADC_DelSig.c **** * Function Name: ADC_DelSig_InitConfig(uint8 config)
1224:Generated_Source\PSoC5/ADC_DelSig.c **** ********************************************************************************
1225:Generated_Source\PSoC5/ADC_DelSig.c **** *
1226:Generated_Source\PSoC5/ADC_DelSig.c **** * Summary:
1227:Generated_Source\PSoC5/ADC_DelSig.c **** *  Initializes all registers based on customizer settings
1228:Generated_Source\PSoC5/ADC_DelSig.c **** *
1229:Generated_Source\PSoC5/ADC_DelSig.c **** * Parameters:
ARM GAS  C:\Users\Nelson\AppData\Local\Temp\ccgC0n3g.s 			page 23


1230:Generated_Source\PSoC5/ADC_DelSig.c **** *   void
1231:Generated_Source\PSoC5/ADC_DelSig.c **** *
1232:Generated_Source\PSoC5/ADC_DelSig.c **** * Return:
1233:Generated_Source\PSoC5/ADC_DelSig.c **** *  None
1234:Generated_Source\PSoC5/ADC_DelSig.c **** *
1235:Generated_Source\PSoC5/ADC_DelSig.c **** * Global variables:
1236:Generated_Source\PSoC5/ADC_DelSig.c **** *  ADC_DelSig_CountsPerVolt:  Used to set the default counts per volt.
1237:Generated_Source\PSoC5/ADC_DelSig.c **** *
1238:Generated_Source\PSoC5/ADC_DelSig.c **** * Side Effects: Rewrites the coherency set by ADC_DelSig_SetCoherency()
1239:Generated_Source\PSoC5/ADC_DelSig.c **** *   API to the default value.
1240:Generated_Source\PSoC5/ADC_DelSig.c **** *
1241:Generated_Source\PSoC5/ADC_DelSig.c **** *******************************************************************************/
1242:Generated_Source\PSoC5/ADC_DelSig.c **** static void ADC_DelSig_InitConfig(uint8 config) 
1243:Generated_Source\PSoC5/ADC_DelSig.c **** {
1244:Generated_Source\PSoC5/ADC_DelSig.c ****     ADC_DelSig_stopConversion = 0u;
1245:Generated_Source\PSoC5/ADC_DelSig.c **** 
1246:Generated_Source\PSoC5/ADC_DelSig.c ****     if (config == 1u)
1247:Generated_Source\PSoC5/ADC_DelSig.c ****     {
1248:Generated_Source\PSoC5/ADC_DelSig.c ****         /* Default Config */
1249:Generated_Source\PSoC5/ADC_DelSig.c ****         ADC_DelSig_DEC_CR_REG      = ADC_DelSig_CFG1_DEC_CR;
1250:Generated_Source\PSoC5/ADC_DelSig.c ****         ADC_DelSig_DEC_SHIFT1_REG  = ADC_DelSig_CFG1_DEC_SHIFT1;
1251:Generated_Source\PSoC5/ADC_DelSig.c ****         ADC_DelSig_DEC_SHIFT2_REG  = ADC_DelSig_CFG1_DEC_SHIFT2;
1252:Generated_Source\PSoC5/ADC_DelSig.c ****         ADC_DelSig_DEC_DR2_REG     = ADC_DelSig_CFG1_DEC_DR2;
1253:Generated_Source\PSoC5/ADC_DelSig.c ****         ADC_DelSig_DEC_DR2H_REG    = ADC_DelSig_CFG1_DEC_DR2H;
1254:Generated_Source\PSoC5/ADC_DelSig.c ****         ADC_DelSig_DEC_DR1_REG     = ADC_DelSig_CFG1_DEC_DR1;
1255:Generated_Source\PSoC5/ADC_DelSig.c ****         ADC_DelSig_DEC_OCOR_REG    = ADC_DelSig_CFG1_DEC_OCOR;
1256:Generated_Source\PSoC5/ADC_DelSig.c ****         ADC_DelSig_DEC_OCORM_REG   = ADC_DelSig_CFG1_DEC_OCORM;
1257:Generated_Source\PSoC5/ADC_DelSig.c ****         ADC_DelSig_DEC_OCORH_REG   = ADC_DelSig_CFG1_DEC_OCORH;
1258:Generated_Source\PSoC5/ADC_DelSig.c ****         ADC_DelSig_DEC_COHER_REG   = ADC_DelSig_CFG1_DEC_COHER;
1259:Generated_Source\PSoC5/ADC_DelSig.c **** 
1260:Generated_Source\PSoC5/ADC_DelSig.c ****         ADC_DelSig_DSM_CR4_REG     = ADC_DelSig_CFG1_DSM_CR4;
1261:Generated_Source\PSoC5/ADC_DelSig.c ****         ADC_DelSig_DSM_CR5_REG     = ADC_DelSig_CFG1_DSM_CR5;
1262:Generated_Source\PSoC5/ADC_DelSig.c ****         ADC_DelSig_DSM_CR6_REG     = ADC_DelSig_CFG1_DSM_CR6;
1263:Generated_Source\PSoC5/ADC_DelSig.c ****         ADC_DelSig_DSM_CR7_REG     = ADC_DelSig_CFG1_DSM_CR7;
1264:Generated_Source\PSoC5/ADC_DelSig.c ****         ADC_DelSig_DSM_CR10_REG    = ADC_DelSig_CFG1_DSM_CR10;
1265:Generated_Source\PSoC5/ADC_DelSig.c ****         ADC_DelSig_DSM_CR11_REG    = ADC_DelSig_CFG1_DSM_CR11;
1266:Generated_Source\PSoC5/ADC_DelSig.c ****         ADC_DelSig_DSM_CR12_REG    = ADC_DelSig_CFG1_DSM_CR12;
1267:Generated_Source\PSoC5/ADC_DelSig.c ****         ADC_DelSig_DSM_CR14_REG    = ADC_DelSig_CFG1_DSM_CR14;
1268:Generated_Source\PSoC5/ADC_DelSig.c ****         ADC_DelSig_DSM_CR15_REG    = ADC_DelSig_CFG1_DSM_CR15;
1269:Generated_Source\PSoC5/ADC_DelSig.c ****         ADC_DelSig_DSM_CR16_REG    = ADC_DelSig_CFG1_DSM_CR16;
1270:Generated_Source\PSoC5/ADC_DelSig.c ****         ADC_DelSig_DSM_CR17_REG    = ADC_DelSig_CFG1_DSM_CR17;
1271:Generated_Source\PSoC5/ADC_DelSig.c ****         /* Set DSM_REF0_REG by disabling and enabling the PRESS circuit */
1272:Generated_Source\PSoC5/ADC_DelSig.c ****         ADC_DelSig_SetDSMRef0Reg(ADC_DelSig_CFG1_DSM_REF0);
1273:Generated_Source\PSoC5/ADC_DelSig.c ****         ADC_DelSig_DSM_REF2_REG    = ADC_DelSig_CFG1_DSM_REF2;
1274:Generated_Source\PSoC5/ADC_DelSig.c ****         ADC_DelSig_DSM_REF3_REG    = ADC_DelSig_CFG1_DSM_REF3;
1275:Generated_Source\PSoC5/ADC_DelSig.c **** 
1276:Generated_Source\PSoC5/ADC_DelSig.c ****         ADC_DelSig_DSM_BUF0_REG    = ADC_DelSig_CFG1_DSM_BUF0;
1277:Generated_Source\PSoC5/ADC_DelSig.c ****         ADC_DelSig_DSM_BUF1_REG    = ADC_DelSig_CFG1_DSM_BUF1;
1278:Generated_Source\PSoC5/ADC_DelSig.c ****         ADC_DelSig_DSM_BUF2_REG    = ADC_DelSig_CFG1_DSM_BUF2;
1279:Generated_Source\PSoC5/ADC_DelSig.c ****         ADC_DelSig_DSM_BUF3_REG    = ADC_DelSig_CFG1_DSM_BUF3;
1280:Generated_Source\PSoC5/ADC_DelSig.c **** 
1281:Generated_Source\PSoC5/ADC_DelSig.c ****         /* To select either Vssa or Vref to -ve input of DSM depending on
1282:Generated_Source\PSoC5/ADC_DelSig.c ****         *  the input  range selected.
1283:Generated_Source\PSoC5/ADC_DelSig.c ****         */
1284:Generated_Source\PSoC5/ADC_DelSig.c ****         #if(ADC_DelSig_DEFAULT_INPUT_MODE)
1285:Generated_Source\PSoC5/ADC_DelSig.c ****             #if (ADC_DelSig_CFG1_INPUT_RANGE == ADC_DelSig_IR_VSSA_TO_2VREF)
1286:Generated_Source\PSoC5/ADC_DelSig.c ****                 ADC_DelSig_AMux_Select(1u);
ARM GAS  C:\Users\Nelson\AppData\Local\Temp\ccgC0n3g.s 			page 24


1287:Generated_Source\PSoC5/ADC_DelSig.c ****             #else
1288:Generated_Source\PSoC5/ADC_DelSig.c ****                 ADC_DelSig_AMux_Select(0u);
1289:Generated_Source\PSoC5/ADC_DelSig.c ****             #endif /* ADC_DelSig_IR_VSSA_TO_2VREF) */
1290:Generated_Source\PSoC5/ADC_DelSig.c ****         #endif /* ADC_DelSig_DEFAULT_INPUT_MODE */
1291:Generated_Source\PSoC5/ADC_DelSig.c **** 
1292:Generated_Source\PSoC5/ADC_DelSig.c ****         /* Set the Conversion stop if resolution is above 16 bit and conversion
1293:Generated_Source\PSoC5/ADC_DelSig.c ****         *   mode is Single sample
1294:Generated_Source\PSoC5/ADC_DelSig.c ****         */
1295:Generated_Source\PSoC5/ADC_DelSig.c ****         #if(ADC_DelSig_CFG1_RESOLUTION > 16 && \
1296:Generated_Source\PSoC5/ADC_DelSig.c ****             ADC_DelSig_CFG1_CONV_MODE == ADC_DelSig_MODE_SINGLE_SAMPLE)
1297:Generated_Source\PSoC5/ADC_DelSig.c ****             ADC_DelSig_stopConversion = 1u;
1298:Generated_Source\PSoC5/ADC_DelSig.c ****         #endif /* Single sample with resolution above 16 bits. */
1299:Generated_Source\PSoC5/ADC_DelSig.c **** 
1300:Generated_Source\PSoC5/ADC_DelSig.c ****         ADC_DelSig_CountsPerVolt = (int32)ADC_DelSig_CFG1_COUNTS_PER_VOLT;
1301:Generated_Source\PSoC5/ADC_DelSig.c **** 
1302:Generated_Source\PSoC5/ADC_DelSig.c ****         ADC_DelSig_Ext_CP_Clk_SetDividerRegister(ADC_DelSig_CFG1_CP_CLK_DIVIDER, 1u);
1303:Generated_Source\PSoC5/ADC_DelSig.c **** 
1304:Generated_Source\PSoC5/ADC_DelSig.c ****         /* This is only valid if there is an internal clock */
1305:Generated_Source\PSoC5/ADC_DelSig.c ****         #if(ADC_DelSig_DEFAULT_INTERNAL_CLK)
1306:Generated_Source\PSoC5/ADC_DelSig.c ****             ADC_DelSig_theACLK_SetDividerRegister(ADC_DelSig_CFG1_ADC_CLK_DIVIDER, 1u);
1307:Generated_Source\PSoC5/ADC_DelSig.c ****         #endif /* ADC_DelSig_DEFAULT_INTERNAL_CLK */
1308:Generated_Source\PSoC5/ADC_DelSig.c **** 
1309:Generated_Source\PSoC5/ADC_DelSig.c ****         #if(ADC_DelSig_IRQ_REMOVE == 0u)
1310:Generated_Source\PSoC5/ADC_DelSig.c ****             /* Set interrupt vector */
1311:Generated_Source\PSoC5/ADC_DelSig.c ****             (void)CyIntSetVector(ADC_DelSig_INTC_NUMBER, &ADC_DelSig_ISR1);
1312:Generated_Source\PSoC5/ADC_DelSig.c ****         #endif   /* End ADC_DelSig_IRQ_REMOVE */
1313:Generated_Source\PSoC5/ADC_DelSig.c ****     }
1314:Generated_Source\PSoC5/ADC_DelSig.c **** 
1315:Generated_Source\PSoC5/ADC_DelSig.c ****     #if(ADC_DelSig_DEFAULT_NUM_CONFIGS > 1)
1316:Generated_Source\PSoC5/ADC_DelSig.c ****         if(config == 2u)
1317:Generated_Source\PSoC5/ADC_DelSig.c ****         {
1318:Generated_Source\PSoC5/ADC_DelSig.c ****             /* Second Config */
1319:Generated_Source\PSoC5/ADC_DelSig.c ****             ADC_DelSig_DEC_CR_REG      = ADC_DelSig_CFG2_DEC_CR;
1320:Generated_Source\PSoC5/ADC_DelSig.c ****             ADC_DelSig_DEC_SHIFT1_REG  = ADC_DelSig_CFG2_DEC_SHIFT1;
1321:Generated_Source\PSoC5/ADC_DelSig.c ****             ADC_DelSig_DEC_SHIFT2_REG  = ADC_DelSig_CFG2_DEC_SHIFT2;
1322:Generated_Source\PSoC5/ADC_DelSig.c ****             ADC_DelSig_DEC_DR2_REG     = ADC_DelSig_CFG2_DEC_DR2;
1323:Generated_Source\PSoC5/ADC_DelSig.c ****             ADC_DelSig_DEC_DR2H_REG    = ADC_DelSig_CFG2_DEC_DR2H;
1324:Generated_Source\PSoC5/ADC_DelSig.c ****             ADC_DelSig_DEC_DR1_REG     = ADC_DelSig_CFG2_DEC_DR1;
1325:Generated_Source\PSoC5/ADC_DelSig.c ****             ADC_DelSig_DEC_OCOR_REG    = ADC_DelSig_CFG2_DEC_OCOR;
1326:Generated_Source\PSoC5/ADC_DelSig.c ****             ADC_DelSig_DEC_OCORM_REG   = ADC_DelSig_CFG2_DEC_OCORM;
1327:Generated_Source\PSoC5/ADC_DelSig.c ****             ADC_DelSig_DEC_OCORH_REG   = ADC_DelSig_CFG2_DEC_OCORH;
1328:Generated_Source\PSoC5/ADC_DelSig.c ****             ADC_DelSig_DEC_COHER_REG   = ADC_DelSig_CFG2_DEC_COHER;
1329:Generated_Source\PSoC5/ADC_DelSig.c **** 
1330:Generated_Source\PSoC5/ADC_DelSig.c ****             ADC_DelSig_DSM_CR4_REG     = ADC_DelSig_CFG2_DSM_CR4;
1331:Generated_Source\PSoC5/ADC_DelSig.c ****             ADC_DelSig_DSM_CR5_REG     = ADC_DelSig_CFG2_DSM_CR5;
1332:Generated_Source\PSoC5/ADC_DelSig.c ****             ADC_DelSig_DSM_CR6_REG     = ADC_DelSig_CFG2_DSM_CR6;
1333:Generated_Source\PSoC5/ADC_DelSig.c ****             ADC_DelSig_DSM_CR7_REG     = ADC_DelSig_CFG2_DSM_CR7;
1334:Generated_Source\PSoC5/ADC_DelSig.c ****             ADC_DelSig_DSM_CR10_REG    = ADC_DelSig_CFG2_DSM_CR10;
1335:Generated_Source\PSoC5/ADC_DelSig.c ****             ADC_DelSig_DSM_CR11_REG    = ADC_DelSig_CFG2_DSM_CR11;
1336:Generated_Source\PSoC5/ADC_DelSig.c ****             ADC_DelSig_DSM_CR12_REG    = ADC_DelSig_CFG2_DSM_CR12;
1337:Generated_Source\PSoC5/ADC_DelSig.c ****             ADC_DelSig_DSM_CR14_REG    = ADC_DelSig_CFG2_DSM_CR14;
1338:Generated_Source\PSoC5/ADC_DelSig.c ****             ADC_DelSig_DSM_CR15_REG    = ADC_DelSig_CFG2_DSM_CR15;
1339:Generated_Source\PSoC5/ADC_DelSig.c ****             ADC_DelSig_DSM_CR16_REG    = ADC_DelSig_CFG2_DSM_CR16;
1340:Generated_Source\PSoC5/ADC_DelSig.c ****             ADC_DelSig_DSM_CR17_REG    = ADC_DelSig_CFG2_DSM_CR17;
1341:Generated_Source\PSoC5/ADC_DelSig.c ****             /* Set DSM_REF0_REG by disabling and enabling the PRESS cirucit */
1342:Generated_Source\PSoC5/ADC_DelSig.c ****             ADC_DelSig_SetDSMRef0Reg(ADC_DelSig_CFG2_DSM_REF0);
1343:Generated_Source\PSoC5/ADC_DelSig.c ****             ADC_DelSig_DSM_REF2_REG    = ADC_DelSig_CFG2_DSM_REF2;
ARM GAS  C:\Users\Nelson\AppData\Local\Temp\ccgC0n3g.s 			page 25


1344:Generated_Source\PSoC5/ADC_DelSig.c ****             ADC_DelSig_DSM_REF3_REG    = ADC_DelSig_CFG2_DSM_REF3;
1345:Generated_Source\PSoC5/ADC_DelSig.c **** 
1346:Generated_Source\PSoC5/ADC_DelSig.c ****             ADC_DelSig_DSM_BUF0_REG    = ADC_DelSig_CFG2_DSM_BUF0;
1347:Generated_Source\PSoC5/ADC_DelSig.c ****             ADC_DelSig_DSM_BUF1_REG    = ADC_DelSig_CFG2_DSM_BUF1;
1348:Generated_Source\PSoC5/ADC_DelSig.c ****             ADC_DelSig_DSM_BUF2_REG    = ADC_DelSig_CFG2_DSM_BUF2;
1349:Generated_Source\PSoC5/ADC_DelSig.c ****             ADC_DelSig_DSM_BUF3_REG    = ADC_DelSig_CFG2_DSM_BUF3;
1350:Generated_Source\PSoC5/ADC_DelSig.c **** 
1351:Generated_Source\PSoC5/ADC_DelSig.c ****             /* To select either Vssa or Vref to -ve input of DSM depending on
1352:Generated_Source\PSoC5/ADC_DelSig.c ****             *  the input range selected.
1353:Generated_Source\PSoC5/ADC_DelSig.c ****             */
1354:Generated_Source\PSoC5/ADC_DelSig.c **** 
1355:Generated_Source\PSoC5/ADC_DelSig.c ****             #if(ADC_DelSig_DEFAULT_INPUT_MODE)
1356:Generated_Source\PSoC5/ADC_DelSig.c ****                 #if (ADC_DelSig_CFG2_INPUT_RANGE == ADC_DelSig_IR_VSSA_TO_2VREF)
1357:Generated_Source\PSoC5/ADC_DelSig.c ****                     ADC_DelSig_AMux_Select(1u);
1358:Generated_Source\PSoC5/ADC_DelSig.c ****                 #else
1359:Generated_Source\PSoC5/ADC_DelSig.c ****                     ADC_DelSig_AMux_Select(0u);
1360:Generated_Source\PSoC5/ADC_DelSig.c ****                 #endif /* ADC_DelSig_IR_VSSA_TO_2VREF) */
1361:Generated_Source\PSoC5/ADC_DelSig.c ****             #endif /* ADC_DelSig_DEFAULT_INPUT_MODE */
1362:Generated_Source\PSoC5/ADC_DelSig.c **** 
1363:Generated_Source\PSoC5/ADC_DelSig.c ****             /* Set the Conversion stop if resolution is above 16 bit and
1364:Generated_Source\PSoC5/ADC_DelSig.c ****             *   conversion mode is Single sample
1365:Generated_Source\PSoC5/ADC_DelSig.c ****             */
1366:Generated_Source\PSoC5/ADC_DelSig.c ****             #if(ADC_DelSig_CFG2_RESOLUTION > 16 && \
1367:Generated_Source\PSoC5/ADC_DelSig.c ****                 ADC_DelSig_CFG2_CONV_MODE == ADC_DelSig_MODE_SINGLE_SAMPLE)
1368:Generated_Source\PSoC5/ADC_DelSig.c ****                 ADC_DelSig_stopConversion = 1u;
1369:Generated_Source\PSoC5/ADC_DelSig.c ****             #endif /* Single sample with resolution above 16 bits. */
1370:Generated_Source\PSoC5/ADC_DelSig.c **** 
1371:Generated_Source\PSoC5/ADC_DelSig.c ****             ADC_DelSig_CountsPerVolt = (int32)ADC_DelSig_CFG2_COUNTS_PER_VOLT;
1372:Generated_Source\PSoC5/ADC_DelSig.c **** 
1373:Generated_Source\PSoC5/ADC_DelSig.c ****             ADC_DelSig_Ext_CP_Clk_SetDividerRegister(ADC_DelSig_CFG2_CP_CLK_DIVIDER, 1u);
1374:Generated_Source\PSoC5/ADC_DelSig.c **** 
1375:Generated_Source\PSoC5/ADC_DelSig.c ****             /* This is only valid if there is an internal clock */
1376:Generated_Source\PSoC5/ADC_DelSig.c ****             #if(ADC_DelSig_DEFAULT_INTERNAL_CLK)
1377:Generated_Source\PSoC5/ADC_DelSig.c ****                 ADC_DelSig_theACLK_SetDividerRegister(ADC_DelSig_CFG2_ADC_CLK_DIVIDER, 1u);
1378:Generated_Source\PSoC5/ADC_DelSig.c ****             #endif /* ADC_DelSig_DEFAULT_INTERNAL_CLK */
1379:Generated_Source\PSoC5/ADC_DelSig.c **** 
1380:Generated_Source\PSoC5/ADC_DelSig.c ****             #if(ADC_DelSig_IRQ_REMOVE == 0u)
1381:Generated_Source\PSoC5/ADC_DelSig.c ****                 /* Set interrupt vector */
1382:Generated_Source\PSoC5/ADC_DelSig.c ****                 (void)CyIntSetVector(ADC_DelSig_INTC_NUMBER, &ADC_DelSig_ISR2);
1383:Generated_Source\PSoC5/ADC_DelSig.c ****             #endif   /* End ADC_DelSig_IRQ_REMOVE */
1384:Generated_Source\PSoC5/ADC_DelSig.c ****         }
1385:Generated_Source\PSoC5/ADC_DelSig.c ****     #endif /* ADC_DelSig_DEFAULT_NUM_CONFIGS > 1 */
1386:Generated_Source\PSoC5/ADC_DelSig.c **** 
1387:Generated_Source\PSoC5/ADC_DelSig.c ****     #if(ADC_DelSig_DEFAULT_NUM_CONFIGS > 2)
1388:Generated_Source\PSoC5/ADC_DelSig.c ****         if(config == 3u)
1389:Generated_Source\PSoC5/ADC_DelSig.c ****         {
1390:Generated_Source\PSoC5/ADC_DelSig.c ****             /* Third Config */
1391:Generated_Source\PSoC5/ADC_DelSig.c ****             ADC_DelSig_DEC_CR_REG      = ADC_DelSig_CFG3_DEC_CR;
1392:Generated_Source\PSoC5/ADC_DelSig.c ****             ADC_DelSig_DEC_SHIFT1_REG  = ADC_DelSig_CFG3_DEC_SHIFT1;
1393:Generated_Source\PSoC5/ADC_DelSig.c ****             ADC_DelSig_DEC_SHIFT2_REG  = ADC_DelSig_CFG3_DEC_SHIFT2;
1394:Generated_Source\PSoC5/ADC_DelSig.c ****             ADC_DelSig_DEC_DR2_REG     = ADC_DelSig_CFG3_DEC_DR2;
1395:Generated_Source\PSoC5/ADC_DelSig.c ****             ADC_DelSig_DEC_DR2H_REG    = ADC_DelSig_CFG3_DEC_DR2H;
1396:Generated_Source\PSoC5/ADC_DelSig.c ****             ADC_DelSig_DEC_DR1_REG     = ADC_DelSig_CFG3_DEC_DR1;
1397:Generated_Source\PSoC5/ADC_DelSig.c ****             ADC_DelSig_DEC_OCOR_REG    = ADC_DelSig_CFG3_DEC_OCOR;
1398:Generated_Source\PSoC5/ADC_DelSig.c ****             ADC_DelSig_DEC_OCORM_REG   = ADC_DelSig_CFG3_DEC_OCORM;
1399:Generated_Source\PSoC5/ADC_DelSig.c ****             ADC_DelSig_DEC_OCORH_REG   = ADC_DelSig_CFG3_DEC_OCORH;
1400:Generated_Source\PSoC5/ADC_DelSig.c ****             ADC_DelSig_DEC_COHER_REG   = ADC_DelSig_CFG3_DEC_COHER;
ARM GAS  C:\Users\Nelson\AppData\Local\Temp\ccgC0n3g.s 			page 26


1401:Generated_Source\PSoC5/ADC_DelSig.c **** 
1402:Generated_Source\PSoC5/ADC_DelSig.c ****             ADC_DelSig_DSM_CR4_REG     = ADC_DelSig_CFG3_DSM_CR4;
1403:Generated_Source\PSoC5/ADC_DelSig.c ****             ADC_DelSig_DSM_CR5_REG     = ADC_DelSig_CFG3_DSM_CR5;
1404:Generated_Source\PSoC5/ADC_DelSig.c ****             ADC_DelSig_DSM_CR6_REG     = ADC_DelSig_CFG3_DSM_CR6;
1405:Generated_Source\PSoC5/ADC_DelSig.c ****             ADC_DelSig_DSM_CR7_REG     = ADC_DelSig_CFG3_DSM_CR7;
1406:Generated_Source\PSoC5/ADC_DelSig.c ****             ADC_DelSig_DSM_CR10_REG    = ADC_DelSig_CFG3_DSM_CR10;
1407:Generated_Source\PSoC5/ADC_DelSig.c ****             ADC_DelSig_DSM_CR11_REG    = ADC_DelSig_CFG3_DSM_CR11;
1408:Generated_Source\PSoC5/ADC_DelSig.c ****             ADC_DelSig_DSM_CR12_REG    = ADC_DelSig_CFG3_DSM_CR12;
1409:Generated_Source\PSoC5/ADC_DelSig.c ****             ADC_DelSig_DSM_CR14_REG    = ADC_DelSig_CFG3_DSM_CR14;
1410:Generated_Source\PSoC5/ADC_DelSig.c ****             ADC_DelSig_DSM_CR15_REG    = ADC_DelSig_CFG3_DSM_CR15;
1411:Generated_Source\PSoC5/ADC_DelSig.c ****             ADC_DelSig_DSM_CR16_REG    = ADC_DelSig_CFG3_DSM_CR16;
1412:Generated_Source\PSoC5/ADC_DelSig.c ****             ADC_DelSig_DSM_CR17_REG    = ADC_DelSig_CFG3_DSM_CR17;
1413:Generated_Source\PSoC5/ADC_DelSig.c ****             /* Set DSM_REF0_REG by disabling and enabling the PRESS circuit */
1414:Generated_Source\PSoC5/ADC_DelSig.c ****             ADC_DelSig_SetDSMRef0Reg(ADC_DelSig_CFG3_DSM_REF0);
1415:Generated_Source\PSoC5/ADC_DelSig.c ****             ADC_DelSig_DSM_REF2_REG    = ADC_DelSig_CFG3_DSM_REF2;
1416:Generated_Source\PSoC5/ADC_DelSig.c ****             ADC_DelSig_DSM_REF3_REG    = ADC_DelSig_CFG3_DSM_REF3;
1417:Generated_Source\PSoC5/ADC_DelSig.c **** 
1418:Generated_Source\PSoC5/ADC_DelSig.c ****             ADC_DelSig_DSM_BUF0_REG    = ADC_DelSig_CFG3_DSM_BUF0;
1419:Generated_Source\PSoC5/ADC_DelSig.c ****             ADC_DelSig_DSM_BUF1_REG    = ADC_DelSig_CFG3_DSM_BUF1;
1420:Generated_Source\PSoC5/ADC_DelSig.c ****             ADC_DelSig_DSM_BUF2_REG    = ADC_DelSig_CFG3_DSM_BUF2;
1421:Generated_Source\PSoC5/ADC_DelSig.c ****             ADC_DelSig_DSM_BUF3_REG    = ADC_DelSig_CFG3_DSM_BUF3;
1422:Generated_Source\PSoC5/ADC_DelSig.c **** 
1423:Generated_Source\PSoC5/ADC_DelSig.c ****             /* To select either Vssa or Vref to -ve input of DSM depending on
1424:Generated_Source\PSoC5/ADC_DelSig.c ****             *  the input range selected.
1425:Generated_Source\PSoC5/ADC_DelSig.c ****             */
1426:Generated_Source\PSoC5/ADC_DelSig.c ****             #if(ADC_DelSig_DEFAULT_INPUT_MODE)
1427:Generated_Source\PSoC5/ADC_DelSig.c ****                 #if (ADC_DelSig_CFG3_INPUT_RANGE == ADC_DelSig_IR_VSSA_TO_2VREF)
1428:Generated_Source\PSoC5/ADC_DelSig.c ****                     ADC_DelSig_AMux_Select(1u);
1429:Generated_Source\PSoC5/ADC_DelSig.c ****                 #else
1430:Generated_Source\PSoC5/ADC_DelSig.c ****                     ADC_DelSig_AMux_Select(0u);
1431:Generated_Source\PSoC5/ADC_DelSig.c ****                 #endif /* ADC_DelSig_IR_VSSA_TO_2VREF) */
1432:Generated_Source\PSoC5/ADC_DelSig.c ****             #endif /* ADC_DelSig_DEFAULT_INPUT_MODE */
1433:Generated_Source\PSoC5/ADC_DelSig.c **** 
1434:Generated_Source\PSoC5/ADC_DelSig.c ****             /* Set the Conversion stop if resolution is above 16 bit and
1435:Generated_Source\PSoC5/ADC_DelSig.c ****                conversion  mode is Single sample */
1436:Generated_Source\PSoC5/ADC_DelSig.c ****             #if(ADC_DelSig_CFG3_RESOLUTION > 16 && \
1437:Generated_Source\PSoC5/ADC_DelSig.c ****                 ADC_DelSig_CFG3_CONV_MODE == ADC_DelSig_MODE_SINGLE_SAMPLE)
1438:Generated_Source\PSoC5/ADC_DelSig.c ****                 ADC_DelSig_stopConversion = 1u;
1439:Generated_Source\PSoC5/ADC_DelSig.c ****             #endif /* Single sample with resolution above 16 bits */
1440:Generated_Source\PSoC5/ADC_DelSig.c **** 
1441:Generated_Source\PSoC5/ADC_DelSig.c ****             ADC_DelSig_CountsPerVolt = (int32)ADC_DelSig_CFG3_COUNTS_PER_VOLT;
1442:Generated_Source\PSoC5/ADC_DelSig.c **** 
1443:Generated_Source\PSoC5/ADC_DelSig.c ****             ADC_DelSig_Ext_CP_Clk_SetDividerRegister(ADC_DelSig_CFG3_CP_CLK_DIVIDER, 1u);
1444:Generated_Source\PSoC5/ADC_DelSig.c **** 
1445:Generated_Source\PSoC5/ADC_DelSig.c ****             /* This is only valid if there is an internal clock */
1446:Generated_Source\PSoC5/ADC_DelSig.c ****             #if(ADC_DelSig_DEFAULT_INTERNAL_CLK)
1447:Generated_Source\PSoC5/ADC_DelSig.c ****                 ADC_DelSig_theACLK_SetDividerRegister(ADC_DelSig_CFG3_ADC_CLK_DIVIDER, 1u);
1448:Generated_Source\PSoC5/ADC_DelSig.c ****             #endif /* ADC_DelSig_DEFAULT_INTERNAL_CLK */
1449:Generated_Source\PSoC5/ADC_DelSig.c **** 
1450:Generated_Source\PSoC5/ADC_DelSig.c ****             #if(ADC_DelSig_IRQ_REMOVE == 0u)
1451:Generated_Source\PSoC5/ADC_DelSig.c ****                 /* Set interrupt vector */
1452:Generated_Source\PSoC5/ADC_DelSig.c ****                 (void)CyIntSetVector(ADC_DelSig_INTC_NUMBER, &ADC_DelSig_ISR3);
1453:Generated_Source\PSoC5/ADC_DelSig.c ****             #endif   /* End ADC_DelSig_IRQ_REMOVE */
1454:Generated_Source\PSoC5/ADC_DelSig.c ****         }
1455:Generated_Source\PSoC5/ADC_DelSig.c ****     #endif /* ADC_DelSig_DEFAULT_NUM_CONFIGS > 2 */
1456:Generated_Source\PSoC5/ADC_DelSig.c **** 
1457:Generated_Source\PSoC5/ADC_DelSig.c ****     #if(ADC_DelSig_DEFAULT_NUM_CONFIGS > 3)
ARM GAS  C:\Users\Nelson\AppData\Local\Temp\ccgC0n3g.s 			page 27


1458:Generated_Source\PSoC5/ADC_DelSig.c ****         if (config == 4u)
1459:Generated_Source\PSoC5/ADC_DelSig.c ****         {
1460:Generated_Source\PSoC5/ADC_DelSig.c ****             /* Fourth Config */
1461:Generated_Source\PSoC5/ADC_DelSig.c ****             ADC_DelSig_DEC_CR_REG      = ADC_DelSig_CFG4_DEC_CR;
1462:Generated_Source\PSoC5/ADC_DelSig.c ****             ADC_DelSig_DEC_SHIFT1_REG  = ADC_DelSig_CFG4_DEC_SHIFT1;
1463:Generated_Source\PSoC5/ADC_DelSig.c ****             ADC_DelSig_DEC_SHIFT2_REG  = ADC_DelSig_CFG4_DEC_SHIFT2;
1464:Generated_Source\PSoC5/ADC_DelSig.c ****             ADC_DelSig_DEC_DR2_REG     = ADC_DelSig_CFG4_DEC_DR2;
1465:Generated_Source\PSoC5/ADC_DelSig.c ****             ADC_DelSig_DEC_DR2H_REG    = ADC_DelSig_CFG4_DEC_DR2H;
1466:Generated_Source\PSoC5/ADC_DelSig.c ****             ADC_DelSig_DEC_DR1_REG     = ADC_DelSig_CFG4_DEC_DR1;
1467:Generated_Source\PSoC5/ADC_DelSig.c ****             ADC_DelSig_DEC_OCOR_REG    = ADC_DelSig_CFG4_DEC_OCOR;
1468:Generated_Source\PSoC5/ADC_DelSig.c ****             ADC_DelSig_DEC_OCORM_REG   = ADC_DelSig_CFG4_DEC_OCORM;
1469:Generated_Source\PSoC5/ADC_DelSig.c ****             ADC_DelSig_DEC_OCORH_REG   = ADC_DelSig_CFG4_DEC_OCORH;
1470:Generated_Source\PSoC5/ADC_DelSig.c ****             ADC_DelSig_DEC_COHER_REG   = ADC_DelSig_CFG4_DEC_COHER;
1471:Generated_Source\PSoC5/ADC_DelSig.c **** 
1472:Generated_Source\PSoC5/ADC_DelSig.c ****             ADC_DelSig_DSM_CR4_REG     = ADC_DelSig_CFG4_DSM_CR4;
1473:Generated_Source\PSoC5/ADC_DelSig.c ****             ADC_DelSig_DSM_CR5_REG     = ADC_DelSig_CFG4_DSM_CR5;
1474:Generated_Source\PSoC5/ADC_DelSig.c ****             ADC_DelSig_DSM_CR6_REG     = ADC_DelSig_CFG4_DSM_CR6;
1475:Generated_Source\PSoC5/ADC_DelSig.c ****             ADC_DelSig_DSM_CR7_REG     = ADC_DelSig_CFG4_DSM_CR7;
1476:Generated_Source\PSoC5/ADC_DelSig.c ****             ADC_DelSig_DSM_CR10_REG    = ADC_DelSig_CFG4_DSM_CR10;
1477:Generated_Source\PSoC5/ADC_DelSig.c ****             ADC_DelSig_DSM_CR11_REG    = ADC_DelSig_CFG4_DSM_CR11;
1478:Generated_Source\PSoC5/ADC_DelSig.c ****             ADC_DelSig_DSM_CR12_REG    = ADC_DelSig_CFG4_DSM_CR12;
1479:Generated_Source\PSoC5/ADC_DelSig.c ****             ADC_DelSig_DSM_CR14_REG    = ADC_DelSig_CFG4_DSM_CR14;
1480:Generated_Source\PSoC5/ADC_DelSig.c ****             ADC_DelSig_DSM_CR15_REG    = ADC_DelSig_CFG4_DSM_CR15;
1481:Generated_Source\PSoC5/ADC_DelSig.c ****             ADC_DelSig_DSM_CR16_REG    = ADC_DelSig_CFG4_DSM_CR16;
1482:Generated_Source\PSoC5/ADC_DelSig.c ****             ADC_DelSig_DSM_CR17_REG    = ADC_DelSig_CFG4_DSM_CR17;
1483:Generated_Source\PSoC5/ADC_DelSig.c ****             /* Set DSM_REF0_REG by disabling and enabling the PRESS circuit */
1484:Generated_Source\PSoC5/ADC_DelSig.c ****             ADC_DelSig_SetDSMRef0Reg(ADC_DelSig_CFG4_DSM_REF0);
1485:Generated_Source\PSoC5/ADC_DelSig.c ****             ADC_DelSig_DSM_REF2_REG    = ADC_DelSig_CFG4_DSM_REF2;
1486:Generated_Source\PSoC5/ADC_DelSig.c ****             ADC_DelSig_DSM_REF3_REG    = ADC_DelSig_CFG4_DSM_REF3;
1487:Generated_Source\PSoC5/ADC_DelSig.c **** 
1488:Generated_Source\PSoC5/ADC_DelSig.c ****             ADC_DelSig_DSM_BUF0_REG    = ADC_DelSig_CFG4_DSM_BUF0;
1489:Generated_Source\PSoC5/ADC_DelSig.c ****             ADC_DelSig_DSM_BUF1_REG    = ADC_DelSig_CFG4_DSM_BUF1;
1490:Generated_Source\PSoC5/ADC_DelSig.c ****             ADC_DelSig_DSM_BUF2_REG    = ADC_DelSig_CFG4_DSM_BUF2;
1491:Generated_Source\PSoC5/ADC_DelSig.c ****             ADC_DelSig_DSM_BUF3_REG    = ADC_DelSig_CFG4_DSM_BUF3;
1492:Generated_Source\PSoC5/ADC_DelSig.c **** 
1493:Generated_Source\PSoC5/ADC_DelSig.c ****             /* To select either Vssa or Vref to -ve input of DSM depending on
1494:Generated_Source\PSoC5/ADC_DelSig.c ****             *  the input range selected.
1495:Generated_Source\PSoC5/ADC_DelSig.c ****             */
1496:Generated_Source\PSoC5/ADC_DelSig.c ****             #if(ADC_DelSig_DEFAULT_INPUT_MODE)
1497:Generated_Source\PSoC5/ADC_DelSig.c ****                 #if (ADC_DelSig_CFG4_INPUT_RANGE == ADC_DelSig_IR_VSSA_TO_2VREF)
1498:Generated_Source\PSoC5/ADC_DelSig.c ****                     ADC_DelSig_AMux_Select(1u);
1499:Generated_Source\PSoC5/ADC_DelSig.c ****                 #else
1500:Generated_Source\PSoC5/ADC_DelSig.c ****                     ADC_DelSig_AMux_Select(0u);
1501:Generated_Source\PSoC5/ADC_DelSig.c ****                 #endif /* ADC_DelSig_IR_VSSA_TO_2VREF) */
1502:Generated_Source\PSoC5/ADC_DelSig.c ****             #endif /* ADC_DelSig_DEFAULT_INPUT_MODE */
1503:Generated_Source\PSoC5/ADC_DelSig.c **** 
1504:Generated_Source\PSoC5/ADC_DelSig.c ****             /* Set the Conversion stop if resolution is above 16 bit and
1505:Generated_Source\PSoC5/ADC_DelSig.c ****                conversion mode is Single sample */
1506:Generated_Source\PSoC5/ADC_DelSig.c ****             #if(ADC_DelSig_CFG4_RESOLUTION > 16 && \
1507:Generated_Source\PSoC5/ADC_DelSig.c ****                 ADC_DelSig_CFG4_CONV_MODE == ADC_DelSig_MODE_SINGLE_SAMPLE)
1508:Generated_Source\PSoC5/ADC_DelSig.c ****                 ADC_DelSig_stopConversion = 1u;
1509:Generated_Source\PSoC5/ADC_DelSig.c ****             #endif /* Single sample with resolution above 16 bits */
1510:Generated_Source\PSoC5/ADC_DelSig.c **** 
1511:Generated_Source\PSoC5/ADC_DelSig.c ****             ADC_DelSig_CountsPerVolt = (int32)ADC_DelSig_CFG4_COUNTS_PER_VOLT;
1512:Generated_Source\PSoC5/ADC_DelSig.c **** 
1513:Generated_Source\PSoC5/ADC_DelSig.c ****             ADC_DelSig_Ext_CP_Clk_SetDividerRegister(ADC_DelSig_CFG4_CP_CLK_DIVIDER, 1u);
1514:Generated_Source\PSoC5/ADC_DelSig.c **** 
ARM GAS  C:\Users\Nelson\AppData\Local\Temp\ccgC0n3g.s 			page 28


1515:Generated_Source\PSoC5/ADC_DelSig.c ****             /* This is only valid if there is an internal clock */
1516:Generated_Source\PSoC5/ADC_DelSig.c ****             #if(ADC_DelSig_DEFAULT_INTERNAL_CLK)
1517:Generated_Source\PSoC5/ADC_DelSig.c ****                 ADC_DelSig_theACLK_SetDividerRegister(ADC_DelSig_CFG4_ADC_CLK_DIVIDER, 1u);
1518:Generated_Source\PSoC5/ADC_DelSig.c ****             #endif /* ADC_DelSig_DEFAULT_INTERNAL_CLK */
1519:Generated_Source\PSoC5/ADC_DelSig.c **** 
1520:Generated_Source\PSoC5/ADC_DelSig.c ****             #if(ADC_DelSig_IRQ_REMOVE == 0u)
1521:Generated_Source\PSoC5/ADC_DelSig.c ****                 /* Set interrupt vector */
1522:Generated_Source\PSoC5/ADC_DelSig.c ****                 (void)CyIntSetVector(ADC_DelSig_INTC_NUMBER, &ADC_DelSig_ISR4);
1523:Generated_Source\PSoC5/ADC_DelSig.c ****             #endif   /* End ADC_DelSig_IRQ_REMOVE */
1524:Generated_Source\PSoC5/ADC_DelSig.c ****         }
1525:Generated_Source\PSoC5/ADC_DelSig.c ****     #endif /* ADC_DelSig_DEFAULT_NUM_CONFIGS > 3 */
1526:Generated_Source\PSoC5/ADC_DelSig.c **** }
1527:Generated_Source\PSoC5/ADC_DelSig.c **** 
1528:Generated_Source\PSoC5/ADC_DelSig.c **** 
1529:Generated_Source\PSoC5/ADC_DelSig.c **** /*******************************************************************************
1530:Generated_Source\PSoC5/ADC_DelSig.c **** * Function Name: ADC_DelSig_SelectCofiguration
1531:Generated_Source\PSoC5/ADC_DelSig.c **** ********************************************************************************
1532:Generated_Source\PSoC5/ADC_DelSig.c **** *
1533:Generated_Source\PSoC5/ADC_DelSig.c **** * Summary:
1534:Generated_Source\PSoC5/ADC_DelSig.c **** *  Sets one of up to four ADC configurations. Before setting the new
1535:Generated_Source\PSoC5/ADC_DelSig.c **** *  configuration, the ADC is stopped and powered down. After setting
1536:Generated_Source\PSoC5/ADC_DelSig.c **** *  the new configuration, the ADC can be powered and conversion
1537:Generated_Source\PSoC5/ADC_DelSig.c **** *  can be restarted depending up on the value of second parameter
1538:Generated_Source\PSoC5/ADC_DelSig.c **** *  restart. If the value of this parameter is 1, then ADC will be
1539:Generated_Source\PSoC5/ADC_DelSig.c **** *  restarted. If this value is zero, then user must call ADC_DelSig_Start
1540:Generated_Source\PSoC5/ADC_DelSig.c **** *  and ADC_DelSig_StartConvert() to restart the conversion.
1541:Generated_Source\PSoC5/ADC_DelSig.c **** *
1542:Generated_Source\PSoC5/ADC_DelSig.c **** * Parameters:
1543:Generated_Source\PSoC5/ADC_DelSig.c **** *  config:  configuration user wants to select.
1544:Generated_Source\PSoC5/ADC_DelSig.c **** *           Valid range: 1..4
1545:Generated_Source\PSoC5/ADC_DelSig.c **** *  restart:  Restart option. 1 means start the ADC and restart the conversion.
1546:Generated_Source\PSoC5/ADC_DelSig.c **** *                            0 means do not start the ADC and conversion.
1547:Generated_Source\PSoC5/ADC_DelSig.c **** *
1548:Generated_Source\PSoC5/ADC_DelSig.c **** * Return:
1549:Generated_Source\PSoC5/ADC_DelSig.c **** *  None
1550:Generated_Source\PSoC5/ADC_DelSig.c **** *
1551:Generated_Source\PSoC5/ADC_DelSig.c **** *******************************************************************************/
1552:Generated_Source\PSoC5/ADC_DelSig.c **** void ADC_DelSig_SelectConfiguration(uint8 config, uint8 restart)
1553:Generated_Source\PSoC5/ADC_DelSig.c ****                                               
1554:Generated_Source\PSoC5/ADC_DelSig.c **** {
1555:Generated_Source\PSoC5/ADC_DelSig.c ****     /* Check whether the configuration number is valid or not */
1556:Generated_Source\PSoC5/ADC_DelSig.c ****     if((config > 0u) && (config <= ADC_DelSig_DEFAULT_NUM_CONFIGS))
1557:Generated_Source\PSoC5/ADC_DelSig.c ****     {
1558:Generated_Source\PSoC5/ADC_DelSig.c ****         /* Set the flag to ensure Start() API doesn't override the 
1559:Generated_Source\PSoC5/ADC_DelSig.c **** 		*  selected configuration
1560:Generated_Source\PSoC5/ADC_DelSig.c **** 		*/
1561:Generated_Source\PSoC5/ADC_DelSig.c ****         if(ADC_DelSig_initVar == 0u)
1562:Generated_Source\PSoC5/ADC_DelSig.c ****         {
1563:Generated_Source\PSoC5/ADC_DelSig.c ****             ADC_DelSig_started = 1u;
1564:Generated_Source\PSoC5/ADC_DelSig.c ****         }
1565:Generated_Source\PSoC5/ADC_DelSig.c **** 
1566:Generated_Source\PSoC5/ADC_DelSig.c ****         /* Update the config flag */
1567:Generated_Source\PSoC5/ADC_DelSig.c ****         ADC_DelSig_Config = config;
1568:Generated_Source\PSoC5/ADC_DelSig.c **** 
1569:Generated_Source\PSoC5/ADC_DelSig.c ****         /* Stop the ADC  */
1570:Generated_Source\PSoC5/ADC_DelSig.c ****         ADC_DelSig_Stop();
1571:Generated_Source\PSoC5/ADC_DelSig.c **** 
ARM GAS  C:\Users\Nelson\AppData\Local\Temp\ccgC0n3g.s 			page 29


1572:Generated_Source\PSoC5/ADC_DelSig.c ****         /* Set the  ADC registers based on the configuration */
1573:Generated_Source\PSoC5/ADC_DelSig.c ****         ADC_DelSig_InitConfig(config);
1574:Generated_Source\PSoC5/ADC_DelSig.c **** 
1575:Generated_Source\PSoC5/ADC_DelSig.c ****         /* Compensate the gain */
1576:Generated_Source\PSoC5/ADC_DelSig.c ****         ADC_DelSig_DEC_GVAL_REG = ADC_DelSig_gcor[config - 1u].gval;
1577:Generated_Source\PSoC5/ADC_DelSig.c ****         CY_SET_REG16(ADC_DelSig_DEC_GCOR_16B_PTR, ADC_DelSig_gcor[config - 1u].gcor);
1578:Generated_Source\PSoC5/ADC_DelSig.c **** 
1579:Generated_Source\PSoC5/ADC_DelSig.c ****         if(restart == 1u)
1580:Generated_Source\PSoC5/ADC_DelSig.c ****         {
1581:Generated_Source\PSoC5/ADC_DelSig.c ****             /* Restart the ADC */
1582:Generated_Source\PSoC5/ADC_DelSig.c ****             ADC_DelSig_Start();
1583:Generated_Source\PSoC5/ADC_DelSig.c **** 
1584:Generated_Source\PSoC5/ADC_DelSig.c ****             /* Restart the ADC conversion */
1585:Generated_Source\PSoC5/ADC_DelSig.c ****             ADC_DelSig_StartConvert();
1586:Generated_Source\PSoC5/ADC_DelSig.c ****         }
1587:Generated_Source\PSoC5/ADC_DelSig.c ****     }
1588:Generated_Source\PSoC5/ADC_DelSig.c ****     else
1589:Generated_Source\PSoC5/ADC_DelSig.c ****     {
1590:Generated_Source\PSoC5/ADC_DelSig.c ****         /* Halt CPU in debug mode if config is out of valid range */
1591:Generated_Source\PSoC5/ADC_DelSig.c ****         CYASSERT(0u != 0u);
1592:Generated_Source\PSoC5/ADC_DelSig.c ****     }
1593:Generated_Source\PSoC5/ADC_DelSig.c **** }
1594:Generated_Source\PSoC5/ADC_DelSig.c **** 
1595:Generated_Source\PSoC5/ADC_DelSig.c **** 
1596:Generated_Source\PSoC5/ADC_DelSig.c **** /*******************************************************************************
1597:Generated_Source\PSoC5/ADC_DelSig.c **** * Function Name: ADC_DelSig_GainCompensation
1598:Generated_Source\PSoC5/ADC_DelSig.c **** ********************************************************************************
1599:Generated_Source\PSoC5/ADC_DelSig.c **** *
1600:Generated_Source\PSoC5/ADC_DelSig.c **** * Summary:
1601:Generated_Source\PSoC5/ADC_DelSig.c **** *  This API calculates the trim value and then store this to gcor structure.
1602:Generated_Source\PSoC5/ADC_DelSig.c **** *
1603:Generated_Source\PSoC5/ADC_DelSig.c **** * Parameters:
1604:Generated_Source\PSoC5/ADC_DelSig.c **** *  inputRange:  input range for which trim value is to be calculated.
1605:Generated_Source\PSoC5/ADC_DelSig.c **** *  IdealDecGain:  Ideal Decimator gain for the selected resolution and
1606:Generated_Source\PSoC5/ADC_DelSig.c **** *                 conversion  mode.
1607:Generated_Source\PSoC5/ADC_DelSig.c **** *  IdealOddDecGain:  Ideal odd decimation gain for the selected resolution and
1608:Generated_Source\PSoC5/ADC_DelSig.c ****                      conversion mode.
1609:Generated_Source\PSoC5/ADC_DelSig.c **** *  resolution:  Resolution to select the proper flash location for trim value.
1610:Generated_Source\PSoC5/ADC_DelSig.c **** *  config:      Specifies the configuration number
1611:Generated_Source\PSoC5/ADC_DelSig.c **** *               Valid range: 1..4
1612:Generated_Source\PSoC5/ADC_DelSig.c **** *
1613:Generated_Source\PSoC5/ADC_DelSig.c **** * Return:
1614:Generated_Source\PSoC5/ADC_DelSig.c **** *  None
1615:Generated_Source\PSoC5/ADC_DelSig.c **** *
1616:Generated_Source\PSoC5/ADC_DelSig.c **** *******************************************************************************/
1617:Generated_Source\PSoC5/ADC_DelSig.c **** static void ADC_DelSig_GainCompensation(uint8 inputRange, uint16 idealDecGain, uint16 idealOddDecGa
1618:Generated_Source\PSoC5/ADC_DelSig.c ****                               uint8 resolution, uint8 config) 
1619:Generated_Source\PSoC5/ADC_DelSig.c **** {
  26              		.loc 1 1619 0
  27              		.cfi_startproc
  28              		@ args = 4, pretend = 0, frame = 0
  29              		@ frame_needed = 0, uses_anonymous_args = 0
  30              	.LVL0:
  31 0000 38B5     		push	{r3, r4, r5, lr}
  32              		.cfi_def_cfa_offset 16
  33              		.cfi_offset 3, -16
  34              		.cfi_offset 4, -12
ARM GAS  C:\Users\Nelson\AppData\Local\Temp\ccgC0n3g.s 			page 30


  35              		.cfi_offset 5, -8
  36              		.cfi_offset 14, -4
  37 0002 9DF81040 		ldrb	r4, [sp, #16]	@ zero_extendqisi2
1620:Generated_Source\PSoC5/ADC_DelSig.c ****     int8 flash;
1621:Generated_Source\PSoC5/ADC_DelSig.c **** 	int32 normalised;
1622:Generated_Source\PSoC5/ADC_DelSig.c **** 	uint16 gcorValue;
1623:Generated_Source\PSoC5/ADC_DelSig.c ****     uint32 gcorTmp;
1624:Generated_Source\PSoC5/ADC_DelSig.c **** 
1625:Generated_Source\PSoC5/ADC_DelSig.c ****     if((config > 0u) && (config <= ADC_DelSig_DEFAULT_NUM_CONFIGS))
  38              		.loc 1 1625 0
  39 0006 651E     		subs	r5, r4, #1
  40 0008 EDB2     		uxtb	r5, r5
  41 000a 032D     		cmp	r5, #3
  42 000c 4AD8     		bhi	.L2
1626:Generated_Source\PSoC5/ADC_DelSig.c ****     {
1627:Generated_Source\PSoC5/ADC_DelSig.c ****         switch(inputRange)
  43              		.loc 1 1627 0
  44 000e 0138     		subs	r0, r0, #1
  45              	.LVL1:
  46 0010 0928     		cmp	r0, #9
  47 0012 26D8     		bhi	.L16
  48 0014 DFE800F0 		tbb	[pc, r0]
  49              	.L5:
  50 0018 05       		.byte	(.L4-.L5)/2
  51 0019 25       		.byte	(.L16-.L5)/2
  52 001a 25       		.byte	(.L16-.L5)/2
  53 001b 05       		.byte	(.L4-.L5)/2
  54 001c 25       		.byte	(.L16-.L5)/2
  55 001d 25       		.byte	(.L16-.L5)/2
  56 001e 0D       		.byte	(.L6-.L5)/2
  57 001f 15       		.byte	(.L7-.L5)/2
  58 0020 25       		.byte	(.L16-.L5)/2
  59 0021 1D       		.byte	(.L8-.L5)/2
  60              		.p2align 1
  61              	.L4:
1628:Generated_Source\PSoC5/ADC_DelSig.c ****         {
1629:Generated_Source\PSoC5/ADC_DelSig.c ****             case ADC_DelSig_IR_VNEG_VREF_DIFF:
1630:Generated_Source\PSoC5/ADC_DelSig.c ****             case ADC_DelSig_IR_VSSA_TO_2VREF:
1631:Generated_Source\PSoC5/ADC_DelSig.c ****                 /* Normalize the flash Value */
1632:Generated_Source\PSoC5/ADC_DelSig.c ****                 if(resolution > 15u)
  62              		.loc 1 1632 0
  63 0022 0F2B     		cmp	r3, #15
  64 0024 02D9     		bls	.L9
1633:Generated_Source\PSoC5/ADC_DelSig.c ****                 {
1634:Generated_Source\PSoC5/ADC_DelSig.c ****                     flash = ADC_DelSig_DEC_TRIM_VREF_DIFF_16_20;
  65              		.loc 1 1634 0
  66 0026 2148     		ldr	r0, .L18
  67 0028 0078     		ldrb	r0, [r0]	@ zero_extendqisi2
  68              	.LVL2:
  69 002a 1BE0     		b	.L3
  70              	.LVL3:
  71              	.L9:
1635:Generated_Source\PSoC5/ADC_DelSig.c ****                 }
1636:Generated_Source\PSoC5/ADC_DelSig.c ****                 else
1637:Generated_Source\PSoC5/ADC_DelSig.c ****                 {
1638:Generated_Source\PSoC5/ADC_DelSig.c ****                     flash = ADC_DelSig_DEC_TRIM_VREF_DIFF_8_15;
  72              		.loc 1 1638 0
ARM GAS  C:\Users\Nelson\AppData\Local\Temp\ccgC0n3g.s 			page 31


  73 002c 2048     		ldr	r0, .L18+4
  74 002e 0078     		ldrb	r0, [r0]	@ zero_extendqisi2
  75              	.LVL4:
  76 0030 18E0     		b	.L3
  77              	.LVL5:
  78              	.L6:
1639:Generated_Source\PSoC5/ADC_DelSig.c ****                 }
1640:Generated_Source\PSoC5/ADC_DelSig.c ****                 break;
1641:Generated_Source\PSoC5/ADC_DelSig.c **** 
1642:Generated_Source\PSoC5/ADC_DelSig.c ****             case ADC_DelSig_IR_VNEG_VREF_2_DIFF:
1643:Generated_Source\PSoC5/ADC_DelSig.c ****                 /* Normalize the flash Value */
1644:Generated_Source\PSoC5/ADC_DelSig.c ****                 if(resolution > 15u)
  79              		.loc 1 1644 0
  80 0032 0F2B     		cmp	r3, #15
  81 0034 02D9     		bls	.L10
1645:Generated_Source\PSoC5/ADC_DelSig.c ****                 {
1646:Generated_Source\PSoC5/ADC_DelSig.c ****                     flash = ADC_DelSig_DEC_TRIM_VREF_2_DIFF_16_20;
  82              		.loc 1 1646 0
  83 0036 1F48     		ldr	r0, .L18+8
  84 0038 0078     		ldrb	r0, [r0]	@ zero_extendqisi2
  85              	.LVL6:
  86 003a 13E0     		b	.L3
  87              	.LVL7:
  88              	.L10:
1647:Generated_Source\PSoC5/ADC_DelSig.c ****                 }
1648:Generated_Source\PSoC5/ADC_DelSig.c ****                 else
1649:Generated_Source\PSoC5/ADC_DelSig.c ****                 {
1650:Generated_Source\PSoC5/ADC_DelSig.c ****                     flash = ADC_DelSig_DEC_TRIM_VREF_2_DIFF_8_15;
  89              		.loc 1 1650 0
  90 003c 1E48     		ldr	r0, .L18+12
  91 003e 0078     		ldrb	r0, [r0]	@ zero_extendqisi2
  92              	.LVL8:
  93 0040 10E0     		b	.L3
  94              	.LVL9:
  95              	.L7:
1651:Generated_Source\PSoC5/ADC_DelSig.c ****                 }
1652:Generated_Source\PSoC5/ADC_DelSig.c ****                 break;
1653:Generated_Source\PSoC5/ADC_DelSig.c **** 
1654:Generated_Source\PSoC5/ADC_DelSig.c ****             case ADC_DelSig_IR_VNEG_VREF_4_DIFF:
1655:Generated_Source\PSoC5/ADC_DelSig.c ****                 /* Normalize the flash Value */
1656:Generated_Source\PSoC5/ADC_DelSig.c ****                 if(resolution > 15u)
  96              		.loc 1 1656 0
  97 0042 0F2B     		cmp	r3, #15
  98 0044 02D9     		bls	.L11
1657:Generated_Source\PSoC5/ADC_DelSig.c ****                 {
1658:Generated_Source\PSoC5/ADC_DelSig.c ****                     flash = ADC_DelSig_DEC_TRIM_VREF_4_DIFF_16_20;
  99              		.loc 1 1658 0
 100 0046 1D48     		ldr	r0, .L18+16
 101 0048 0078     		ldrb	r0, [r0]	@ zero_extendqisi2
 102              	.LVL10:
 103 004a 0BE0     		b	.L3
 104              	.LVL11:
 105              	.L11:
1659:Generated_Source\PSoC5/ADC_DelSig.c ****                 }
1660:Generated_Source\PSoC5/ADC_DelSig.c ****                 else
1661:Generated_Source\PSoC5/ADC_DelSig.c ****                 {
1662:Generated_Source\PSoC5/ADC_DelSig.c ****                     flash = ADC_DelSig_DEC_TRIM_VREF_4_DIFF_8_15;
ARM GAS  C:\Users\Nelson\AppData\Local\Temp\ccgC0n3g.s 			page 32


 106              		.loc 1 1662 0
 107 004c 1C48     		ldr	r0, .L18+20
 108 004e 0078     		ldrb	r0, [r0]	@ zero_extendqisi2
 109              	.LVL12:
 110 0050 08E0     		b	.L3
 111              	.LVL13:
 112              	.L8:
1663:Generated_Source\PSoC5/ADC_DelSig.c ****                 }
1664:Generated_Source\PSoC5/ADC_DelSig.c ****                 break;
1665:Generated_Source\PSoC5/ADC_DelSig.c **** 
1666:Generated_Source\PSoC5/ADC_DelSig.c ****             case ADC_DelSig_IR_VNEG_VREF_16_DIFF:
1667:Generated_Source\PSoC5/ADC_DelSig.c ****                 /* Normalize the flash Value */
1668:Generated_Source\PSoC5/ADC_DelSig.c ****                 if(resolution > 15u)
 113              		.loc 1 1668 0
 114 0052 0F2B     		cmp	r3, #15
 115 0054 02D9     		bls	.L12
1669:Generated_Source\PSoC5/ADC_DelSig.c ****                 {
1670:Generated_Source\PSoC5/ADC_DelSig.c ****                     flash = ADC_DelSig_DEC_TRIM_VREF_16_DIFF_16_20;
 116              		.loc 1 1670 0
 117 0056 1B48     		ldr	r0, .L18+24
 118 0058 0078     		ldrb	r0, [r0]	@ zero_extendqisi2
 119              	.LVL14:
 120 005a 03E0     		b	.L3
 121              	.LVL15:
 122              	.L12:
1671:Generated_Source\PSoC5/ADC_DelSig.c ****                 }
1672:Generated_Source\PSoC5/ADC_DelSig.c ****                 else
1673:Generated_Source\PSoC5/ADC_DelSig.c ****                 {
1674:Generated_Source\PSoC5/ADC_DelSig.c ****                     flash = ADC_DelSig_DEC_TRIM_VREF_16_DIFF_8_15;
 123              		.loc 1 1674 0
 124 005c 1A48     		ldr	r0, .L18+28
 125 005e 0078     		ldrb	r0, [r0]	@ zero_extendqisi2
 126              	.LVL16:
 127 0060 00E0     		b	.L3
 128              	.LVL17:
 129              	.L16:
1675:Generated_Source\PSoC5/ADC_DelSig.c ****                 }
1676:Generated_Source\PSoC5/ADC_DelSig.c ****                 break;
1677:Generated_Source\PSoC5/ADC_DelSig.c **** 
1678:Generated_Source\PSoC5/ADC_DelSig.c ****             default:
1679:Generated_Source\PSoC5/ADC_DelSig.c ****                 flash = 0;
 130              		.loc 1 1679 0
 131 0062 0020     		movs	r0, #0
 132              	.L3:
 133              	.LVL18:
1680:Generated_Source\PSoC5/ADC_DelSig.c ****                 break;
1681:Generated_Source\PSoC5/ADC_DelSig.c ****         }
1682:Generated_Source\PSoC5/ADC_DelSig.c **** 
1683:Generated_Source\PSoC5/ADC_DelSig.c ****         /* Add two values */
1684:Generated_Source\PSoC5/ADC_DelSig.c **** 		normalised = (int32)idealDecGain + ((int32)flash * 32);
 134              		.loc 1 1684 0
 135 0064 40B2     		sxtb	r0, r0
 136 0066 01EB4011 		add	r1, r1, r0, lsl #5
 137              	.LVL19:
1685:Generated_Source\PSoC5/ADC_DelSig.c ****         gcorTmp = (uint32)normalised * (uint32)idealOddDecGain;
 138              		.loc 1 1685 0
 139 006a 01FB02F2 		mul	r2, r1, r2
ARM GAS  C:\Users\Nelson\AppData\Local\Temp\ccgC0n3g.s 			page 33


 140              	.LVL20:
1686:Generated_Source\PSoC5/ADC_DelSig.c ****         gcorValue = (uint16)(gcorTmp / ADC_DelSig_IDEAL_GAIN_CONST);
 141              		.loc 1 1686 0
 142 006e D20B     		lsrs	r2, r2, #15
 143              	.LVL21:
 144 0070 91B2     		uxth	r1, r2
 145              	.LVL22:
1687:Generated_Source\PSoC5/ADC_DelSig.c **** 
1688:Generated_Source\PSoC5/ADC_DelSig.c ****         if (resolution < (ADC_DelSig_MAX_GVAL - 1u))
 146              		.loc 1 1688 0
 147 0072 0D2B     		cmp	r3, #13
 148 0074 0BD8     		bhi	.L13
1689:Generated_Source\PSoC5/ADC_DelSig.c ****         {
1690:Generated_Source\PSoC5/ADC_DelSig.c ****             gcorValue = (gcorValue >> (ADC_DelSig_MAX_GVAL - (resolution + 1u)));
 149              		.loc 1 1690 0
 150 0076 C3F10E01 		rsb	r1, r3, #14
 151              	.LVL23:
 152 007a 92B2     		uxth	r2, r2
 153 007c 0A41     		asrs	r2, r2, r1
 154              	.LVL24:
 155 007e 91B2     		uxth	r1, r2
 156              	.LVL25:
1691:Generated_Source\PSoC5/ADC_DelSig.c ****             ADC_DelSig_gcor[config - 1u].gval = (resolution + 1u);
 157              		.loc 1 1691 0
 158 0080 124A     		ldr	r2, .L18+32
 159 0082 02EB8402 		add	r2, r2, r4, lsl #2
 160 0086 0133     		adds	r3, r3, #1
 161              	.LVL26:
 162 0088 02F8023C 		strb	r3, [r2, #-2]
 163 008c 05E0     		b	.L14
 164              	.LVL27:
 165              	.L13:
1692:Generated_Source\PSoC5/ADC_DelSig.c ****         }
1693:Generated_Source\PSoC5/ADC_DelSig.c ****         else
1694:Generated_Source\PSoC5/ADC_DelSig.c ****         {
1695:Generated_Source\PSoC5/ADC_DelSig.c ****             /* Use all 16 bits */
1696:Generated_Source\PSoC5/ADC_DelSig.c ****             ADC_DelSig_gcor[config - 1u].gval = ADC_DelSig_MAX_GVAL;
 166              		.loc 1 1696 0
 167 008e 0F4B     		ldr	r3, .L18+32
 168              	.LVL28:
 169 0090 03EB8403 		add	r3, r3, r4, lsl #2
 170 0094 0F22     		movs	r2, #15
 171 0096 03F8022C 		strb	r2, [r3, #-2]
 172              	.L14:
1697:Generated_Source\PSoC5/ADC_DelSig.c ****         }
1698:Generated_Source\PSoC5/ADC_DelSig.c **** 
1699:Generated_Source\PSoC5/ADC_DelSig.c ****         /* Save the gain correction register value */
1700:Generated_Source\PSoC5/ADC_DelSig.c ****         ADC_DelSig_gcor[config - 1u].gcor = gcorValue;
 173              		.loc 1 1700 0
 174 009a 013C     		subs	r4, r4, #1
 175 009c 0B4B     		ldr	r3, .L18+32
 176 009e 23F82410 		strh	r1, [r3, r4, lsl #2]	@ movhi
 177 00a2 38BD     		pop	{r3, r4, r5, pc}
 178              	.LVL29:
 179              	.L2:
1701:Generated_Source\PSoC5/ADC_DelSig.c ****     }
1702:Generated_Source\PSoC5/ADC_DelSig.c ****     else
ARM GAS  C:\Users\Nelson\AppData\Local\Temp\ccgC0n3g.s 			page 34


1703:Generated_Source\PSoC5/ADC_DelSig.c ****     {
1704:Generated_Source\PSoC5/ADC_DelSig.c ****         /* Halt CPU in debug mode if config is out of valid range */
1705:Generated_Source\PSoC5/ADC_DelSig.c ****         CYASSERT(0u != 0u);
 180              		.loc 1 1705 0 discriminator 1
 181 00a4 0020     		movs	r0, #0
 182              	.LVL30:
 183 00a6 FFF7FEFF 		bl	CyHalt
 184              	.LVL31:
 185 00aa 38BD     		pop	{r3, r4, r5, pc}
 186              	.LVL32:
 187              	.L19:
 188              		.align	2
 189              	.L18:
 190 00ac 18010049 		.word	1224737048
 191 00b0 1C010049 		.word	1224737052
 192 00b4 19010049 		.word	1224737049
 193 00b8 1D010049 		.word	1224737053
 194 00bc 1A010049 		.word	1224737050
 195 00c0 1E010049 		.word	1224737054
 196 00c4 1B010049 		.word	1224737051
 197 00c8 1F010049 		.word	1224737055
 198 00cc 00000000 		.word	.LANCHOR0
 199              		.cfi_endproc
 200              	.LFE21:
 201              		.size	ADC_DelSig_GainCompensation, .-ADC_DelSig_GainCompensation
 202              		.section	.text.ADC_DelSig_SetDSMRef0Reg,"ax",%progbits
 203              		.align	2
 204              		.thumb
 205              		.thumb_func
 206              		.type	ADC_DelSig_SetDSMRef0Reg, %function
 207              	ADC_DelSig_SetDSMRef0Reg:
 208              	.LFB22:
1706:Generated_Source\PSoC5/ADC_DelSig.c ****     }
1707:Generated_Source\PSoC5/ADC_DelSig.c **** }
1708:Generated_Source\PSoC5/ADC_DelSig.c **** 
1709:Generated_Source\PSoC5/ADC_DelSig.c **** 
1710:Generated_Source\PSoC5/ADC_DelSig.c **** /******************************************************************************
1711:Generated_Source\PSoC5/ADC_DelSig.c **** * Function Name: ADC_DelSig_SetDSMRef0Reg(uint8)
1712:Generated_Source\PSoC5/ADC_DelSig.c **** ******************************************************************************
1713:Generated_Source\PSoC5/ADC_DelSig.c **** *
1714:Generated_Source\PSoC5/ADC_DelSig.c **** * Summary:
1715:Generated_Source\PSoC5/ADC_DelSig.c **** *  This API sets the DSM_REF0 register. This is written for internal use.
1716:Generated_Source\PSoC5/ADC_DelSig.c **** *
1717:Generated_Source\PSoC5/ADC_DelSig.c **** * Parameters:
1718:Generated_Source\PSoC5/ADC_DelSig.c **** *  value:  Value to be written to DSM_REF0 register.
1719:Generated_Source\PSoC5/ADC_DelSig.c **** *
1720:Generated_Source\PSoC5/ADC_DelSig.c **** * Return:
1721:Generated_Source\PSoC5/ADC_DelSig.c **** *  None
1722:Generated_Source\PSoC5/ADC_DelSig.c **** *
1723:Generated_Source\PSoC5/ADC_DelSig.c **** ******************************************************************************/
1724:Generated_Source\PSoC5/ADC_DelSig.c **** static void ADC_DelSig_SetDSMRef0Reg(uint8 value) 
1725:Generated_Source\PSoC5/ADC_DelSig.c **** {
 209              		.loc 1 1725 0
 210              		.cfi_startproc
 211              		@ args = 0, pretend = 0, frame = 0
 212              		@ frame_needed = 0, uses_anonymous_args = 0
 213              	.LVL33:
ARM GAS  C:\Users\Nelson\AppData\Local\Temp\ccgC0n3g.s 			page 35


 214 0000 F8B5     		push	{r3, r4, r5, r6, r7, lr}
 215              		.cfi_def_cfa_offset 24
 216              		.cfi_offset 3, -24
 217              		.cfi_offset 4, -20
 218              		.cfi_offset 5, -16
 219              		.cfi_offset 6, -12
 220              		.cfi_offset 7, -8
 221              		.cfi_offset 14, -4
 222 0002 0746     		mov	r7, r0
1726:Generated_Source\PSoC5/ADC_DelSig.c ****     uint8 enableInterrupts;
1727:Generated_Source\PSoC5/ADC_DelSig.c ****     enableInterrupts = CyEnterCriticalSection();
 223              		.loc 1 1727 0
 224 0004 FFF7FEFF 		bl	CyEnterCriticalSection
 225              	.LVL34:
 226 0008 0646     		mov	r6, r0
 227              	.LVL35:
1728:Generated_Source\PSoC5/ADC_DelSig.c **** 
1729:Generated_Source\PSoC5/ADC_DelSig.c ****     /* Disable PRES, Enable power to VCMBUF0, REFBUF0 and REFBUF1, enable PRES */
1730:Generated_Source\PSoC5/ADC_DelSig.c ****     ADC_DelSig_RESET_CR4_REG |= (ADC_DelSig_IGNORE_PRESA1 | ADC_DelSig_IGNORE_PRESD1);
 228              		.loc 1 1730 0
 229 000a 0D4D     		ldr	r5, .L22
 230 000c 2B78     		ldrb	r3, [r5]	@ zero_extendqisi2
 231 000e 43F00303 		orr	r3, r3, #3
 232 0012 2B70     		strb	r3, [r5]
1731:Generated_Source\PSoC5/ADC_DelSig.c ****     ADC_DelSig_RESET_CR5_REG |= (ADC_DelSig_IGNORE_PRESA2 | ADC_DelSig_IGNORE_PRESD2);
 233              		.loc 1 1731 0
 234 0014 0B4C     		ldr	r4, .L22+4
 235 0016 2378     		ldrb	r3, [r4]	@ zero_extendqisi2
 236 0018 43F00303 		orr	r3, r3, #3
 237 001c 2370     		strb	r3, [r4]
1732:Generated_Source\PSoC5/ADC_DelSig.c ****     ADC_DelSig_DSM_REF0_REG = value;
 238              		.loc 1 1732 0
 239 001e 0A4B     		ldr	r3, .L22+8
 240 0020 1F70     		strb	r7, [r3]
1733:Generated_Source\PSoC5/ADC_DelSig.c **** 
1734:Generated_Source\PSoC5/ADC_DelSig.c ****     /* Wait for 3 microseconds */
1735:Generated_Source\PSoC5/ADC_DelSig.c ****     CyDelayUs(ADC_DelSig_PRES_DELAY_TIME);
 241              		.loc 1 1735 0
 242 0022 0320     		movs	r0, #3
 243 0024 FFF7FEFF 		bl	CyDelayUs
 244              	.LVL36:
1736:Generated_Source\PSoC5/ADC_DelSig.c ****     /* Enable the press circuit */
1737:Generated_Source\PSoC5/ADC_DelSig.c ****     ADC_DelSig_RESET_CR4_REG &= (uint8)~(ADC_DelSig_IGNORE_PRESA1 | ADC_DelSig_IGNORE_PRESD1);
 245              		.loc 1 1737 0
 246 0028 2B78     		ldrb	r3, [r5]	@ zero_extendqisi2
 247 002a 03F0FC03 		and	r3, r3, #252
 248 002e 2B70     		strb	r3, [r5]
1738:Generated_Source\PSoC5/ADC_DelSig.c ****     ADC_DelSig_RESET_CR5_REG &= (uint8)~(ADC_DelSig_IGNORE_PRESA2 | ADC_DelSig_IGNORE_PRESD2);
 249              		.loc 1 1738 0
 250 0030 2378     		ldrb	r3, [r4]	@ zero_extendqisi2
 251 0032 03F0FC03 		and	r3, r3, #252
 252 0036 2370     		strb	r3, [r4]
1739:Generated_Source\PSoC5/ADC_DelSig.c **** 
1740:Generated_Source\PSoC5/ADC_DelSig.c ****     CyExitCriticalSection(enableInterrupts);
 253              		.loc 1 1740 0
 254 0038 3046     		mov	r0, r6
 255 003a FFF7FEFF 		bl	CyExitCriticalSection
ARM GAS  C:\Users\Nelson\AppData\Local\Temp\ccgC0n3g.s 			page 36


 256              	.LVL37:
 257 003e F8BD     		pop	{r3, r4, r5, r6, r7, pc}
 258              	.LVL38:
 259              	.L23:
 260              		.align	2
 261              	.L22:
 262 0040 F8460040 		.word	1073759992
 263 0044 F9460040 		.word	1073759993
 264 0048 92580040 		.word	1073764498
 265              		.cfi_endproc
 266              	.LFE22:
 267              		.size	ADC_DelSig_SetDSMRef0Reg, .-ADC_DelSig_SetDSMRef0Reg
 268              		.section	.text.ADC_DelSig_InitConfig,"ax",%progbits
 269              		.align	2
 270              		.thumb
 271              		.thumb_func
 272              		.type	ADC_DelSig_InitConfig, %function
 273              	ADC_DelSig_InitConfig:
 274              	.LFB19:
1243:Generated_Source\PSoC5/ADC_DelSig.c ****     ADC_DelSig_stopConversion = 0u;
 275              		.loc 1 1243 0
 276              		.cfi_startproc
 277              		@ args = 0, pretend = 0, frame = 0
 278              		@ frame_needed = 0, uses_anonymous_args = 0
 279              	.LVL39:
 280 0000 F8B5     		push	{r3, r4, r5, r6, r7, lr}
 281              		.cfi_def_cfa_offset 24
 282              		.cfi_offset 3, -24
 283              		.cfi_offset 4, -20
 284              		.cfi_offset 5, -16
 285              		.cfi_offset 6, -12
 286              		.cfi_offset 7, -8
 287              		.cfi_offset 14, -4
 288 0002 0446     		mov	r4, r0
1244:Generated_Source\PSoC5/ADC_DelSig.c **** 
 289              		.loc 1 1244 0
 290 0004 0022     		movs	r2, #0
 291 0006 C04B     		ldr	r3, .L30
 292 0008 1A74     		strb	r2, [r3, #16]
1246:Generated_Source\PSoC5/ADC_DelSig.c ****     {
 293              		.loc 1 1246 0
 294 000a 0128     		cmp	r0, #1
 295 000c 5BD1     		bne	.L25
1249:Generated_Source\PSoC5/ADC_DelSig.c ****         ADC_DelSig_DEC_SHIFT1_REG  = ADC_DelSig_CFG1_DEC_SHIFT1;
 296              		.loc 1 1249 0
 297 000e 3822     		movs	r2, #56
 298 0010 BE4B     		ldr	r3, .L30+4
 299 0012 1A70     		strb	r2, [r3]
1250:Generated_Source\PSoC5/ADC_DelSig.c ****         ADC_DelSig_DEC_SHIFT2_REG  = ADC_DelSig_CFG1_DEC_SHIFT2;
 300              		.loc 1 1250 0
 301 0014 0422     		movs	r2, #4
 302 0016 0233     		adds	r3, r3, #2
 303 0018 1A70     		strb	r2, [r3]
1251:Generated_Source\PSoC5/ADC_DelSig.c ****         ADC_DelSig_DEC_DR2_REG     = ADC_DelSig_CFG1_DEC_DR2;
 304              		.loc 1 1251 0
 305 001a 0622     		movs	r2, #6
 306 001c 0133     		adds	r3, r3, #1
ARM GAS  C:\Users\Nelson\AppData\Local\Temp\ccgC0n3g.s 			page 37


 307 001e 1A70     		strb	r2, [r3]
1252:Generated_Source\PSoC5/ADC_DelSig.c ****         ADC_DelSig_DEC_DR2H_REG    = ADC_DelSig_CFG1_DEC_DR2H;
 308              		.loc 1 1252 0
 309 0020 0025     		movs	r5, #0
 310 0022 0133     		adds	r3, r3, #1
 311 0024 1D70     		strb	r5, [r3]
1253:Generated_Source\PSoC5/ADC_DelSig.c ****         ADC_DelSig_DEC_DR1_REG     = ADC_DelSig_CFG1_DEC_DR1;
 312              		.loc 1 1253 0
 313 0026 0133     		adds	r3, r3, #1
 314 0028 1D70     		strb	r5, [r3]
1254:Generated_Source\PSoC5/ADC_DelSig.c ****         ADC_DelSig_DEC_OCOR_REG    = ADC_DelSig_CFG1_DEC_OCOR;
 315              		.loc 1 1254 0
 316 002a 0F22     		movs	r2, #15
 317 002c 0133     		adds	r3, r3, #1
 318 002e 1A70     		strb	r2, [r3]
1255:Generated_Source\PSoC5/ADC_DelSig.c ****         ADC_DelSig_DEC_OCORM_REG   = ADC_DelSig_CFG1_DEC_OCORM;
 319              		.loc 1 1255 0
 320 0030 0233     		adds	r3, r3, #2
 321 0032 1D70     		strb	r5, [r3]
1256:Generated_Source\PSoC5/ADC_DelSig.c ****         ADC_DelSig_DEC_OCORH_REG   = ADC_DelSig_CFG1_DEC_OCORH;
 322              		.loc 1 1256 0
 323 0034 0133     		adds	r3, r3, #1
 324 0036 1D70     		strb	r5, [r3]
1257:Generated_Source\PSoC5/ADC_DelSig.c ****         ADC_DelSig_DEC_COHER_REG   = ADC_DelSig_CFG1_DEC_COHER;
 325              		.loc 1 1257 0
 326 0038 0133     		adds	r3, r3, #1
 327 003a 1D70     		strb	r5, [r3]
1258:Generated_Source\PSoC5/ADC_DelSig.c **** 
 328              		.loc 1 1258 0
 329 003c 0126     		movs	r6, #1
 330 003e 0A33     		adds	r3, r3, #10
 331 0040 1E70     		strb	r6, [r3]
1260:Generated_Source\PSoC5/ADC_DelSig.c ****         ADC_DelSig_DSM_CR5_REG     = ADC_DelSig_CFG1_DSM_CR5;
 332              		.loc 1 1260 0
 333 0042 1422     		movs	r2, #20
 334 0044 03F52763 		add	r3, r3, #2672
 335 0048 1A70     		strb	r2, [r3]
1261:Generated_Source\PSoC5/ADC_DelSig.c ****         ADC_DelSig_DSM_CR6_REG     = ADC_DelSig_CFG1_DSM_CR6;
 336              		.loc 1 1261 0
 337 004a 0527     		movs	r7, #5
 338 004c 0133     		adds	r3, r3, #1
 339 004e 1F70     		strb	r7, [r3]
1262:Generated_Source\PSoC5/ADC_DelSig.c ****         ADC_DelSig_DSM_CR7_REG     = ADC_DelSig_CFG1_DSM_CR7;
 340              		.loc 1 1262 0
 341 0050 1622     		movs	r2, #22
 342 0052 0133     		adds	r3, r3, #1
 343 0054 1A70     		strb	r2, [r3]
1263:Generated_Source\PSoC5/ADC_DelSig.c ****         ADC_DelSig_DSM_CR10_REG    = ADC_DelSig_CFG1_DSM_CR10;
 344              		.loc 1 1263 0
 345 0056 0133     		adds	r3, r3, #1
 346 0058 1D70     		strb	r5, [r3]
1264:Generated_Source\PSoC5/ADC_DelSig.c ****         ADC_DelSig_DSM_CR11_REG    = ADC_DelSig_CFG1_DSM_CR11;
 347              		.loc 1 1264 0
 348 005a 4422     		movs	r2, #68
 349 005c 0333     		adds	r3, r3, #3
 350 005e 1A70     		strb	r2, [r3]
1265:Generated_Source\PSoC5/ADC_DelSig.c ****         ADC_DelSig_DSM_CR12_REG    = ADC_DelSig_CFG1_DSM_CR12;
ARM GAS  C:\Users\Nelson\AppData\Local\Temp\ccgC0n3g.s 			page 38


 351              		.loc 1 1265 0
 352 0060 4822     		movs	r2, #72
 353 0062 0133     		adds	r3, r3, #1
 354 0064 1A70     		strb	r2, [r3]
1266:Generated_Source\PSoC5/ADC_DelSig.c ****         ADC_DelSig_DSM_CR14_REG    = ADC_DelSig_CFG1_DSM_CR14;
 355              		.loc 1 1266 0
 356 0066 0133     		adds	r3, r3, #1
 357 0068 1E70     		strb	r6, [r3]
1267:Generated_Source\PSoC5/ADC_DelSig.c ****         ADC_DelSig_DSM_CR15_REG    = ADC_DelSig_CFG1_DSM_CR15;
 358              		.loc 1 1267 0
 359 006a 0233     		adds	r3, r3, #2
 360 006c 1E70     		strb	r6, [r3]
1268:Generated_Source\PSoC5/ADC_DelSig.c ****         ADC_DelSig_DSM_CR16_REG    = ADC_DelSig_CFG1_DSM_CR16;
 361              		.loc 1 1268 0
 362 006e 1122     		movs	r2, #17
 363 0070 0133     		adds	r3, r3, #1
 364 0072 1A70     		strb	r2, [r3]
1269:Generated_Source\PSoC5/ADC_DelSig.c ****         ADC_DelSig_DSM_CR17_REG    = ADC_DelSig_CFG1_DSM_CR17;
 365              		.loc 1 1269 0
 366 0074 1922     		movs	r2, #25
 367 0076 0133     		adds	r3, r3, #1
 368 0078 1A70     		strb	r2, [r3]
1270:Generated_Source\PSoC5/ADC_DelSig.c ****         /* Set DSM_REF0_REG by disabling and enabling the PRESS circuit */
 369              		.loc 1 1270 0
 370 007a 9722     		movs	r2, #151
 371 007c 0133     		adds	r3, r3, #1
 372 007e 1A70     		strb	r2, [r3]
1272:Generated_Source\PSoC5/ADC_DelSig.c ****         ADC_DelSig_DSM_REF2_REG    = ADC_DelSig_CFG1_DSM_REF2;
 373              		.loc 1 1272 0
 374 0080 5220     		movs	r0, #82
 375              	.LVL40:
 376 0082 FFF7FEFF 		bl	ADC_DelSig_SetDSMRef0Reg
 377              	.LVL41:
1273:Generated_Source\PSoC5/ADC_DelSig.c ****         ADC_DelSig_DSM_REF3_REG    = ADC_DelSig_CFG1_DSM_REF3;
 378              		.loc 1 1273 0
 379 0086 5822     		movs	r2, #88
 380 0088 A14B     		ldr	r3, .L30+8
 381 008a 1A70     		strb	r2, [r3]
1274:Generated_Source\PSoC5/ADC_DelSig.c **** 
 382              		.loc 1 1274 0
 383 008c 0133     		adds	r3, r3, #1
 384 008e 1D70     		strb	r5, [r3]
1276:Generated_Source\PSoC5/ADC_DelSig.c ****         ADC_DelSig_DSM_BUF1_REG    = ADC_DelSig_CFG1_DSM_BUF1;
 385              		.loc 1 1276 0
 386 0090 0533     		adds	r3, r3, #5
 387 0092 1F70     		strb	r7, [r3]
1277:Generated_Source\PSoC5/ADC_DelSig.c ****         ADC_DelSig_DSM_BUF2_REG    = ADC_DelSig_CFG1_DSM_BUF2;
 388              		.loc 1 1277 0
 389 0094 0222     		movs	r2, #2
 390 0096 0133     		adds	r3, r3, #1
 391 0098 1A70     		strb	r2, [r3]
1278:Generated_Source\PSoC5/ADC_DelSig.c ****         ADC_DelSig_DSM_BUF3_REG    = ADC_DelSig_CFG1_DSM_BUF3;
 392              		.loc 1 1278 0
 393 009a 0133     		adds	r3, r3, #1
 394 009c 1D70     		strb	r5, [r3]
1279:Generated_Source\PSoC5/ADC_DelSig.c **** 
 395              		.loc 1 1279 0
ARM GAS  C:\Users\Nelson\AppData\Local\Temp\ccgC0n3g.s 			page 39


 396 009e 0133     		adds	r3, r3, #1
 397 00a0 1D70     		strb	r5, [r3]
1288:Generated_Source\PSoC5/ADC_DelSig.c ****             #endif /* ADC_DelSig_IR_VSSA_TO_2VREF) */
 398              		.loc 1 1288 0
 399 00a2 2846     		mov	r0, r5
 400 00a4 FFF7FEFF 		bl	ADC_DelSig_AMux_Select
 401              	.LVL42:
1300:Generated_Source\PSoC5/ADC_DelSig.c **** 
 402              		.loc 1 1300 0
 403 00a8 3322     		movs	r2, #51
 404 00aa 9A4B     		ldr	r3, .L30+12
 405 00ac 1A60     		str	r2, [r3]
1302:Generated_Source\PSoC5/ADC_DelSig.c **** 
 406              		.loc 1 1302 0
 407 00ae 2420     		movs	r0, #36
 408 00b0 3146     		mov	r1, r6
 409 00b2 FFF7FEFF 		bl	ADC_DelSig_Ext_CP_Clk_SetDividerRegister
 410              	.LVL43:
1306:Generated_Source\PSoC5/ADC_DelSig.c ****         #endif /* ADC_DelSig_DEFAULT_INTERNAL_CLK */
 411              		.loc 1 1306 0
 412 00b6 9520     		movs	r0, #149
 413 00b8 3146     		mov	r1, r6
 414 00ba FFF7FEFF 		bl	ADC_DelSig_theACLK_SetDividerRegister
 415              	.LVL44:
1311:Generated_Source\PSoC5/ADC_DelSig.c ****         #endif   /* End ADC_DelSig_IRQ_REMOVE */
 416              		.loc 1 1311 0
 417 00be 1D20     		movs	r0, #29
 418 00c0 9549     		ldr	r1, .L30+16
 419 00c2 FFF7FEFF 		bl	CyIntSetVector
 420              	.LVL45:
 421              	.L25:
1316:Generated_Source\PSoC5/ADC_DelSig.c ****         {
 422              		.loc 1 1316 0
 423 00c6 022C     		cmp	r4, #2
 424 00c8 5DD1     		bne	.L26
1319:Generated_Source\PSoC5/ADC_DelSig.c ****             ADC_DelSig_DEC_SHIFT1_REG  = ADC_DelSig_CFG2_DEC_SHIFT1;
 425              		.loc 1 1319 0
 426 00ca 3822     		movs	r2, #56
 427 00cc 8F4B     		ldr	r3, .L30+4
 428 00ce 1A70     		strb	r2, [r3]
1320:Generated_Source\PSoC5/ADC_DelSig.c ****             ADC_DelSig_DEC_SHIFT2_REG  = ADC_DelSig_CFG2_DEC_SHIFT2;
 429              		.loc 1 1320 0
 430 00d0 0422     		movs	r2, #4
 431 00d2 0233     		adds	r3, r3, #2
 432 00d4 1A70     		strb	r2, [r3]
1321:Generated_Source\PSoC5/ADC_DelSig.c ****             ADC_DelSig_DEC_DR2_REG     = ADC_DelSig_CFG2_DEC_DR2;
 433              		.loc 1 1321 0
 434 00d6 0622     		movs	r2, #6
 435 00d8 0133     		adds	r3, r3, #1
 436 00da 1A70     		strb	r2, [r3]
1322:Generated_Source\PSoC5/ADC_DelSig.c ****             ADC_DelSig_DEC_DR2H_REG    = ADC_DelSig_CFG2_DEC_DR2H;
 437              		.loc 1 1322 0
 438 00dc 0025     		movs	r5, #0
 439 00de 0133     		adds	r3, r3, #1
 440 00e0 1D70     		strb	r5, [r3]
1323:Generated_Source\PSoC5/ADC_DelSig.c ****             ADC_DelSig_DEC_DR1_REG     = ADC_DelSig_CFG2_DEC_DR1;
 441              		.loc 1 1323 0
ARM GAS  C:\Users\Nelson\AppData\Local\Temp\ccgC0n3g.s 			page 40


 442 00e2 0133     		adds	r3, r3, #1
 443 00e4 1D70     		strb	r5, [r3]
1324:Generated_Source\PSoC5/ADC_DelSig.c ****             ADC_DelSig_DEC_OCOR_REG    = ADC_DelSig_CFG2_DEC_OCOR;
 444              		.loc 1 1324 0
 445 00e6 3F22     		movs	r2, #63
 446 00e8 0133     		adds	r3, r3, #1
 447 00ea 1A70     		strb	r2, [r3]
1325:Generated_Source\PSoC5/ADC_DelSig.c ****             ADC_DelSig_DEC_OCORM_REG   = ADC_DelSig_CFG2_DEC_OCORM;
 448              		.loc 1 1325 0
 449 00ec 0233     		adds	r3, r3, #2
 450 00ee 1D70     		strb	r5, [r3]
1326:Generated_Source\PSoC5/ADC_DelSig.c ****             ADC_DelSig_DEC_OCORH_REG   = ADC_DelSig_CFG2_DEC_OCORH;
 451              		.loc 1 1326 0
 452 00f0 0133     		adds	r3, r3, #1
 453 00f2 1D70     		strb	r5, [r3]
1327:Generated_Source\PSoC5/ADC_DelSig.c ****             ADC_DelSig_DEC_COHER_REG   = ADC_DelSig_CFG2_DEC_COHER;
 454              		.loc 1 1327 0
 455 00f4 0133     		adds	r3, r3, #1
 456 00f6 1D70     		strb	r5, [r3]
1328:Generated_Source\PSoC5/ADC_DelSig.c **** 
 457              		.loc 1 1328 0
 458 00f8 0126     		movs	r6, #1
 459 00fa 0A33     		adds	r3, r3, #10
 460 00fc 1E70     		strb	r6, [r3]
1330:Generated_Source\PSoC5/ADC_DelSig.c ****             ADC_DelSig_DSM_CR5_REG     = ADC_DelSig_CFG2_DSM_CR5;
 461              		.loc 1 1330 0
 462 00fe 5022     		movs	r2, #80
 463 0100 03F52763 		add	r3, r3, #2672
 464 0104 1A70     		strb	r2, [r3]
1331:Generated_Source\PSoC5/ADC_DelSig.c ****             ADC_DelSig_DSM_CR6_REG     = ADC_DelSig_CFG2_DSM_CR6;
 465              		.loc 1 1331 0
 466 0106 2722     		movs	r2, #39
 467 0108 0133     		adds	r3, r3, #1
 468 010a 1A70     		strb	r2, [r3]
1332:Generated_Source\PSoC5/ADC_DelSig.c ****             ADC_DelSig_DSM_CR7_REG     = ADC_DelSig_CFG2_DSM_CR7;
 469              		.loc 1 1332 0
 470 010c 2C22     		movs	r2, #44
 471 010e 0133     		adds	r3, r3, #1
 472 0110 1A70     		strb	r2, [r3]
1333:Generated_Source\PSoC5/ADC_DelSig.c ****             ADC_DelSig_DSM_CR10_REG    = ADC_DelSig_CFG2_DSM_CR10;
 473              		.loc 1 1333 0
 474 0112 0133     		adds	r3, r3, #1
 475 0114 1D70     		strb	r5, [r3]
1334:Generated_Source\PSoC5/ADC_DelSig.c ****             ADC_DelSig_DSM_CR11_REG    = ADC_DelSig_CFG2_DSM_CR11;
 476              		.loc 1 1334 0
 477 0116 5522     		movs	r2, #85
 478 0118 0333     		adds	r3, r3, #3
 479 011a 1A70     		strb	r2, [r3]
1335:Generated_Source\PSoC5/ADC_DelSig.c ****             ADC_DelSig_DSM_CR12_REG    = ADC_DelSig_CFG2_DSM_CR12;
 480              		.loc 1 1335 0
 481 011c 5A22     		movs	r2, #90
 482 011e 0133     		adds	r3, r3, #1
 483 0120 1A70     		strb	r2, [r3]
1336:Generated_Source\PSoC5/ADC_DelSig.c ****             ADC_DelSig_DSM_CR14_REG    = ADC_DelSig_CFG2_DSM_CR14;
 484              		.loc 1 1336 0
 485 0122 0527     		movs	r7, #5
 486 0124 0133     		adds	r3, r3, #1
ARM GAS  C:\Users\Nelson\AppData\Local\Temp\ccgC0n3g.s 			page 41


 487 0126 1F70     		strb	r7, [r3]
1337:Generated_Source\PSoC5/ADC_DelSig.c ****             ADC_DelSig_DSM_CR15_REG    = ADC_DelSig_CFG2_DSM_CR15;
 488              		.loc 1 1337 0
 489 0128 0233     		adds	r3, r3, #2
 490 012a 1E70     		strb	r6, [r3]
1338:Generated_Source\PSoC5/ADC_DelSig.c ****             ADC_DelSig_DSM_CR16_REG    = ADC_DelSig_CFG2_DSM_CR16;
 491              		.loc 1 1338 0
 492 012c 1122     		movs	r2, #17
 493 012e 0133     		adds	r3, r3, #1
 494 0130 1A70     		strb	r2, [r3]
1339:Generated_Source\PSoC5/ADC_DelSig.c ****             ADC_DelSig_DSM_CR17_REG    = ADC_DelSig_CFG2_DSM_CR17;
 495              		.loc 1 1339 0
 496 0132 1922     		movs	r2, #25
 497 0134 0133     		adds	r3, r3, #1
 498 0136 1A70     		strb	r2, [r3]
1340:Generated_Source\PSoC5/ADC_DelSig.c ****             /* Set DSM_REF0_REG by disabling and enabling the PRESS cirucit */
 499              		.loc 1 1340 0
 500 0138 9722     		movs	r2, #151
 501 013a 0133     		adds	r3, r3, #1
 502 013c 1A70     		strb	r2, [r3]
1342:Generated_Source\PSoC5/ADC_DelSig.c ****             ADC_DelSig_DSM_REF2_REG    = ADC_DelSig_CFG2_DSM_REF2;
 503              		.loc 1 1342 0
 504 013e 4420     		movs	r0, #68
 505 0140 FFF7FEFF 		bl	ADC_DelSig_SetDSMRef0Reg
 506              	.LVL46:
1343:Generated_Source\PSoC5/ADC_DelSig.c ****             ADC_DelSig_DSM_REF3_REG    = ADC_DelSig_CFG2_DSM_REF3;
 507              		.loc 1 1343 0
 508 0144 5822     		movs	r2, #88
 509 0146 724B     		ldr	r3, .L30+8
 510 0148 1A70     		strb	r2, [r3]
1344:Generated_Source\PSoC5/ADC_DelSig.c **** 
 511              		.loc 1 1344 0
 512 014a 0133     		adds	r3, r3, #1
 513 014c 1D70     		strb	r5, [r3]
1346:Generated_Source\PSoC5/ADC_DelSig.c ****             ADC_DelSig_DSM_BUF1_REG    = ADC_DelSig_CFG2_DSM_BUF1;
 514              		.loc 1 1346 0
 515 014e 0533     		adds	r3, r3, #5
 516 0150 1F70     		strb	r7, [r3]
1347:Generated_Source\PSoC5/ADC_DelSig.c ****             ADC_DelSig_DSM_BUF2_REG    = ADC_DelSig_CFG2_DSM_BUF2;
 517              		.loc 1 1347 0
 518 0152 0222     		movs	r2, #2
 519 0154 0133     		adds	r3, r3, #1
 520 0156 1A70     		strb	r2, [r3]
1348:Generated_Source\PSoC5/ADC_DelSig.c ****             ADC_DelSig_DSM_BUF3_REG    = ADC_DelSig_CFG2_DSM_BUF3;
 521              		.loc 1 1348 0
 522 0158 0133     		adds	r3, r3, #1
 523 015a 1D70     		strb	r5, [r3]
1349:Generated_Source\PSoC5/ADC_DelSig.c **** 
 524              		.loc 1 1349 0
 525 015c 0133     		adds	r3, r3, #1
 526 015e 1D70     		strb	r5, [r3]
1359:Generated_Source\PSoC5/ADC_DelSig.c ****                 #endif /* ADC_DelSig_IR_VSSA_TO_2VREF) */
 527              		.loc 1 1359 0
 528 0160 2846     		mov	r0, r5
 529 0162 FFF7FEFF 		bl	ADC_DelSig_AMux_Select
 530              	.LVL47:
1371:Generated_Source\PSoC5/ADC_DelSig.c **** 
ARM GAS  C:\Users\Nelson\AppData\Local\Temp\ccgC0n3g.s 			page 42


 531              		.loc 1 1371 0
 532 0166 4FF47A42 		mov	r2, #64000
 533 016a 6A4B     		ldr	r3, .L30+12
 534 016c 1A60     		str	r2, [r3]
1373:Generated_Source\PSoC5/ADC_DelSig.c **** 
 535              		.loc 1 1373 0
 536 016e 0820     		movs	r0, #8
 537 0170 3146     		mov	r1, r6
 538 0172 FFF7FEFF 		bl	ADC_DelSig_Ext_CP_Clk_SetDividerRegister
 539              	.LVL48:
1377:Generated_Source\PSoC5/ADC_DelSig.c ****             #endif /* ADC_DelSig_DEFAULT_INTERNAL_CLK */
 540              		.loc 1 1377 0
 541 0176 2520     		movs	r0, #37
 542 0178 3146     		mov	r1, r6
 543 017a FFF7FEFF 		bl	ADC_DelSig_theACLK_SetDividerRegister
 544              	.LVL49:
1382:Generated_Source\PSoC5/ADC_DelSig.c ****             #endif   /* End ADC_DelSig_IRQ_REMOVE */
 545              		.loc 1 1382 0
 546 017e 1D20     		movs	r0, #29
 547 0180 6649     		ldr	r1, .L30+20
 548 0182 FFF7FEFF 		bl	CyIntSetVector
 549              	.LVL50:
 550              	.L26:
1388:Generated_Source\PSoC5/ADC_DelSig.c ****         {
 551              		.loc 1 1388 0
 552 0186 032C     		cmp	r4, #3
 553 0188 5DD1     		bne	.L27
1391:Generated_Source\PSoC5/ADC_DelSig.c ****             ADC_DelSig_DEC_SHIFT1_REG  = ADC_DelSig_CFG3_DEC_SHIFT1;
 554              		.loc 1 1391 0
 555 018a 3822     		movs	r2, #56
 556 018c 5F4B     		ldr	r3, .L30+4
 557 018e 1A70     		strb	r2, [r3]
1392:Generated_Source\PSoC5/ADC_DelSig.c ****             ADC_DelSig_DEC_SHIFT2_REG  = ADC_DelSig_CFG3_DEC_SHIFT2;
 558              		.loc 1 1392 0
 559 0190 0422     		movs	r2, #4
 560 0192 0233     		adds	r3, r3, #2
 561 0194 1A70     		strb	r2, [r3]
1393:Generated_Source\PSoC5/ADC_DelSig.c ****             ADC_DelSig_DEC_DR2_REG     = ADC_DelSig_CFG3_DEC_DR2;
 562              		.loc 1 1393 0
 563 0196 0622     		movs	r2, #6
 564 0198 0133     		adds	r3, r3, #1
 565 019a 1A70     		strb	r2, [r3]
1394:Generated_Source\PSoC5/ADC_DelSig.c ****             ADC_DelSig_DEC_DR2H_REG    = ADC_DelSig_CFG3_DEC_DR2H;
 566              		.loc 1 1394 0
 567 019c 0025     		movs	r5, #0
 568 019e 0133     		adds	r3, r3, #1
 569 01a0 1D70     		strb	r5, [r3]
1395:Generated_Source\PSoC5/ADC_DelSig.c ****             ADC_DelSig_DEC_DR1_REG     = ADC_DelSig_CFG3_DEC_DR1;
 570              		.loc 1 1395 0
 571 01a2 0133     		adds	r3, r3, #1
 572 01a4 1D70     		strb	r5, [r3]
1396:Generated_Source\PSoC5/ADC_DelSig.c ****             ADC_DelSig_DEC_OCOR_REG    = ADC_DelSig_CFG3_DEC_OCOR;
 573              		.loc 1 1396 0
 574 01a6 3F22     		movs	r2, #63
 575 01a8 0133     		adds	r3, r3, #1
 576 01aa 1A70     		strb	r2, [r3]
1397:Generated_Source\PSoC5/ADC_DelSig.c ****             ADC_DelSig_DEC_OCORM_REG   = ADC_DelSig_CFG3_DEC_OCORM;
ARM GAS  C:\Users\Nelson\AppData\Local\Temp\ccgC0n3g.s 			page 43


 577              		.loc 1 1397 0
 578 01ac 0233     		adds	r3, r3, #2
 579 01ae 1D70     		strb	r5, [r3]
1398:Generated_Source\PSoC5/ADC_DelSig.c ****             ADC_DelSig_DEC_OCORH_REG   = ADC_DelSig_CFG3_DEC_OCORH;
 580              		.loc 1 1398 0
 581 01b0 0133     		adds	r3, r3, #1
 582 01b2 1D70     		strb	r5, [r3]
1399:Generated_Source\PSoC5/ADC_DelSig.c ****             ADC_DelSig_DEC_COHER_REG   = ADC_DelSig_CFG3_DEC_COHER;
 583              		.loc 1 1399 0
 584 01b4 0133     		adds	r3, r3, #1
 585 01b6 1D70     		strb	r5, [r3]
1400:Generated_Source\PSoC5/ADC_DelSig.c **** 
 586              		.loc 1 1400 0
 587 01b8 0126     		movs	r6, #1
 588 01ba 0A33     		adds	r3, r3, #10
 589 01bc 1E70     		strb	r6, [r3]
1402:Generated_Source\PSoC5/ADC_DelSig.c ****             ADC_DelSig_DSM_CR5_REG     = ADC_DelSig_CFG3_DSM_CR5;
 590              		.loc 1 1402 0
 591 01be 5022     		movs	r2, #80
 592 01c0 03F52763 		add	r3, r3, #2672
 593 01c4 1A70     		strb	r2, [r3]
1403:Generated_Source\PSoC5/ADC_DelSig.c ****             ADC_DelSig_DSM_CR6_REG     = ADC_DelSig_CFG3_DSM_CR6;
 594              		.loc 1 1403 0
 595 01c6 2722     		movs	r2, #39
 596 01c8 0133     		adds	r3, r3, #1
 597 01ca 1A70     		strb	r2, [r3]
1404:Generated_Source\PSoC5/ADC_DelSig.c ****             ADC_DelSig_DSM_CR7_REG     = ADC_DelSig_CFG3_DSM_CR7;
 598              		.loc 1 1404 0
 599 01cc 2C22     		movs	r2, #44
 600 01ce 0133     		adds	r3, r3, #1
 601 01d0 1A70     		strb	r2, [r3]
1405:Generated_Source\PSoC5/ADC_DelSig.c ****             ADC_DelSig_DSM_CR10_REG    = ADC_DelSig_CFG3_DSM_CR10;
 602              		.loc 1 1405 0
 603 01d2 0133     		adds	r3, r3, #1
 604 01d4 1D70     		strb	r5, [r3]
1406:Generated_Source\PSoC5/ADC_DelSig.c ****             ADC_DelSig_DSM_CR11_REG    = ADC_DelSig_CFG3_DSM_CR11;
 605              		.loc 1 1406 0
 606 01d6 5522     		movs	r2, #85
 607 01d8 0333     		adds	r3, r3, #3
 608 01da 1A70     		strb	r2, [r3]
1407:Generated_Source\PSoC5/ADC_DelSig.c ****             ADC_DelSig_DSM_CR12_REG    = ADC_DelSig_CFG3_DSM_CR12;
 609              		.loc 1 1407 0
 610 01dc 5A22     		movs	r2, #90
 611 01de 0133     		adds	r3, r3, #1
 612 01e0 1A70     		strb	r2, [r3]
1408:Generated_Source\PSoC5/ADC_DelSig.c ****             ADC_DelSig_DSM_CR14_REG    = ADC_DelSig_CFG3_DSM_CR14;
 613              		.loc 1 1408 0
 614 01e2 0527     		movs	r7, #5
 615 01e4 0133     		adds	r3, r3, #1
 616 01e6 1F70     		strb	r7, [r3]
1409:Generated_Source\PSoC5/ADC_DelSig.c ****             ADC_DelSig_DSM_CR15_REG    = ADC_DelSig_CFG3_DSM_CR15;
 617              		.loc 1 1409 0
 618 01e8 0233     		adds	r3, r3, #2
 619 01ea 1E70     		strb	r6, [r3]
1410:Generated_Source\PSoC5/ADC_DelSig.c ****             ADC_DelSig_DSM_CR16_REG    = ADC_DelSig_CFG3_DSM_CR16;
 620              		.loc 1 1410 0
 621 01ec 1122     		movs	r2, #17
ARM GAS  C:\Users\Nelson\AppData\Local\Temp\ccgC0n3g.s 			page 44


 622 01ee 0133     		adds	r3, r3, #1
 623 01f0 1A70     		strb	r2, [r3]
1411:Generated_Source\PSoC5/ADC_DelSig.c ****             ADC_DelSig_DSM_CR17_REG    = ADC_DelSig_CFG3_DSM_CR17;
 624              		.loc 1 1411 0
 625 01f2 1922     		movs	r2, #25
 626 01f4 0133     		adds	r3, r3, #1
 627 01f6 1A70     		strb	r2, [r3]
1412:Generated_Source\PSoC5/ADC_DelSig.c ****             /* Set DSM_REF0_REG by disabling and enabling the PRESS circuit */
 628              		.loc 1 1412 0
 629 01f8 9722     		movs	r2, #151
 630 01fa 0133     		adds	r3, r3, #1
 631 01fc 1A70     		strb	r2, [r3]
1414:Generated_Source\PSoC5/ADC_DelSig.c ****             ADC_DelSig_DSM_REF2_REG    = ADC_DelSig_CFG3_DSM_REF2;
 632              		.loc 1 1414 0
 633 01fe 4420     		movs	r0, #68
 634 0200 FFF7FEFF 		bl	ADC_DelSig_SetDSMRef0Reg
 635              	.LVL51:
1415:Generated_Source\PSoC5/ADC_DelSig.c ****             ADC_DelSig_DSM_REF3_REG    = ADC_DelSig_CFG3_DSM_REF3;
 636              		.loc 1 1415 0
 637 0204 5822     		movs	r2, #88
 638 0206 424B     		ldr	r3, .L30+8
 639 0208 1A70     		strb	r2, [r3]
1416:Generated_Source\PSoC5/ADC_DelSig.c **** 
 640              		.loc 1 1416 0
 641 020a 0133     		adds	r3, r3, #1
 642 020c 1D70     		strb	r5, [r3]
1418:Generated_Source\PSoC5/ADC_DelSig.c ****             ADC_DelSig_DSM_BUF1_REG    = ADC_DelSig_CFG3_DSM_BUF1;
 643              		.loc 1 1418 0
 644 020e 0533     		adds	r3, r3, #5
 645 0210 1F70     		strb	r7, [r3]
1419:Generated_Source\PSoC5/ADC_DelSig.c ****             ADC_DelSig_DSM_BUF2_REG    = ADC_DelSig_CFG3_DSM_BUF2;
 646              		.loc 1 1419 0
 647 0212 0222     		movs	r2, #2
 648 0214 0133     		adds	r3, r3, #1
 649 0216 1A70     		strb	r2, [r3]
1420:Generated_Source\PSoC5/ADC_DelSig.c ****             ADC_DelSig_DSM_BUF3_REG    = ADC_DelSig_CFG3_DSM_BUF3;
 650              		.loc 1 1420 0
 651 0218 0133     		adds	r3, r3, #1
 652 021a 1D70     		strb	r5, [r3]
1421:Generated_Source\PSoC5/ADC_DelSig.c **** 
 653              		.loc 1 1421 0
 654 021c 0133     		adds	r3, r3, #1
 655 021e 1D70     		strb	r5, [r3]
1430:Generated_Source\PSoC5/ADC_DelSig.c ****                 #endif /* ADC_DelSig_IR_VSSA_TO_2VREF) */
 656              		.loc 1 1430 0
 657 0220 2846     		mov	r0, r5
 658 0222 FFF7FEFF 		bl	ADC_DelSig_AMux_Select
 659              	.LVL52:
1441:Generated_Source\PSoC5/ADC_DelSig.c **** 
 660              		.loc 1 1441 0
 661 0226 4FF47A42 		mov	r2, #64000
 662 022a 3A4B     		ldr	r3, .L30+12
 663 022c 1A60     		str	r2, [r3]
1443:Generated_Source\PSoC5/ADC_DelSig.c **** 
 664              		.loc 1 1443 0
 665 022e 0820     		movs	r0, #8
 666 0230 3146     		mov	r1, r6
ARM GAS  C:\Users\Nelson\AppData\Local\Temp\ccgC0n3g.s 			page 45


 667 0232 FFF7FEFF 		bl	ADC_DelSig_Ext_CP_Clk_SetDividerRegister
 668              	.LVL53:
1447:Generated_Source\PSoC5/ADC_DelSig.c ****             #endif /* ADC_DelSig_DEFAULT_INTERNAL_CLK */
 669              		.loc 1 1447 0
 670 0236 2520     		movs	r0, #37
 671 0238 3146     		mov	r1, r6
 672 023a FFF7FEFF 		bl	ADC_DelSig_theACLK_SetDividerRegister
 673              	.LVL54:
1452:Generated_Source\PSoC5/ADC_DelSig.c ****             #endif   /* End ADC_DelSig_IRQ_REMOVE */
 674              		.loc 1 1452 0
 675 023e 1D20     		movs	r0, #29
 676 0240 3749     		ldr	r1, .L30+24
 677 0242 FFF7FEFF 		bl	CyIntSetVector
 678              	.LVL55:
 679              	.L27:
1458:Generated_Source\PSoC5/ADC_DelSig.c ****         {
 680              		.loc 1 1458 0
 681 0246 042C     		cmp	r4, #4
 682 0248 5DD1     		bne	.L24
1461:Generated_Source\PSoC5/ADC_DelSig.c ****             ADC_DelSig_DEC_SHIFT1_REG  = ADC_DelSig_CFG4_DEC_SHIFT1;
 683              		.loc 1 1461 0
 684 024a 3822     		movs	r2, #56
 685 024c 2F4B     		ldr	r3, .L30+4
 686 024e 1A70     		strb	r2, [r3]
1462:Generated_Source\PSoC5/ADC_DelSig.c ****             ADC_DelSig_DEC_SHIFT2_REG  = ADC_DelSig_CFG4_DEC_SHIFT2;
 687              		.loc 1 1462 0
 688 0250 0422     		movs	r2, #4
 689 0252 0233     		adds	r3, r3, #2
 690 0254 1A70     		strb	r2, [r3]
1463:Generated_Source\PSoC5/ADC_DelSig.c ****             ADC_DelSig_DEC_DR2_REG     = ADC_DelSig_CFG4_DEC_DR2;
 691              		.loc 1 1463 0
 692 0256 0622     		movs	r2, #6
 693 0258 0133     		adds	r3, r3, #1
 694 025a 1A70     		strb	r2, [r3]
1464:Generated_Source\PSoC5/ADC_DelSig.c ****             ADC_DelSig_DEC_DR2H_REG    = ADC_DelSig_CFG4_DEC_DR2H;
 695              		.loc 1 1464 0
 696 025c 0024     		movs	r4, #0
 697 025e 0133     		adds	r3, r3, #1
 698 0260 1C70     		strb	r4, [r3]
1465:Generated_Source\PSoC5/ADC_DelSig.c ****             ADC_DelSig_DEC_DR1_REG     = ADC_DelSig_CFG4_DEC_DR1;
 699              		.loc 1 1465 0
 700 0262 0133     		adds	r3, r3, #1
 701 0264 1C70     		strb	r4, [r3]
1466:Generated_Source\PSoC5/ADC_DelSig.c ****             ADC_DelSig_DEC_OCOR_REG    = ADC_DelSig_CFG4_DEC_OCOR;
 702              		.loc 1 1466 0
 703 0266 3F22     		movs	r2, #63
 704 0268 0133     		adds	r3, r3, #1
 705 026a 1A70     		strb	r2, [r3]
1467:Generated_Source\PSoC5/ADC_DelSig.c ****             ADC_DelSig_DEC_OCORM_REG   = ADC_DelSig_CFG4_DEC_OCORM;
 706              		.loc 1 1467 0
 707 026c 0233     		adds	r3, r3, #2
 708 026e 1C70     		strb	r4, [r3]
1468:Generated_Source\PSoC5/ADC_DelSig.c ****             ADC_DelSig_DEC_OCORH_REG   = ADC_DelSig_CFG4_DEC_OCORH;
 709              		.loc 1 1468 0
 710 0270 0133     		adds	r3, r3, #1
 711 0272 1C70     		strb	r4, [r3]
1469:Generated_Source\PSoC5/ADC_DelSig.c ****             ADC_DelSig_DEC_COHER_REG   = ADC_DelSig_CFG4_DEC_COHER;
ARM GAS  C:\Users\Nelson\AppData\Local\Temp\ccgC0n3g.s 			page 46


 712              		.loc 1 1469 0
 713 0274 0133     		adds	r3, r3, #1
 714 0276 1C70     		strb	r4, [r3]
1470:Generated_Source\PSoC5/ADC_DelSig.c **** 
 715              		.loc 1 1470 0
 716 0278 0125     		movs	r5, #1
 717 027a 0A33     		adds	r3, r3, #10
 718 027c 1D70     		strb	r5, [r3]
1472:Generated_Source\PSoC5/ADC_DelSig.c ****             ADC_DelSig_DSM_CR5_REG     = ADC_DelSig_CFG4_DSM_CR5;
 719              		.loc 1 1472 0
 720 027e 5022     		movs	r2, #80
 721 0280 03F52763 		add	r3, r3, #2672
 722 0284 1A70     		strb	r2, [r3]
1473:Generated_Source\PSoC5/ADC_DelSig.c ****             ADC_DelSig_DSM_CR6_REG     = ADC_DelSig_CFG4_DSM_CR6;
 723              		.loc 1 1473 0
 724 0286 2722     		movs	r2, #39
 725 0288 0133     		adds	r3, r3, #1
 726 028a 1A70     		strb	r2, [r3]
1474:Generated_Source\PSoC5/ADC_DelSig.c ****             ADC_DelSig_DSM_CR7_REG     = ADC_DelSig_CFG4_DSM_CR7;
 727              		.loc 1 1474 0
 728 028c 2C22     		movs	r2, #44
 729 028e 0133     		adds	r3, r3, #1
 730 0290 1A70     		strb	r2, [r3]
1475:Generated_Source\PSoC5/ADC_DelSig.c ****             ADC_DelSig_DSM_CR10_REG    = ADC_DelSig_CFG4_DSM_CR10;
 731              		.loc 1 1475 0
 732 0292 0133     		adds	r3, r3, #1
 733 0294 1C70     		strb	r4, [r3]
1476:Generated_Source\PSoC5/ADC_DelSig.c ****             ADC_DelSig_DSM_CR11_REG    = ADC_DelSig_CFG4_DSM_CR11;
 734              		.loc 1 1476 0
 735 0296 5522     		movs	r2, #85
 736 0298 0333     		adds	r3, r3, #3
 737 029a 1A70     		strb	r2, [r3]
1477:Generated_Source\PSoC5/ADC_DelSig.c ****             ADC_DelSig_DSM_CR12_REG    = ADC_DelSig_CFG4_DSM_CR12;
 738              		.loc 1 1477 0
 739 029c 5A22     		movs	r2, #90
 740 029e 0133     		adds	r3, r3, #1
 741 02a0 1A70     		strb	r2, [r3]
1478:Generated_Source\PSoC5/ADC_DelSig.c ****             ADC_DelSig_DSM_CR14_REG    = ADC_DelSig_CFG4_DSM_CR14;
 742              		.loc 1 1478 0
 743 02a2 0526     		movs	r6, #5
 744 02a4 0133     		adds	r3, r3, #1
 745 02a6 1E70     		strb	r6, [r3]
1479:Generated_Source\PSoC5/ADC_DelSig.c ****             ADC_DelSig_DSM_CR15_REG    = ADC_DelSig_CFG4_DSM_CR15;
 746              		.loc 1 1479 0
 747 02a8 0233     		adds	r3, r3, #2
 748 02aa 1D70     		strb	r5, [r3]
1480:Generated_Source\PSoC5/ADC_DelSig.c ****             ADC_DelSig_DSM_CR16_REG    = ADC_DelSig_CFG4_DSM_CR16;
 749              		.loc 1 1480 0
 750 02ac 1122     		movs	r2, #17
 751 02ae 0133     		adds	r3, r3, #1
 752 02b0 1A70     		strb	r2, [r3]
1481:Generated_Source\PSoC5/ADC_DelSig.c ****             ADC_DelSig_DSM_CR17_REG    = ADC_DelSig_CFG4_DSM_CR17;
 753              		.loc 1 1481 0
 754 02b2 1922     		movs	r2, #25
 755 02b4 0133     		adds	r3, r3, #1
 756 02b6 1A70     		strb	r2, [r3]
1482:Generated_Source\PSoC5/ADC_DelSig.c ****             /* Set DSM_REF0_REG by disabling and enabling the PRESS circuit */
ARM GAS  C:\Users\Nelson\AppData\Local\Temp\ccgC0n3g.s 			page 47


 757              		.loc 1 1482 0
 758 02b8 9722     		movs	r2, #151
 759 02ba 0133     		adds	r3, r3, #1
 760 02bc 1A70     		strb	r2, [r3]
1484:Generated_Source\PSoC5/ADC_DelSig.c ****             ADC_DelSig_DSM_REF2_REG    = ADC_DelSig_CFG4_DSM_REF2;
 761              		.loc 1 1484 0
 762 02be 4420     		movs	r0, #68
 763 02c0 FFF7FEFF 		bl	ADC_DelSig_SetDSMRef0Reg
 764              	.LVL56:
1485:Generated_Source\PSoC5/ADC_DelSig.c ****             ADC_DelSig_DSM_REF3_REG    = ADC_DelSig_CFG4_DSM_REF3;
 765              		.loc 1 1485 0
 766 02c4 5822     		movs	r2, #88
 767 02c6 124B     		ldr	r3, .L30+8
 768 02c8 1A70     		strb	r2, [r3]
1486:Generated_Source\PSoC5/ADC_DelSig.c **** 
 769              		.loc 1 1486 0
 770 02ca 0133     		adds	r3, r3, #1
 771 02cc 1C70     		strb	r4, [r3]
1488:Generated_Source\PSoC5/ADC_DelSig.c ****             ADC_DelSig_DSM_BUF1_REG    = ADC_DelSig_CFG4_DSM_BUF1;
 772              		.loc 1 1488 0
 773 02ce 0533     		adds	r3, r3, #5
 774 02d0 1E70     		strb	r6, [r3]
1489:Generated_Source\PSoC5/ADC_DelSig.c ****             ADC_DelSig_DSM_BUF2_REG    = ADC_DelSig_CFG4_DSM_BUF2;
 775              		.loc 1 1489 0
 776 02d2 0222     		movs	r2, #2
 777 02d4 0133     		adds	r3, r3, #1
 778 02d6 1A70     		strb	r2, [r3]
1490:Generated_Source\PSoC5/ADC_DelSig.c ****             ADC_DelSig_DSM_BUF3_REG    = ADC_DelSig_CFG4_DSM_BUF3;
 779              		.loc 1 1490 0
 780 02d8 0133     		adds	r3, r3, #1
 781 02da 1C70     		strb	r4, [r3]
1491:Generated_Source\PSoC5/ADC_DelSig.c **** 
 782              		.loc 1 1491 0
 783 02dc 0133     		adds	r3, r3, #1
 784 02de 1C70     		strb	r4, [r3]
1500:Generated_Source\PSoC5/ADC_DelSig.c ****                 #endif /* ADC_DelSig_IR_VSSA_TO_2VREF) */
 785              		.loc 1 1500 0
 786 02e0 2046     		mov	r0, r4
 787 02e2 FFF7FEFF 		bl	ADC_DelSig_AMux_Select
 788              	.LVL57:
1511:Generated_Source\PSoC5/ADC_DelSig.c **** 
 789              		.loc 1 1511 0
 790 02e6 4FF47A42 		mov	r2, #64000
 791 02ea 0A4B     		ldr	r3, .L30+12
 792 02ec 1A60     		str	r2, [r3]
1513:Generated_Source\PSoC5/ADC_DelSig.c **** 
 793              		.loc 1 1513 0
 794 02ee 0820     		movs	r0, #8
 795 02f0 2946     		mov	r1, r5
 796 02f2 FFF7FEFF 		bl	ADC_DelSig_Ext_CP_Clk_SetDividerRegister
 797              	.LVL58:
1517:Generated_Source\PSoC5/ADC_DelSig.c ****             #endif /* ADC_DelSig_DEFAULT_INTERNAL_CLK */
 798              		.loc 1 1517 0
 799 02f6 2520     		movs	r0, #37
 800 02f8 2946     		mov	r1, r5
 801 02fa FFF7FEFF 		bl	ADC_DelSig_theACLK_SetDividerRegister
 802              	.LVL59:
ARM GAS  C:\Users\Nelson\AppData\Local\Temp\ccgC0n3g.s 			page 48


1522:Generated_Source\PSoC5/ADC_DelSig.c ****             #endif   /* End ADC_DelSig_IRQ_REMOVE */
 803              		.loc 1 1522 0
 804 02fe 1D20     		movs	r0, #29
 805 0300 0849     		ldr	r1, .L30+28
 806 0302 FFF7FEFF 		bl	CyIntSetVector
 807              	.LVL60:
 808              	.L24:
 809 0306 F8BD     		pop	{r3, r4, r5, r6, r7, pc}
 810              	.L31:
 811              		.align	2
 812              	.L30:
 813 0308 00000000 		.word	.LANCHOR0
 814 030c 004E0040 		.word	1073761792
 815 0310 94580040 		.word	1073764500
 816 0314 00000000 		.word	ADC_DelSig_CountsPerVolt
 817 0318 00000000 		.word	ADC_DelSig_ISR1
 818 031c 00000000 		.word	ADC_DelSig_ISR2
 819 0320 00000000 		.word	ADC_DelSig_ISR3
 820 0324 00000000 		.word	ADC_DelSig_ISR4
 821              		.cfi_endproc
 822              	.LFE19:
 823              		.size	ADC_DelSig_InitConfig, .-ADC_DelSig_InitConfig
 824              		.section	.text.ADC_DelSig_Init,"ax",%progbits
 825              		.align	2
 826              		.global	ADC_DelSig_Init
 827              		.thumb
 828              		.thumb_func
 829              		.type	ADC_DelSig_Init, %function
 830              	ADC_DelSig_Init:
 831              	.LFB0:
  92:Generated_Source\PSoC5/ADC_DelSig.c **** 
 832              		.loc 1 92 0
 833              		.cfi_startproc
 834              		@ args = 0, pretend = 0, frame = 0
 835              		@ frame_needed = 0, uses_anonymous_args = 0
 836 0000 2DE9F041 		push	{r4, r5, r6, r7, r8, lr}
 837              		.cfi_def_cfa_offset 24
 838              		.cfi_offset 4, -24
 839              		.cfi_offset 5, -20
 840              		.cfi_offset 6, -16
 841              		.cfi_offset 7, -12
 842              		.cfi_offset 8, -8
 843              		.cfi_offset 14, -4
 844 0004 82B0     		sub	sp, sp, #8
 845              		.cfi_def_cfa_offset 32
  94:Generated_Source\PSoC5/ADC_DelSig.c ****     ADC_DelSig_convDone = 0u;
 846              		.loc 1 94 0
 847 0006 394D     		ldr	r5, .L34
 848 0008 4FF00108 		mov	r8, #1
 849 000c 85F80080 		strb	r8, [r5]
  95:Generated_Source\PSoC5/ADC_DelSig.c **** 
 850              		.loc 1 95 0
 851 0010 374E     		ldr	r6, .L34+4
 852 0012 0024     		movs	r4, #0
 853 0014 7474     		strb	r4, [r6, #17]
  97:Generated_Source\PSoC5/ADC_DelSig.c **** 
 854              		.loc 1 97 0
ARM GAS  C:\Users\Nelson\AppData\Local\Temp\ccgC0n3g.s 			page 49


 855 0016 1020     		movs	r0, #16
 856 0018 FFF7FEFF 		bl	ADC_DelSig_Ext_CP_Clk_SetModeRegister
 857              	.LVL61:
 101:Generated_Source\PSoC5/ADC_DelSig.c ****     #endif /* ADC_DelSig_DEFAULT_INTERNAL_CLK */
 858              		.loc 1 101 0
 859 001c 1020     		movs	r0, #16
 860 001e FFF7FEFF 		bl	ADC_DelSig_theACLK_SetModeRegister
 861              	.LVL62:
 106:Generated_Source\PSoC5/ADC_DelSig.c ****     #endif   /* End ADC_DelSig_IRQ_REMOVE */
 862              		.loc 1 106 0
 863 0022 1D20     		movs	r0, #29
 864 0024 0721     		movs	r1, #7
 865 0026 FFF7FEFF 		bl	CyIntSetPriority
 866              	.LVL63:
 110:Generated_Source\PSoC5/ADC_DelSig.c ****     ADC_DelSig_DSM_DEM1_REG    = ADC_DelSig_CFG1_DSM_DEM1;
 867              		.loc 1 110 0
 868 002a 0427     		movs	r7, #4
 869 002c 314B     		ldr	r3, .L34+8
 870 002e 1F70     		strb	r7, [r3]
 111:Generated_Source\PSoC5/ADC_DelSig.c ****     ADC_DelSig_DSM_MISC_REG    = ADC_DelSig_CFG1_DSM_MISC;
 871              		.loc 1 111 0
 872 0030 0133     		adds	r3, r3, #1
 873 0032 1C70     		strb	r4, [r3]
 112:Generated_Source\PSoC5/ADC_DelSig.c ****     ADC_DelSig_DSM_CLK_REG    |= ADC_DelSig_CFG1_DSM_CLK;
 874              		.loc 1 112 0
 875 0034 0733     		adds	r3, r3, #7
 876 0036 1C70     		strb	r4, [r3]
 113:Generated_Source\PSoC5/ADC_DelSig.c ****     ADC_DelSig_DSM_REF1_REG    = ADC_DelSig_CFG1_DSM_REF1;
 877              		.loc 1 113 0
 878 0038 2F4A     		ldr	r2, .L34+12
 879 003a 1378     		ldrb	r3, [r2]	@ zero_extendqisi2
 880 003c 43F01803 		orr	r3, r3, #24
 881 0040 1370     		strb	r3, [r2]
 114:Generated_Source\PSoC5/ADC_DelSig.c **** 
 882              		.loc 1 114 0
 883 0042 2E4B     		ldr	r3, .L34+16
 884 0044 1C70     		strb	r4, [r3]
 116:Generated_Source\PSoC5/ADC_DelSig.c ****     ADC_DelSig_DSM_OUT1_REG    = ADC_DelSig_CFG1_DSM_OUT1;
 885              		.loc 1 116 0
 886 0046 03F2F523 		addw	r3, r3, #757
 887 004a 1C70     		strb	r4, [r3]
 117:Generated_Source\PSoC5/ADC_DelSig.c **** 
 888              		.loc 1 117 0
 889 004c 0133     		adds	r3, r3, #1
 890 004e 1C70     		strb	r4, [r3]
 119:Generated_Source\PSoC5/ADC_DelSig.c ****     ADC_DelSig_DSM_CR1_REG     = ADC_DelSig_CFG1_DSM_CR1;
 891              		.loc 1 119 0
 892 0050 0A22     		movs	r2, #10
 893 0052 A3F20933 		subw	r3, r3, #777
 894 0056 1A70     		strb	r2, [r3]
 120:Generated_Source\PSoC5/ADC_DelSig.c **** #if(ADC_DelSig_MI_ENABLE != 0u) /* Enable Modulator Input */
 895              		.loc 1 120 0
 896 0058 0133     		adds	r3, r3, #1
 897 005a 1C70     		strb	r4, [r3]
 124:Generated_Source\PSoC5/ADC_DelSig.c **** #endif /* ADC_DelSig_MI_ENABLE != 0u*/    
 898              		.loc 1 124 0
 899 005c 0233     		adds	r3, r3, #2
ARM GAS  C:\Users\Nelson\AppData\Local\Temp\ccgC0n3g.s 			page 50


 900 005e 1C70     		strb	r4, [r3]
 126:Generated_Source\PSoC5/ADC_DelSig.c ****     ADC_DelSig_DSM_CR9_REG     = ADC_DelSig_CFG1_DSM_CR9;
 901              		.loc 1 126 0
 902 0060 1222     		movs	r2, #18
 903 0062 0533     		adds	r3, r3, #5
 904 0064 1A70     		strb	r2, [r3]
 127:Generated_Source\PSoC5/ADC_DelSig.c ****     ADC_DelSig_DSM_CR13_REG    = ADC_DelSig_CFG1_DSM_CR13;
 905              		.loc 1 127 0
 906 0066 1322     		movs	r2, #19
 907 0068 0133     		adds	r3, r3, #1
 908 006a 1A70     		strb	r2, [r3]
 128:Generated_Source\PSoC5/ADC_DelSig.c **** 
 909              		.loc 1 128 0
 910 006c 0433     		adds	r3, r3, #4
 911 006e 1C70     		strb	r4, [r3]
 130:Generated_Source\PSoC5/ADC_DelSig.c **** 
 912              		.loc 1 130 0
 913 0070 1422     		movs	r2, #20
 914 0072 A3F68C23 		subw	r3, r3, #2700
 915 0076 1A70     		strb	r2, [r3]
 133:Generated_Source\PSoC5/ADC_DelSig.c ****                                       ADC_DelSig_CFG1_IDEAL_DEC_GAIN,
 916              		.loc 1 133 0
 917 0078 CDF80080 		str	r8, [sp]
 918 007c 0220     		movs	r0, #2
 919 007e 48F66B51 		movw	r1, #36203
 920 0082 4FF40042 		mov	r2, #32768
 921 0086 0823     		movs	r3, #8
 922 0088 FFF7FEFF 		bl	ADC_DelSig_GainCompensation
 923              	.LVL64:
 139:Generated_Source\PSoC5/ADC_DelSig.c ****                                           ADC_DelSig_CFG2_IDEAL_DEC_GAIN,
 924              		.loc 1 139 0
 925 008c 0223     		movs	r3, #2
 926 008e 0093     		str	r3, [sp]
 927 0090 2046     		mov	r0, r4
 928 0092 49F2DA01 		movw	r1, #37082
 929 0096 4FF40042 		mov	r2, #32768
 930 009a 1023     		movs	r3, #16
 931 009c FFF7FEFF 		bl	ADC_DelSig_GainCompensation
 932              	.LVL65:
 146:Generated_Source\PSoC5/ADC_DelSig.c ****                                           ADC_DelSig_CFG3_IDEAL_DEC_GAIN,
 933              		.loc 1 146 0
 934 00a0 0323     		movs	r3, #3
 935 00a2 0093     		str	r3, [sp]
 936 00a4 2046     		mov	r0, r4
 937 00a6 49F2DA01 		movw	r1, #37082
 938 00aa 4FF40042 		mov	r2, #32768
 939 00ae 1023     		movs	r3, #16
 940 00b0 FFF7FEFF 		bl	ADC_DelSig_GainCompensation
 941              	.LVL66:
 153:Generated_Source\PSoC5/ADC_DelSig.c ****                                           ADC_DelSig_CFG4_IDEAL_DEC_GAIN,
 942              		.loc 1 153 0
 943 00b4 0097     		str	r7, [sp]
 944 00b6 2046     		mov	r0, r4
 945 00b8 49F2DA01 		movw	r1, #37082
 946 00bc 4FF40042 		mov	r2, #32768
 947 00c0 1023     		movs	r3, #16
 948 00c2 FFF7FEFF 		bl	ADC_DelSig_GainCompensation
ARM GAS  C:\Users\Nelson\AppData\Local\Temp\ccgC0n3g.s 			page 51


 949              	.LVL67:
 161:Generated_Source\PSoC5/ADC_DelSig.c ****     CY_SET_REG16(ADC_DelSig_DEC_GCOR_16B_PTR, ADC_DelSig_gcor[ADC_DelSig_Config - 1u].gcor);
 950              		.loc 1 161 0
 951 00c6 2B78     		ldrb	r3, [r5]	@ zero_extendqisi2
 952 00c8 06EB8303 		add	r3, r6, r3, lsl #2
 953 00cc 13F8022C 		ldrb	r2, [r3, #-2]	@ zero_extendqisi2
 954 00d0 0B4B     		ldr	r3, .L34+20
 955 00d2 1A70     		strb	r2, [r3]
 162:Generated_Source\PSoC5/ADC_DelSig.c **** 
 956              		.loc 1 162 0
 957 00d4 2B78     		ldrb	r3, [r5]	@ zero_extendqisi2
 958 00d6 013B     		subs	r3, r3, #1
 959 00d8 36F82320 		ldrh	r2, [r6, r3, lsl #2]
 960 00dc 094B     		ldr	r3, .L34+24
 961 00de 1A80     		strh	r2, [r3]	@ movhi
 165:Generated_Source\PSoC5/ADC_DelSig.c **** }
 962              		.loc 1 165 0
 963 00e0 2878     		ldrb	r0, [r5]	@ zero_extendqisi2
 964 00e2 FFF7FEFF 		bl	ADC_DelSig_InitConfig
 965              	.LVL68:
 166:Generated_Source\PSoC5/ADC_DelSig.c **** 
 966              		.loc 1 166 0
 967 00e6 02B0     		add	sp, sp, #8
 968              		.cfi_def_cfa_offset 24
 969              		@ sp needed
 970 00e8 BDE8F081 		pop	{r4, r5, r6, r7, r8, pc}
 971              	.L35:
 972              		.align	2
 973              	.L34:
 974 00ec 00000000 		.word	.LANCHOR1
 975 00f0 00000000 		.word	.LANCHOR0
 976 00f4 96580040 		.word	1073764502
 977 00f8 075B0040 		.word	1073765127
 978 00fc 93580040 		.word	1073764499
 979 0100 0E4E0040 		.word	1073761806
 980 0104 0C4E0040 		.word	1073761804
 981              		.cfi_endproc
 982              	.LFE0:
 983              		.size	ADC_DelSig_Init, .-ADC_DelSig_Init
 984              		.section	.text.ADC_DelSig_Enable,"ax",%progbits
 985              		.align	2
 986              		.global	ADC_DelSig_Enable
 987              		.thumb
 988              		.thumb_func
 989              		.type	ADC_DelSig_Enable, %function
 990              	ADC_DelSig_Enable:
 991              	.LFB1:
 185:Generated_Source\PSoC5/ADC_DelSig.c **** 	uint8 config;
 992              		.loc 1 185 0
 993              		.cfi_startproc
 994              		@ args = 0, pretend = 0, frame = 0
 995              		@ frame_needed = 0, uses_anonymous_args = 0
 996 0000 70B5     		push	{r4, r5, r6, lr}
 997              		.cfi_def_cfa_offset 16
 998              		.cfi_offset 4, -16
 999              		.cfi_offset 5, -12
 1000              		.cfi_offset 6, -8
ARM GAS  C:\Users\Nelson\AppData\Local\Temp\ccgC0n3g.s 			page 52


 1001              		.cfi_offset 14, -4
 188:Generated_Source\PSoC5/ADC_DelSig.c **** 
 1002              		.loc 1 188 0
 1003 0002 FFF7FEFF 		bl	CyEnterCriticalSection
 1004              	.LVL69:
 1005 0006 0646     		mov	r6, r0
 1006              	.LVL70:
 191:Generated_Source\PSoC5/ADC_DelSig.c ****     
 1007              		.loc 1 191 0
 1008 0008 2A4B     		ldr	r3, .L38
 1009 000a 1B78     		ldrb	r3, [r3]	@ zero_extendqisi2
 1010              	.LVL71:
 194:Generated_Source\PSoC5/ADC_DelSig.c ****     ADC_DelSig_PWRMGR_DSM_REG |= ADC_DelSig_ACT_PWR_DSM_EN;
 1011              		.loc 1 194 0
 1012 000c 2A4B     		ldr	r3, .L38+4
 1013 000e 1A78     		ldrb	r2, [r3]	@ zero_extendqisi2
 1014 0010 42F00102 		orr	r2, r2, #1
 1015 0014 1A70     		strb	r2, [r3]
 195:Generated_Source\PSoC5/ADC_DelSig.c **** 
 1016              		.loc 1 195 0
 1017 0016 1A78     		ldrb	r2, [r3]	@ zero_extendqisi2
 1018 0018 42F01002 		orr	r2, r2, #16
 1019 001c 1A70     		strb	r2, [r3]
 198:Generated_Source\PSoC5/ADC_DelSig.c ****     ADC_DelSig_STBY_PWRMGR_DSM_REG |= ADC_DelSig_STBY_PWR_DSM_EN;
 1020              		.loc 1 198 0
 1021 001e 1033     		adds	r3, r3, #16
 1022 0020 1A78     		ldrb	r2, [r3]	@ zero_extendqisi2
 1023 0022 42F00102 		orr	r2, r2, #1
 1024 0026 1A70     		strb	r2, [r3]
 199:Generated_Source\PSoC5/ADC_DelSig.c **** 
 1025              		.loc 1 199 0
 1026 0028 1A78     		ldrb	r2, [r3]	@ zero_extendqisi2
 1027 002a 42F01002 		orr	r2, r2, #16
 1028 002e 1A70     		strb	r2, [r3]
 202:Generated_Source\PSoC5/ADC_DelSig.c ****     ADC_DelSig_RESET_CR5_REG |= ADC_DelSig_IGNORE_PRESA2;
 1029              		.loc 1 202 0
 1030 0030 224D     		ldr	r5, .L38+8
 1031 0032 2B78     		ldrb	r3, [r5]	@ zero_extendqisi2
 1032 0034 43F00203 		orr	r3, r3, #2
 1033 0038 2B70     		strb	r3, [r5]
 203:Generated_Source\PSoC5/ADC_DelSig.c **** 
 1034              		.loc 1 203 0
 1035 003a 214C     		ldr	r4, .L38+12
 1036 003c 2378     		ldrb	r3, [r4]	@ zero_extendqisi2
 1037 003e 43F00203 		orr	r3, r3, #2
 1038 0042 2370     		strb	r3, [r4]
 205:Generated_Source\PSoC5/ADC_DelSig.c **** 
 1039              		.loc 1 205 0
 1040 0044 1F4A     		ldr	r2, .L38+16
 1041 0046 1378     		ldrb	r3, [r2]	@ zero_extendqisi2
 1042 0048 43F00303 		orr	r3, r3, #3
 1043 004c 1370     		strb	r3, [r2]
 271:Generated_Source\PSoC5/ADC_DelSig.c **** 
 1044              		.loc 1 271 0
 1045 004e 0320     		movs	r0, #3
 1046 0050 FFF7FEFF 		bl	CyDelayUs
 1047              	.LVL72:
ARM GAS  C:\Users\Nelson\AppData\Local\Temp\ccgC0n3g.s 			page 53


 274:Generated_Source\PSoC5/ADC_DelSig.c ****     ADC_DelSig_RESET_CR5_REG &= (uint8)~ADC_DelSig_IGNORE_PRESA2;
 1048              		.loc 1 274 0
 1049 0054 2B78     		ldrb	r3, [r5]	@ zero_extendqisi2
 1050 0056 03F0FD03 		and	r3, r3, #253
 1051 005a 2B70     		strb	r3, [r5]
 275:Generated_Source\PSoC5/ADC_DelSig.c **** 
 1052              		.loc 1 275 0
 1053 005c 2378     		ldrb	r3, [r4]	@ zero_extendqisi2
 1054 005e 03F0FD03 		and	r3, r3, #253
 1055 0062 2370     		strb	r3, [r4]
 278:Generated_Source\PSoC5/ADC_DelSig.c **** 
 1056              		.loc 1 278 0
 1057 0064 184A     		ldr	r2, .L38+20
 1058 0066 1378     		ldrb	r3, [r2]	@ zero_extendqisi2
 1059 0068 43F00603 		orr	r3, r3, #6
 1060 006c 1370     		strb	r3, [r2]
 281:Generated_Source\PSoC5/ADC_DelSig.c **** 
 1061              		.loc 1 281 0
 1062 006e 7A22     		movs	r2, #122
 1063 0070 164B     		ldr	r3, .L38+24
 1064 0072 1A70     		strb	r2, [r3]
 285:Generated_Source\PSoC5/ADC_DelSig.c ****         ADC_DelSig_STBY_PWRMGR_CLK_REG |= ADC_DelSig_STBY_PWR_CLK_EN;
 1065              		.loc 1 285 0
 1066 0074 164A     		ldr	r2, .L38+28
 1067 0076 1378     		ldrb	r3, [r2]	@ zero_extendqisi2
 1068 0078 43F00103 		orr	r3, r3, #1
 1069 007c 1370     		strb	r3, [r2]
 286:Generated_Source\PSoC5/ADC_DelSig.c ****     #endif /* ADC_DelSig_DEFAULT_INTERNAL_CLK */
 1070              		.loc 1 286 0
 1071 007e 1032     		adds	r2, r2, #16
 1072 0080 1378     		ldrb	r3, [r2]	@ zero_extendqisi2
 1073 0082 43F00103 		orr	r3, r3, #1
 1074 0086 1370     		strb	r3, [r2]
 290:Generated_Source\PSoC5/ADC_DelSig.c ****     ADC_DelSig_STBY_PWRMGR_CHARGE_PUMP_CLK_REG |= ADC_DelSig_STBY_PWR_CHARGE_PUMP_CLK_EN;
 1075              		.loc 1 290 0
 1076 0088 0F3A     		subs	r2, r2, #15
 1077 008a 1378     		ldrb	r3, [r2]	@ zero_extendqisi2
 1078 008c 43F00103 		orr	r3, r3, #1
 1079 0090 1370     		strb	r3, [r2]
 291:Generated_Source\PSoC5/ADC_DelSig.c **** 
 1080              		.loc 1 291 0
 1081 0092 1032     		adds	r2, r2, #16
 1082 0094 1378     		ldrb	r3, [r2]	@ zero_extendqisi2
 1083 0096 43F00103 		orr	r3, r3, #1
 1084 009a 1370     		strb	r3, [r2]
 295:Generated_Source\PSoC5/ADC_DelSig.c ****         /* Enable interrupt */
 1085              		.loc 1 295 0
 1086 009c 4FF00053 		mov	r3, #536870912
 1087 00a0 0C4A     		ldr	r2, .L38+32
 1088 00a2 1360     		str	r3, [r2]
 297:Generated_Source\PSoC5/ADC_DelSig.c ****     #endif   /* End ADC_DelSig_IRQ_REMOVE */
 1089              		.loc 1 297 0
 1090 00a4 A2F5C072 		sub	r2, r2, #384
 1091 00a8 1360     		str	r3, [r2]
 300:Generated_Source\PSoC5/ADC_DelSig.c **** 
 1092              		.loc 1 300 0
 1093 00aa 3046     		mov	r0, r6
ARM GAS  C:\Users\Nelson\AppData\Local\Temp\ccgC0n3g.s 			page 54


 1094 00ac FFF7FEFF 		bl	CyExitCriticalSection
 1095              	.LVL73:
 1096 00b0 70BD     		pop	{r4, r5, r6, pc}
 1097              	.LVL74:
 1098              	.L39:
 1099 00b2 00BF     		.align	2
 1100              	.L38:
 1101 00b4 00000000 		.word	.LANCHOR1
 1102 00b8 AA430040 		.word	1073759146
 1103 00bc F8460040 		.word	1073759992
 1104 00c0 F9460040 		.word	1073759993
 1105 00c4 91580040 		.word	1073764497
 1106 00c8 77580040 		.word	1073764471
 1107 00cc 82580040 		.word	1073764482
 1108 00d0 A1430040 		.word	1073759137
 1109 00d4 80E200E0 		.word	-536812928
 1110              		.cfi_endproc
 1111              	.LFE1:
 1112              		.size	ADC_DelSig_Enable, .-ADC_DelSig_Enable
 1113              		.section	.text.ADC_DelSig_Start,"ax",%progbits
 1114              		.align	2
 1115              		.global	ADC_DelSig_Start
 1116              		.thumb
 1117              		.thumb_func
 1118              		.type	ADC_DelSig_Start, %function
 1119              	ADC_DelSig_Start:
 1120              	.LFB2:
 330:Generated_Source\PSoC5/ADC_DelSig.c ****     if(ADC_DelSig_initVar == 0u)
 1121              		.loc 1 330 0
 1122              		.cfi_startproc
 1123              		@ args = 0, pretend = 0, frame = 0
 1124              		@ frame_needed = 0, uses_anonymous_args = 0
 1125 0000 08B5     		push	{r3, lr}
 1126              		.cfi_def_cfa_offset 8
 1127              		.cfi_offset 3, -8
 1128              		.cfi_offset 14, -4
 331:Generated_Source\PSoC5/ADC_DelSig.c ****     {
 1129              		.loc 1 331 0
 1130 0002 084B     		ldr	r3, .L44
 1131 0004 9B7C     		ldrb	r3, [r3, #18]	@ zero_extendqisi2
 1132 0006 4BB9     		cbnz	r3, .L41
 333:Generated_Source\PSoC5/ADC_DelSig.c ****         {
 1133              		.loc 1 333 0
 1134 0008 064B     		ldr	r3, .L44
 1135 000a DB7C     		ldrb	r3, [r3, #19]	@ zero_extendqisi2
 1136 000c 13F0FF0F 		tst	r3, #255
 1137 0010 01D1     		bne	.L42
 335:Generated_Source\PSoC5/ADC_DelSig.c ****         }
 1138              		.loc 1 335 0
 1139 0012 FFF7FEFF 		bl	ADC_DelSig_Init
 1140              	.LVL75:
 1141              	.L42:
 337:Generated_Source\PSoC5/ADC_DelSig.c ****     }
 1142              		.loc 1 337 0
 1143 0016 0122     		movs	r2, #1
 1144 0018 024B     		ldr	r3, .L44
 1145 001a 9A74     		strb	r2, [r3, #18]
ARM GAS  C:\Users\Nelson\AppData\Local\Temp\ccgC0n3g.s 			page 55


 1146              	.L41:
 341:Generated_Source\PSoC5/ADC_DelSig.c **** }
 1147              		.loc 1 341 0
 1148 001c FFF7FEFF 		bl	ADC_DelSig_Enable
 1149              	.LVL76:
 1150 0020 08BD     		pop	{r3, pc}
 1151              	.L45:
 1152 0022 00BF     		.align	2
 1153              	.L44:
 1154 0024 00000000 		.word	.LANCHOR0
 1155              		.cfi_endproc
 1156              	.LFE2:
 1157              		.size	ADC_DelSig_Start, .-ADC_DelSig_Start
 1158              		.section	.text.ADC_DelSig_Stop,"ax",%progbits
 1159              		.align	2
 1160              		.global	ADC_DelSig_Stop
 1161              		.thumb
 1162              		.thumb_func
 1163              		.type	ADC_DelSig_Stop, %function
 1164              	ADC_DelSig_Stop:
 1165              	.LFB3:
 363:Generated_Source\PSoC5/ADC_DelSig.c ****     uint8 enableInterrupts;
 1166              		.loc 1 363 0
 1167              		.cfi_startproc
 1168              		@ args = 0, pretend = 0, frame = 0
 1169              		@ frame_needed = 0, uses_anonymous_args = 0
 1170 0000 70B5     		push	{r4, r5, r6, lr}
 1171              		.cfi_def_cfa_offset 16
 1172              		.cfi_offset 4, -16
 1173              		.cfi_offset 5, -12
 1174              		.cfi_offset 6, -8
 1175              		.cfi_offset 14, -4
 365:Generated_Source\PSoC5/ADC_DelSig.c **** 
 1176              		.loc 1 365 0
 1177 0002 FFF7FEFF 		bl	CyEnterCriticalSection
 1178              	.LVL77:
 1179 0006 0646     		mov	r6, r0
 1180              	.LVL78:
 368:Generated_Source\PSoC5/ADC_DelSig.c ****     ADC_DelSig_DEC_SR_REG |=  ADC_DelSig_DEC_INTR_CLEAR;
 1181              		.loc 1 368 0
 1182 0008 314A     		ldr	r2, .L48
 1183 000a 1378     		ldrb	r3, [r2]	@ zero_extendqisi2
 1184 000c 03F0FE03 		and	r3, r3, #254
 1185 0010 1370     		strb	r3, [r2]
 369:Generated_Source\PSoC5/ADC_DelSig.c **** 
 1186              		.loc 1 369 0
 1187 0012 0132     		adds	r2, r2, #1
 1188 0014 1378     		ldrb	r3, [r2]	@ zero_extendqisi2
 1189 0016 43F00403 		orr	r3, r3, #4
 1190 001a 1370     		strb	r3, [r2]
 373:Generated_Source\PSoC5/ADC_DelSig.c ****     ADC_DelSig_RESET_CR5_REG |= ADC_DelSig_IGNORE_PRESA2;
 1191              		.loc 1 373 0
 1192 001c 2D4D     		ldr	r5, .L48+4
 1193 001e 2B78     		ldrb	r3, [r5]	@ zero_extendqisi2
 1194 0020 43F00203 		orr	r3, r3, #2
 1195 0024 2B70     		strb	r3, [r5]
 374:Generated_Source\PSoC5/ADC_DelSig.c **** 
ARM GAS  C:\Users\Nelson\AppData\Local\Temp\ccgC0n3g.s 			page 56


 1196              		.loc 1 374 0
 1197 0026 2C4C     		ldr	r4, .L48+8
 1198 0028 2378     		ldrb	r3, [r4]	@ zero_extendqisi2
 1199 002a 43F00203 		orr	r3, r3, #2
 1200 002e 2370     		strb	r3, [r4]
 376:Generated_Source\PSoC5/ADC_DelSig.c ****     ADC_DelSig_DSM_REF0_REG &= (uint8)~ADC_DelSig_DSM_EN_BUF_VREF_INN;
 1201              		.loc 1 376 0
 1202 0030 02F52962 		add	r2, r2, #2704
 1203 0034 1378     		ldrb	r3, [r2]	@ zero_extendqisi2
 1204 0036 03F0FC03 		and	r3, r3, #252
 1205 003a 1370     		strb	r3, [r2]
 377:Generated_Source\PSoC5/ADC_DelSig.c **** 
 1206              		.loc 1 377 0
 1207 003c 0132     		adds	r2, r2, #1
 1208 003e 1378     		ldrb	r3, [r2]	@ zero_extendqisi2
 1209 0040 03F0F703 		and	r3, r3, #247
 1210 0044 1370     		strb	r3, [r2]
 380:Generated_Source\PSoC5/ADC_DelSig.c **** 
 1211              		.loc 1 380 0
 1212 0046 0320     		movs	r0, #3
 1213 0048 FFF7FEFF 		bl	CyDelayUs
 1214              	.LVL79:
 383:Generated_Source\PSoC5/ADC_DelSig.c ****     ADC_DelSig_RESET_CR5_REG &= (uint8)~ADC_DelSig_IGNORE_PRESA2;
 1215              		.loc 1 383 0
 1216 004c 2B78     		ldrb	r3, [r5]	@ zero_extendqisi2
 1217 004e 03F0FD03 		and	r3, r3, #253
 1218 0052 2B70     		strb	r3, [r5]
 384:Generated_Source\PSoC5/ADC_DelSig.c **** 
 1219              		.loc 1 384 0
 1220 0054 2378     		ldrb	r3, [r4]	@ zero_extendqisi2
 1221 0056 03F0FD03 		and	r3, r3, #253
 1222 005a 2370     		strb	r3, [r4]
 387:Generated_Source\PSoC5/ADC_DelSig.c **** 
 1223              		.loc 1 387 0
 1224 005c 1F4B     		ldr	r3, .L48+12
 1225 005e 1A78     		ldrb	r2, [r3]	@ zero_extendqisi2
 1226 0060 02F0EF02 		and	r2, r2, #239
 1227 0064 1A70     		strb	r2, [r3]
 390:Generated_Source\PSoC5/ADC_DelSig.c **** 
 1228              		.loc 1 390 0
 1229 0066 1A78     		ldrb	r2, [r3]	@ zero_extendqisi2
 1230 0068 02F0FE02 		and	r2, r2, #254
 1231 006c 1A70     		strb	r2, [r3]
 393:Generated_Source\PSoC5/ADC_DelSig.c ****     ADC_DelSig_STBY_PWRMGR_DSM_REG &= (uint8)~ADC_DelSig_STBY_PWR_DSM_EN;
 1232              		.loc 1 393 0
 1233 006e 1033     		adds	r3, r3, #16
 1234 0070 1A78     		ldrb	r2, [r3]	@ zero_extendqisi2
 1235 0072 02F0FE02 		and	r2, r2, #254
 1236 0076 1A70     		strb	r2, [r3]
 394:Generated_Source\PSoC5/ADC_DelSig.c **** 
 1237              		.loc 1 394 0
 1238 0078 1A78     		ldrb	r2, [r3]	@ zero_extendqisi2
 1239 007a 02F0EF02 		and	r2, r2, #239
 1240 007e 1A70     		strb	r2, [r3]
 397:Generated_Source\PSoC5/ADC_DelSig.c **** 
 1241              		.loc 1 397 0
 1242 0080 174A     		ldr	r2, .L48+16
ARM GAS  C:\Users\Nelson\AppData\Local\Temp\ccgC0n3g.s 			page 57


 1243 0082 1378     		ldrb	r3, [r2]	@ zero_extendqisi2
 1244 0084 03F0F903 		and	r3, r3, #249
 1245 0088 1370     		strb	r3, [r2]
 401:Generated_Source\PSoC5/ADC_DelSig.c ****         ADC_DelSig_STBY_PWRMGR_CLK_REG &= (uint8)~ADC_DelSig_STBY_PWR_CLK_EN;
 1246              		.loc 1 401 0
 1247 008a A2F5A652 		sub	r2, r2, #5312
 1248 008e 163A     		subs	r2, r2, #22
 1249 0090 1378     		ldrb	r3, [r2]	@ zero_extendqisi2
 1250 0092 03F0FE03 		and	r3, r3, #254
 1251 0096 1370     		strb	r3, [r2]
 402:Generated_Source\PSoC5/ADC_DelSig.c ****     #endif /* ADC_DelSig_DEFAULT_INTERNAL_CLK */
 1252              		.loc 1 402 0
 1253 0098 1032     		adds	r2, r2, #16
 1254 009a 1378     		ldrb	r3, [r2]	@ zero_extendqisi2
 1255 009c 03F0FE03 		and	r3, r3, #254
 1256 00a0 1370     		strb	r3, [r2]
 406:Generated_Source\PSoC5/ADC_DelSig.c ****     /* Disable power to charge pump clock */
 1257              		.loc 1 406 0
 1258 00a2 02F5A652 		add	r2, r2, #5312
 1259 00a6 1132     		adds	r2, r2, #17
 1260 00a8 1378     		ldrb	r3, [r2]	@ zero_extendqisi2
 1261 00aa 03F0F703 		and	r3, r3, #247
 1262 00ae 1370     		strb	r3, [r2]
 408:Generated_Source\PSoC5/ADC_DelSig.c ****     ADC_DelSig_STBY_PWRMGR_CHARGE_PUMP_CLK_REG &= (uint8)~ADC_DelSig_STBY_PWR_CHARGE_PUMP_CLK_EN;
 1263              		.loc 1 408 0
 1264 00b0 A2F5A752 		sub	r2, r2, #5344
 1265 00b4 1378     		ldrb	r3, [r2]	@ zero_extendqisi2
 1266 00b6 03F0FE03 		and	r3, r3, #254
 1267 00ba 1370     		strb	r3, [r2]
 409:Generated_Source\PSoC5/ADC_DelSig.c ****     
 1268              		.loc 1 409 0
 1269 00bc 1032     		adds	r2, r2, #16
 1270 00be 1378     		ldrb	r3, [r2]	@ zero_extendqisi2
 1271 00c0 03F0FE03 		and	r3, r3, #254
 1272 00c4 1370     		strb	r3, [r2]
 411:Generated_Source\PSoC5/ADC_DelSig.c **** }
 1273              		.loc 1 411 0
 1274 00c6 3046     		mov	r0, r6
 1275 00c8 FFF7FEFF 		bl	CyExitCriticalSection
 1276              	.LVL80:
 1277 00cc 70BD     		pop	{r4, r5, r6, pc}
 1278              	.LVL81:
 1279              	.L49:
 1280 00ce 00BF     		.align	2
 1281              	.L48:
 1282 00d0 004E0040 		.word	1073761792
 1283 00d4 F8460040 		.word	1073759992
 1284 00d8 F9460040 		.word	1073759993
 1285 00dc AA430040 		.word	1073759146
 1286 00e0 77580040 		.word	1073764471
 1287              		.cfi_endproc
 1288              	.LFE3:
 1289              		.size	ADC_DelSig_Stop, .-ADC_DelSig_Stop
 1290              		.section	.text.ADC_DelSig_SetBufferGain,"ax",%progbits
 1291              		.align	2
 1292              		.global	ADC_DelSig_SetBufferGain
 1293              		.thumb
ARM GAS  C:\Users\Nelson\AppData\Local\Temp\ccgC0n3g.s 			page 58


 1294              		.thumb_func
 1295              		.type	ADC_DelSig_SetBufferGain, %function
 1296              	ADC_DelSig_SetBufferGain:
 1297              	.LFB4:
 430:Generated_Source\PSoC5/ADC_DelSig.c ****     uint8 tmpReg;
 1298              		.loc 1 430 0
 1299              		.cfi_startproc
 1300              		@ args = 0, pretend = 0, frame = 0
 1301              		@ frame_needed = 0, uses_anonymous_args = 0
 1302              		@ link register save eliminated.
 1303              	.LVL82:
 432:Generated_Source\PSoC5/ADC_DelSig.c ****     tmpReg |= (uint8)(gain << ADC_DelSig_DSM_GAIN_SHIFT) & ADC_DelSig_DSM_GAIN_MASK;
 1304              		.loc 1 432 0
 1305 0000 044A     		ldr	r2, .L51
 1306 0002 1378     		ldrb	r3, [r2]	@ zero_extendqisi2
 1307 0004 03F0F303 		and	r3, r3, #243
 1308              	.LVL83:
 433:Generated_Source\PSoC5/ADC_DelSig.c ****     ADC_DelSig_DSM_BUF1_REG = tmpReg;
 1309              		.loc 1 433 0
 1310 0008 8000     		lsls	r0, r0, #2
 1311              	.LVL84:
 1312 000a 00F00C00 		and	r0, r0, #12
 1313 000e 1843     		orrs	r0, r0, r3
 1314              	.LVL85:
 434:Generated_Source\PSoC5/ADC_DelSig.c **** }
 1315              		.loc 1 434 0
 1316 0010 1070     		strb	r0, [r2]
 1317 0012 7047     		bx	lr
 1318              	.L52:
 1319              		.align	2
 1320              	.L51:
 1321 0014 9B580040 		.word	1073764507
 1322              		.cfi_endproc
 1323              	.LFE4:
 1324              		.size	ADC_DelSig_SetBufferGain, .-ADC_DelSig_SetBufferGain
 1325              		.section	.text.ADC_DelSig_SetCoherency,"ax",%progbits
 1326              		.align	2
 1327              		.global	ADC_DelSig_SetCoherency
 1328              		.thumb
 1329              		.thumb_func
 1330              		.type	ADC_DelSig_SetCoherency, %function
 1331              	ADC_DelSig_SetCoherency:
 1332              	.LFB5:
 466:Generated_Source\PSoC5/ADC_DelSig.c ****     uint8 tmpReg;
 1333              		.loc 1 466 0
 1334              		.cfi_startproc
 1335              		@ args = 0, pretend = 0, frame = 0
 1336              		@ frame_needed = 0, uses_anonymous_args = 0
 1337              		@ link register save eliminated.
 1338              	.LVL86:
 469:Generated_Source\PSoC5/ADC_DelSig.c ****     tmpReg |= coherency & ADC_DelSig_DEC_SAMP_KEY_MASK;
 1339              		.loc 1 469 0
 1340 0000 044A     		ldr	r2, .L54
 1341 0002 1378     		ldrb	r3, [r2]	@ zero_extendqisi2
 1342 0004 03F0FC03 		and	r3, r3, #252
 1343              	.LVL87:
 470:Generated_Source\PSoC5/ADC_DelSig.c ****     ADC_DelSig_DEC_COHER_REG = tmpReg;
ARM GAS  C:\Users\Nelson\AppData\Local\Temp\ccgC0n3g.s 			page 59


 1344              		.loc 1 470 0
 1345 0008 00F00300 		and	r0, r0, #3
 1346              	.LVL88:
 1347 000c 1843     		orrs	r0, r0, r3
 1348              	.LVL89:
 471:Generated_Source\PSoC5/ADC_DelSig.c **** }
 1349              		.loc 1 471 0
 1350 000e 1070     		strb	r0, [r2]
 1351 0010 7047     		bx	lr
 1352              	.L55:
 1353 0012 00BF     		.align	2
 1354              	.L54:
 1355 0014 144E0040 		.word	1073761812
 1356              		.cfi_endproc
 1357              	.LFE5:
 1358              		.size	ADC_DelSig_SetCoherency, .-ADC_DelSig_SetCoherency
 1359              		.global	__aeabi_ui2f
 1360              		.global	__aeabi_fmul
 1361              		.global	__aeabi_f2d
 1362              		.global	__aeabi_dcmpgt
 1363              		.global	__aeabi_f2uiz
 1364              		.section	.text.ADC_DelSig_SetGCOR,"ax",%progbits
 1365              		.align	2
 1366              		.global	ADC_DelSig_SetGCOR
 1367              		.thumb
 1368              		.thumb_func
 1369              		.type	ADC_DelSig_SetGCOR, %function
 1370              	ADC_DelSig_SetGCOR:
 1371              	.LFB6:
 506:Generated_Source\PSoC5/ADC_DelSig.c ****     uint16 tmpReg;
 1372              		.loc 1 506 0
 1373              		.cfi_startproc
 1374              		@ args = 0, pretend = 0, frame = 0
 1375              		@ frame_needed = 0, uses_anonymous_args = 0
 1376              	.LVL90:
 1377 0000 10B5     		push	{r4, lr}
 1378              		.cfi_def_cfa_offset 8
 1379              		.cfi_offset 4, -8
 1380              		.cfi_offset 14, -4
 1381 0002 0446     		mov	r4, r0
 511:Generated_Source\PSoC5/ADC_DelSig.c ****     tmpValue = ((float32)tmpReg / (float32)ADC_DelSig_IDEAL_GAIN_CONST);
 1382              		.loc 1 511 0
 1383 0004 184B     		ldr	r3, .L60+8
 1384 0006 1B78     		ldrb	r3, [r3]	@ zero_extendqisi2
 1385 0008 013B     		subs	r3, r3, #1
 1386              	.LVL91:
 512:Generated_Source\PSoC5/ADC_DelSig.c ****     tmpValue = tmpValue * gainAdjust;
 1387              		.loc 1 512 0
 1388 000a 184A     		ldr	r2, .L60+12
 1389 000c 32F82300 		ldrh	r0, [r2, r3, lsl #2]
 1390              	.LVL92:
 1391 0010 FFF7FEFF 		bl	__aeabi_ui2f
 1392              	.LVL93:
 1393 0014 4FF06051 		mov	r1, #939524096
 1394 0018 FFF7FEFF 		bl	__aeabi_fmul
 1395              	.LVL94:
 513:Generated_Source\PSoC5/ADC_DelSig.c **** 
ARM GAS  C:\Users\Nelson\AppData\Local\Temp\ccgC0n3g.s 			page 60


 1396              		.loc 1 513 0
 1397 001c 2146     		mov	r1, r4
 1398 001e FFF7FEFF 		bl	__aeabi_fmul
 1399              	.LVL95:
 1400 0022 0446     		mov	r4, r0
 1401              	.LVL96:
 515:Generated_Source\PSoC5/ADC_DelSig.c ****     {
 1402              		.loc 1 515 0
 1403 0024 FFF7FEFF 		bl	__aeabi_f2d
 1404              	.LVL97:
 1405 0028 0DA3     		adr	r3, .L60
 1406 002a D3E90023 		ldrd	r2, [r3]
 1407 002e FFF7FEFF 		bl	__aeabi_dcmpgt
 1408              	.LVL98:
 1409 0032 88B9     		cbnz	r0, .L58
 521:Generated_Source\PSoC5/ADC_DelSig.c **** 		tmpReg = (uint16)tmpValue;
 1410              		.loc 1 521 0
 1411 0034 2046     		mov	r0, r4
 1412 0036 4FF08E41 		mov	r1, #1191182336
 1413 003a FFF7FEFF 		bl	__aeabi_fmul
 1414              	.LVL99:
 522:Generated_Source\PSoC5/ADC_DelSig.c ****         CY_SET_REG16(ADC_DelSig_DEC_GCOR_16B_PTR, tmpReg);
 1415              		.loc 1 522 0
 1416 003e FFF7FEFF 		bl	__aeabi_f2uiz
 1417              	.LVL100:
 1418 0042 80B2     		uxth	r0, r0
 1419              	.LVL101:
 523:Generated_Source\PSoC5/ADC_DelSig.c ****         /* Update gain array to be used by SelectConfiguration() API */
 1420              		.loc 1 523 0
 1421 0044 0A4B     		ldr	r3, .L60+16
 1422 0046 1880     		strh	r0, [r3]	@ movhi
 525:Generated_Source\PSoC5/ADC_DelSig.c **** 
 1423              		.loc 1 525 0
 1424 0048 074B     		ldr	r3, .L60+8
 1425 004a 1B78     		ldrb	r3, [r3]	@ zero_extendqisi2
 1426 004c 013B     		subs	r3, r3, #1
 1427 004e 074A     		ldr	r2, .L60+12
 1428 0050 22F82300 		strh	r0, [r2, r3, lsl #2]	@ movhi
 1429              	.LVL102:
 527:Generated_Source\PSoC5/ADC_DelSig.c **** 
 1430              		.loc 1 527 0
 1431 0054 0020     		movs	r0, #0
 1432              	.LVL103:
 1433 0056 10BD     		pop	{r4, pc}
 1434              	.LVL104:
 1435              	.L58:
 517:Generated_Source\PSoC5/ADC_DelSig.c ****     }
 1436              		.loc 1 517 0
 1437 0058 0120     		movs	r0, #1
 1438              	.LVL105:
 531:Generated_Source\PSoC5/ADC_DelSig.c **** 
 1439              		.loc 1 531 0
 1440 005a 10BD     		pop	{r4, pc}
 1441              	.LVL106:
 1442              	.L61:
 1443 005c AFF30080 		.align	3
 1444              	.L60:
ARM GAS  C:\Users\Nelson\AppData\Local\Temp\ccgC0n3g.s 			page 61


 1445 0060 8F537424 		.word	611603343
 1446 0064 97FFFF3F 		.word	1073741719
 1447 0068 00000000 		.word	.LANCHOR1
 1448 006c 00000000 		.word	.LANCHOR0
 1449 0070 0C4E0040 		.word	1073761804
 1450              		.cfi_endproc
 1451              	.LFE6:
 1452              		.size	ADC_DelSig_SetGCOR, .-ADC_DelSig_SetGCOR
 1453 0074 AFF30080 		.section	.text.ADC_DelSig_ReadGCOR,"ax",%progbits
 1454              		.align	2
 1455              		.global	ADC_DelSig_ReadGCOR
 1456              		.thumb
 1457              		.thumb_func
 1458              		.type	ADC_DelSig_ReadGCOR, %function
 1459              	ADC_DelSig_ReadGCOR:
 1460              	.LFB7:
 553:Generated_Source\PSoC5/ADC_DelSig.c ****     uint8 gValue;
 1461              		.loc 1 553 0
 1462              		.cfi_startproc
 1463              		@ args = 0, pretend = 0, frame = 0
 1464              		@ frame_needed = 0, uses_anonymous_args = 0
 1465              		@ link register save eliminated.
 557:Generated_Source\PSoC5/ADC_DelSig.c ****     gcorValue = CY_GET_REG16(ADC_DelSig_DEC_GCOR_16B_PTR);
 1466              		.loc 1 557 0
 1467 0000 064B     		ldr	r3, .L64
 1468 0002 1B78     		ldrb	r3, [r3]	@ zero_extendqisi2
 1469 0004 DBB2     		uxtb	r3, r3
 1470              	.LVL107:
 558:Generated_Source\PSoC5/ADC_DelSig.c **** 
 1471              		.loc 1 558 0
 1472 0006 064A     		ldr	r2, .L64+4
 1473 0008 1088     		ldrh	r0, [r2]
 1474 000a 80B2     		uxth	r0, r0
 1475              	.LVL108:
 560:Generated_Source\PSoC5/ADC_DelSig.c ****     {
 1476              		.loc 1 560 0
 1477 000c 0E2B     		cmp	r3, #14
 1478 000e 03D8     		bhi	.L63
 562:Generated_Source\PSoC5/ADC_DelSig.c ****     }
 1479              		.loc 1 562 0
 1480 0010 C3F10F03 		rsb	r3, r3, #15
 1481              	.LVL109:
 1482 0014 9840     		lsls	r0, r0, r3
 1483              	.LVL110:
 1484 0016 80B2     		uxth	r0, r0
 1485              	.LVL111:
 1486              	.L63:
 566:Generated_Source\PSoC5/ADC_DelSig.c **** 
 1487              		.loc 1 566 0
 1488 0018 7047     		bx	lr
 1489              	.L65:
 1490 001a 00BF     		.align	2
 1491              	.L64:
 1492 001c 0E4E0040 		.word	1073761806
 1493 0020 0C4E0040 		.word	1073761804
 1494              		.cfi_endproc
 1495              	.LFE7:
ARM GAS  C:\Users\Nelson\AppData\Local\Temp\ccgC0n3g.s 			page 62


 1496              		.size	ADC_DelSig_ReadGCOR, .-ADC_DelSig_ReadGCOR
 1497              		.section	.text.ADC_DelSig_StartConvert,"ax",%progbits
 1498              		.align	2
 1499              		.global	ADC_DelSig_StartConvert
 1500              		.thumb
 1501              		.thumb_func
 1502              		.type	ADC_DelSig_StartConvert, %function
 1503              	ADC_DelSig_StartConvert:
 1504              	.LFB8:
 587:Generated_Source\PSoC5/ADC_DelSig.c ****     /* Start the conversion */
 1505              		.loc 1 587 0
 1506              		.cfi_startproc
 1507              		@ args = 0, pretend = 0, frame = 0
 1508              		@ frame_needed = 0, uses_anonymous_args = 0
 1509              		@ link register save eliminated.
 589:Generated_Source\PSoC5/ADC_DelSig.c **** }
 1510              		.loc 1 589 0
 1511 0000 024A     		ldr	r2, .L67
 1512 0002 1378     		ldrb	r3, [r2]	@ zero_extendqisi2
 1513 0004 43F00103 		orr	r3, r3, #1
 1514 0008 1370     		strb	r3, [r2]
 1515 000a 7047     		bx	lr
 1516              	.L68:
 1517              		.align	2
 1518              	.L67:
 1519 000c 004E0040 		.word	1073761792
 1520              		.cfi_endproc
 1521              	.LFE8:
 1522              		.size	ADC_DelSig_StartConvert, .-ADC_DelSig_StartConvert
 1523              		.section	.text.ADC_DelSig_StopConvert,"ax",%progbits
 1524              		.align	2
 1525              		.global	ADC_DelSig_StopConvert
 1526              		.thumb
 1527              		.thumb_func
 1528              		.type	ADC_DelSig_StopConvert, %function
 1529              	ADC_DelSig_StopConvert:
 1530              	.LFB9:
 610:Generated_Source\PSoC5/ADC_DelSig.c ****     /* Stop all conversions */
 1531              		.loc 1 610 0
 1532              		.cfi_startproc
 1533              		@ args = 0, pretend = 0, frame = 0
 1534              		@ frame_needed = 0, uses_anonymous_args = 0
 1535              		@ link register save eliminated.
 612:Generated_Source\PSoC5/ADC_DelSig.c **** }
 1536              		.loc 1 612 0
 1537 0000 024A     		ldr	r2, .L70
 1538 0002 1378     		ldrb	r3, [r2]	@ zero_extendqisi2
 1539 0004 03F0FE03 		and	r3, r3, #254
 1540 0008 1370     		strb	r3, [r2]
 1541 000a 7047     		bx	lr
 1542              	.L71:
 1543              		.align	2
 1544              	.L70:
 1545 000c 004E0040 		.word	1073761792
 1546              		.cfi_endproc
 1547              	.LFE9:
 1548              		.size	ADC_DelSig_StopConvert, .-ADC_DelSig_StopConvert
ARM GAS  C:\Users\Nelson\AppData\Local\Temp\ccgC0n3g.s 			page 63


 1549              		.section	.text.ADC_DelSig_IsEndConversion,"ax",%progbits
 1550              		.align	2
 1551              		.global	ADC_DelSig_IsEndConversion
 1552              		.thumb
 1553              		.thumb_func
 1554              		.type	ADC_DelSig_IsEndConversion, %function
 1555              	ADC_DelSig_IsEndConversion:
 1556              	.LFB10:
 645:Generated_Source\PSoC5/ADC_DelSig.c ****     uint8 status;
 1557              		.loc 1 645 0
 1558              		.cfi_startproc
 1559              		@ args = 0, pretend = 0, frame = 0
 1560              		@ frame_needed = 0, uses_anonymous_args = 0
 1561              		@ link register save eliminated.
 1562              	.LVL112:
 1563              	.L76:
 653:Generated_Source\PSoC5/ADC_DelSig.c ****         {
 1564              		.loc 1 653 0
 1565 0000 094B     		ldr	r3, .L77
 1566 0002 1B7C     		ldrb	r3, [r3, #16]	@ zero_extendqisi2
 1567 0004 13F0FF0F 		tst	r3, #255
 1568 0008 03D0     		beq	.L73
 655:Generated_Source\PSoC5/ADC_DelSig.c ****         }
 1569              		.loc 1 655 0
 1570 000a 074B     		ldr	r3, .L77
 1571 000c 5B7C     		ldrb	r3, [r3, #17]	@ zero_extendqisi2
 1572 000e DBB2     		uxtb	r3, r3
 1573              	.LVL113:
 1574 0010 03E0     		b	.L74
 1575              	.LVL114:
 1576              	.L73:
 659:Generated_Source\PSoC5/ADC_DelSig.c ****         }
 1577              		.loc 1 659 0
 1578 0012 064B     		ldr	r3, .L77+4
 1579 0014 1B78     		ldrb	r3, [r3]	@ zero_extendqisi2
 1580 0016 03F00103 		and	r3, r3, #1
 1581              	.LVL115:
 1582              	.L74:
 661:Generated_Source\PSoC5/ADC_DelSig.c **** 
 1583              		.loc 1 661 0
 1584 001a 012B     		cmp	r3, #1
 1585 001c 01D0     		beq	.L75
 661:Generated_Source\PSoC5/ADC_DelSig.c **** 
 1586              		.loc 1 661 0 is_stmt 0 discriminator 1
 1587 001e 0028     		cmp	r0, #0
 1588 0020 EED0     		beq	.L76
 1589              	.L75:
 664:Generated_Source\PSoC5/ADC_DelSig.c **** 
 1590              		.loc 1 664 0 is_stmt 1
 1591 0022 1846     		mov	r0, r3
 1592              	.LVL116:
 1593 0024 7047     		bx	lr
 1594              	.L78:
 1595 0026 00BF     		.align	2
 1596              	.L77:
 1597 0028 00000000 		.word	.LANCHOR0
 1598 002c 014E0040 		.word	1073761793
ARM GAS  C:\Users\Nelson\AppData\Local\Temp\ccgC0n3g.s 			page 64


 1599              		.cfi_endproc
 1600              	.LFE10:
 1601              		.size	ADC_DelSig_IsEndConversion, .-ADC_DelSig_IsEndConversion
 1602              		.section	.text.ADC_DelSig_GetResult8,"ax",%progbits
 1603              		.align	2
 1604              		.global	ADC_DelSig_GetResult8
 1605              		.thumb
 1606              		.thumb_func
 1607              		.type	ADC_DelSig_GetResult8, %function
 1608              	ADC_DelSig_GetResult8:
 1609              	.LFB11:
 692:Generated_Source\PSoC5/ADC_DelSig.c ****     int8 result;
 1610              		.loc 1 692 0
 1611              		.cfi_startproc
 1612              		@ args = 0, pretend = 0, frame = 0
 1613              		@ frame_needed = 0, uses_anonymous_args = 0
 1614              		@ link register save eliminated.
 697:Generated_Source\PSoC5/ADC_DelSig.c **** 
 1615              		.loc 1 697 0
 1616 0000 0C4B     		ldr	r3, .L83
 1617 0002 1B78     		ldrb	r3, [r3]	@ zero_extendqisi2
 1618 0004 03F00303 		and	r3, r3, #3
 1619              	.LVL117:
 699:Generated_Source\PSoC5/ADC_DelSig.c **** 
 1620              		.loc 1 699 0
 1621 0008 0B4A     		ldr	r2, .L83+4
 1622 000a 1078     		ldrb	r0, [r2]	@ zero_extendqisi2
 1623              	.LVL118:
 701:Generated_Source\PSoC5/ADC_DelSig.c ****     {   /* Dummy read of the middle byte to unlock the coherency */
 1624              		.loc 1 701 0
 1625 000c 022B     		cmp	r3, #2
 1626 000e 02D1     		bne	.L80
 703:Generated_Source\PSoC5/ADC_DelSig.c ****     }
 1627              		.loc 1 703 0
 1628 0010 0A4B     		ldr	r3, .L83+8
 1629              	.LVL119:
 1630 0012 1B78     		ldrb	r3, [r3]	@ zero_extendqisi2
 1631 0014 03E0     		b	.L81
 1632              	.LVL120:
 1633              	.L80:
 705:Generated_Source\PSoC5/ADC_DelSig.c ****     {   /* Dummy read of the MSB byte to unlock the coherency */
 1634              		.loc 1 705 0
 1635 0016 032B     		cmp	r3, #3
 1636 0018 01D1     		bne	.L81
 707:Generated_Source\PSoC5/ADC_DelSig.c ****     }
 1637              		.loc 1 707 0
 1638 001a 094B     		ldr	r3, .L83+12
 1639              	.LVL121:
 1640 001c 1B78     		ldrb	r3, [r3]	@ zero_extendqisi2
 1641              	.L81:
 713:Generated_Source\PSoC5/ADC_DelSig.c ****     {
 1642              		.loc 1 713 0
 1643 001e 094B     		ldr	r3, .L83+16
 1644 0020 1B7C     		ldrb	r3, [r3, #16]	@ zero_extendqisi2
 1645 0022 13F0FF0F 		tst	r3, #255
 1646 0026 02D0     		beq	.L82
 715:Generated_Source\PSoC5/ADC_DelSig.c ****     }
ARM GAS  C:\Users\Nelson\AppData\Local\Temp\ccgC0n3g.s 			page 65


 1647              		.loc 1 715 0
 1648 0028 0022     		movs	r2, #0
 1649 002a 064B     		ldr	r3, .L83+16
 1650 002c 5A74     		strb	r2, [r3, #17]
 1651              	.L82:
 718:Generated_Source\PSoC5/ADC_DelSig.c **** 
 1652              		.loc 1 718 0
 1653 002e 40B2     		sxtb	r0, r0
 1654 0030 7047     		bx	lr
 1655              	.L84:
 1656 0032 00BF     		.align	2
 1657              	.L83:
 1658 0034 144E0040 		.word	1073761812
 1659 0038 104E0040 		.word	1073761808
 1660 003c 114E0040 		.word	1073761809
 1661 0040 124E0040 		.word	1073761810
 1662 0044 00000000 		.word	.LANCHOR0
 1663              		.cfi_endproc
 1664              	.LFE11:
 1665              		.size	ADC_DelSig_GetResult8, .-ADC_DelSig_GetResult8
 1666              		.section	.text.ADC_DelSig_GetResult16,"ax",%progbits
 1667              		.align	2
 1668              		.global	ADC_DelSig_GetResult16
 1669              		.thumb
 1670              		.thumb_func
 1671              		.type	ADC_DelSig_GetResult16, %function
 1672              	ADC_DelSig_GetResult16:
 1673              	.LFB12:
 746:Generated_Source\PSoC5/ADC_DelSig.c ****     uint16 result;
 1674              		.loc 1 746 0
 1675              		.cfi_startproc
 1676              		@ args = 0, pretend = 0, frame = 0
 1677              		@ frame_needed = 0, uses_anonymous_args = 0
 1678              		@ link register save eliminated.
 751:Generated_Source\PSoC5/ADC_DelSig.c **** 
 1679              		.loc 1 751 0
 1680 0000 0E4B     		ldr	r3, .L89
 1681 0002 1B78     		ldrb	r3, [r3]	@ zero_extendqisi2
 1682 0004 03F00303 		and	r3, r3, #3
 1683              	.LVL122:
 753:Generated_Source\PSoC5/ADC_DelSig.c ****     {   /*  Use default method to read result registers i.e. LSB byte read at the end*/
 1684              		.loc 1 753 0
 1685 0008 012B     		cmp	r3, #1
 1686 000a 03D8     		bhi	.L86
 759:Generated_Source\PSoC5/ADC_DelSig.c ****         #endif /* CY_PSOC3 */
 1687              		.loc 1 759 0
 1688 000c 0C4B     		ldr	r3, .L89+4
 1689              	.LVL123:
 1690 000e 1888     		ldrh	r0, [r3]
 1691 0010 80B2     		uxth	r0, r0
 1692              	.LVL124:
 1693 0012 09E0     		b	.L87
 1694              	.LVL125:
 1695              	.L86:
 767:Generated_Source\PSoC5/ADC_DelSig.c ****             result |=  (uint16)((uint16)ADC_DelSig_DEC_SAMPM_REG << 8u);
 1696              		.loc 1 767 0
 1697 0014 0A4A     		ldr	r2, .L89+4
ARM GAS  C:\Users\Nelson\AppData\Local\Temp\ccgC0n3g.s 			page 66


 1698 0016 1278     		ldrb	r2, [r2]	@ zero_extendqisi2
 1699              	.LVL126:
 768:Generated_Source\PSoC5/ADC_DelSig.c ****         #endif /* CY_PSOC3 */
 1700              		.loc 1 768 0
 1701 0018 0A49     		ldr	r1, .L89+8
 1702 001a 0878     		ldrb	r0, [r1]	@ zero_extendqisi2
 1703 001c 42EA0020 		orr	r0, r2, r0, lsl #8
 1704              	.LVL127:
 770:Generated_Source\PSoC5/ADC_DelSig.c ****         {   /* Dummy read of the MSB byte to unlock the coherency */
 1705              		.loc 1 770 0
 1706 0020 032B     		cmp	r3, #3
 1707 0022 01D1     		bne	.L87
 772:Generated_Source\PSoC5/ADC_DelSig.c ****         }
 1708              		.loc 1 772 0
 1709 0024 084B     		ldr	r3, .L89+12
 1710              	.LVL128:
 1711 0026 1B78     		ldrb	r3, [r3]	@ zero_extendqisi2
 1712              	.L87:
 776:Generated_Source\PSoC5/ADC_DelSig.c ****     {
 1713              		.loc 1 776 0
 1714 0028 084B     		ldr	r3, .L89+16
 1715 002a 1B7C     		ldrb	r3, [r3, #16]	@ zero_extendqisi2
 1716 002c 13F0FF0F 		tst	r3, #255
 1717 0030 02D0     		beq	.L88
 778:Generated_Source\PSoC5/ADC_DelSig.c ****     }
 1718              		.loc 1 778 0
 1719 0032 0022     		movs	r2, #0
 1720 0034 054B     		ldr	r3, .L89+16
 1721 0036 5A74     		strb	r2, [r3, #17]
 1722              	.L88:
 782:Generated_Source\PSoC5/ADC_DelSig.c **** 
 1723              		.loc 1 782 0
 1724 0038 00B2     		sxth	r0, r0
 1725 003a 7047     		bx	lr
 1726              	.L90:
 1727              		.align	2
 1728              	.L89:
 1729 003c 144E0040 		.word	1073761812
 1730 0040 104E0040 		.word	1073761808
 1731 0044 114E0040 		.word	1073761809
 1732 0048 124E0040 		.word	1073761810
 1733 004c 00000000 		.word	.LANCHOR0
 1734              		.cfi_endproc
 1735              	.LFE12:
 1736              		.size	ADC_DelSig_GetResult16, .-ADC_DelSig_GetResult16
 1737              		.section	.text.ADC_DelSig_GetResult32,"ax",%progbits
 1738              		.align	2
 1739              		.global	ADC_DelSig_GetResult32
 1740              		.thumb
 1741              		.thumb_func
 1742              		.type	ADC_DelSig_GetResult32, %function
 1743              	ADC_DelSig_GetResult32:
 1744              	.LFB13:
 806:Generated_Source\PSoC5/ADC_DelSig.c ****     uint32 result;
 1745              		.loc 1 806 0
 1746              		.cfi_startproc
 1747              		@ args = 0, pretend = 0, frame = 0
ARM GAS  C:\Users\Nelson\AppData\Local\Temp\ccgC0n3g.s 			page 67


 1748              		@ frame_needed = 0, uses_anonymous_args = 0
 1749              		@ link register save eliminated.
 814:Generated_Source\PSoC5/ADC_DelSig.c **** 
 1750              		.loc 1 814 0
 1751 0000 154B     		ldr	r3, .L96
 1752 0002 1B78     		ldrb	r3, [r3]	@ zero_extendqisi2
 1753 0004 03F00303 		and	r3, r3, #3
 1754              	.LVL129:
 816:Generated_Source\PSoC5/ADC_DelSig.c ****     {   /*  Use default method to read result registers i.e. LSB byte read at the end*/
 1755              		.loc 1 816 0
 1756 0008 012B     		cmp	r3, #1
 1757 000a 07D8     		bhi	.L92
 827:Generated_Source\PSoC5/ADC_DelSig.c ****             result = (result << 16u) | (CY_GET_REG16(ADC_DelSig_DEC_SAMP_16B_PTR));
 1758              		.loc 1 827 0
 1759 000c 134B     		ldr	r3, .L96+4
 1760              	.LVL130:
 1761 000e 1888     		ldrh	r0, [r3]
 1762              	.LVL131:
 828:Generated_Source\PSoC5/ADC_DelSig.c ****         #endif /* CY_PSOC3 */
 1763              		.loc 1 828 0
 1764 0010 023B     		subs	r3, r3, #2
 1765 0012 1B88     		ldrh	r3, [r3]
 1766 0014 9BB2     		uxth	r3, r3
 1767 0016 43EA0040 		orr	r0, r3, r0, lsl #16
 1768              	.LVL132:
 1769 001a 13E0     		b	.L93
 1770              	.LVL133:
 1771              	.L92:
 831:Generated_Source\PSoC5/ADC_DelSig.c ****     {   /* Read middle byte at the end */
 1772              		.loc 1 831 0
 1773 001c 022B     		cmp	r3, #2
 1774 001e 0AD1     		bne	.L94
 841:Generated_Source\PSoC5/ADC_DelSig.c ****             result = (result << 16u) | ADC_DelSig_DEC_SAMP_REG;
 1775              		.loc 1 841 0
 1776 0020 0E4B     		ldr	r3, .L96+4
 1777              	.LVL134:
 1778 0022 1888     		ldrh	r0, [r3]
 1779              	.LVL135:
 842:Generated_Source\PSoC5/ADC_DelSig.c ****             result |=  (uint32)((uint32)ADC_DelSig_DEC_SAMPM_REG << 8u);
 1780              		.loc 1 842 0
 1781 0024 023B     		subs	r3, r3, #2
 1782 0026 1B78     		ldrb	r3, [r3]	@ zero_extendqisi2
 1783 0028 43EA0043 		orr	r3, r3, r0, lsl #16
 1784              	.LVL136:
 843:Generated_Source\PSoC5/ADC_DelSig.c ****         #endif /* CY_PSOC3 */
 1785              		.loc 1 843 0
 1786 002c 0C4A     		ldr	r2, .L96+8
 1787 002e 1078     		ldrb	r0, [r2]	@ zero_extendqisi2
 1788 0030 43EA0020 		orr	r0, r3, r0, lsl #8
 1789              	.LVL137:
 1790 0034 06E0     		b	.L93
 1791              	.LVL138:
 1792              	.L94:
 858:Generated_Source\PSoC5/ADC_DelSig.c ****             result |= (uint32)((uint32)CY_GET_REG16(ADC_DelSig_DEC_SAMPH_16B_PTR) << 16u);
 1793              		.loc 1 858 0
 1794 0036 0B4B     		ldr	r3, .L96+12
 1795              	.LVL139:
ARM GAS  C:\Users\Nelson\AppData\Local\Temp\ccgC0n3g.s 			page 68


 1796 0038 1888     		ldrh	r0, [r3]
 1797 003a 83B2     		uxth	r3, r0
 1798              	.LVL140:
 859:Generated_Source\PSoC5/ADC_DelSig.c ****         #endif /* CY_PSOC3 */
 1799              		.loc 1 859 0
 1800 003c 074A     		ldr	r2, .L96+4
 1801 003e 1088     		ldrh	r0, [r2]
 1802 0040 43EA0040 		orr	r0, r3, r0, lsl #16
 1803              	.LVL141:
 1804              	.L93:
 863:Generated_Source\PSoC5/ADC_DelSig.c ****     {
 1805              		.loc 1 863 0
 1806 0044 084B     		ldr	r3, .L96+16
 1807 0046 1B7C     		ldrb	r3, [r3, #16]	@ zero_extendqisi2
 1808 0048 13F0FF0F 		tst	r3, #255
 1809 004c 02D0     		beq	.L95
 865:Generated_Source\PSoC5/ADC_DelSig.c ****     }
 1810              		.loc 1 865 0
 1811 004e 0022     		movs	r2, #0
 1812 0050 054B     		ldr	r3, .L96+16
 1813 0052 5A74     		strb	r2, [r3, #17]
 1814              	.L95:
 869:Generated_Source\PSoC5/ADC_DelSig.c **** 
 1815              		.loc 1 869 0
 1816 0054 7047     		bx	lr
 1817              	.L97:
 1818 0056 00BF     		.align	2
 1819              	.L96:
 1820 0058 144E0040 		.word	1073761812
 1821 005c 124E0040 		.word	1073761810
 1822 0060 114E0040 		.word	1073761809
 1823 0064 104E0040 		.word	1073761808
 1824 0068 00000000 		.word	.LANCHOR0
 1825              		.cfi_endproc
 1826              	.LFE13:
 1827              		.size	ADC_DelSig_GetResult32, .-ADC_DelSig_GetResult32
 1828              		.section	.text.ADC_DelSig_SetOffset,"ax",%progbits
 1829              		.align	2
 1830              		.global	ADC_DelSig_SetOffset
 1831              		.thumb
 1832              		.thumb_func
 1833              		.type	ADC_DelSig_SetOffset, %function
 1834              	ADC_DelSig_SetOffset:
 1835              	.LFB14:
 899:Generated_Source\PSoC5/ADC_DelSig.c **** 
 1836              		.loc 1 899 0
 1837              		.cfi_startproc
 1838              		@ args = 0, pretend = 0, frame = 0
 1839              		@ frame_needed = 0, uses_anonymous_args = 0
 1840              		@ link register save eliminated.
 1841              	.LVL142:
 901:Generated_Source\PSoC5/ADC_DelSig.c **** }
 1842              		.loc 1 901 0
 1843 0000 014B     		ldr	r3, .L99
 1844 0002 1860     		str	r0, [r3]
 1845 0004 7047     		bx	lr
 1846              	.L100:
ARM GAS  C:\Users\Nelson\AppData\Local\Temp\ccgC0n3g.s 			page 69


 1847 0006 00BF     		.align	2
 1848              	.L99:
 1849 0008 00000000 		.word	ADC_DelSig_Offset
 1850              		.cfi_endproc
 1851              	.LFE14:
 1852              		.size	ADC_DelSig_SetOffset, .-ADC_DelSig_SetOffset
 1853              		.section	.text.ADC_DelSig_SetGain,"ax",%progbits
 1854              		.align	2
 1855              		.global	ADC_DelSig_SetGain
 1856              		.thumb
 1857              		.thumb_func
 1858              		.type	ADC_DelSig_SetGain, %function
 1859              	ADC_DelSig_SetGain:
 1860              	.LFB15:
 934:Generated_Source\PSoC5/ADC_DelSig.c ****     ADC_DelSig_CountsPerVolt = adcGain;
 1861              		.loc 1 934 0
 1862              		.cfi_startproc
 1863              		@ args = 0, pretend = 0, frame = 0
 1864              		@ frame_needed = 0, uses_anonymous_args = 0
 1865              		@ link register save eliminated.
 1866              	.LVL143:
 935:Generated_Source\PSoC5/ADC_DelSig.c **** }
 1867              		.loc 1 935 0
 1868 0000 014B     		ldr	r3, .L102
 1869 0002 1860     		str	r0, [r3]
 1870 0004 7047     		bx	lr
 1871              	.L103:
 1872 0006 00BF     		.align	2
 1873              	.L102:
 1874 0008 00000000 		.word	ADC_DelSig_CountsPerVolt
 1875              		.cfi_endproc
 1876              	.LFE15:
 1877              		.size	ADC_DelSig_SetGain, .-ADC_DelSig_SetGain
 1878              		.section	.text.ADC_DelSig_CountsTo_mVolts,"ax",%progbits
 1879              		.align	2
 1880              		.global	ADC_DelSig_CountsTo_mVolts
 1881              		.thumb
 1882              		.thumb_func
 1883              		.type	ADC_DelSig_CountsTo_mVolts, %function
 1884              	ADC_DelSig_CountsTo_mVolts:
 1885              	.LFB16:
 961:Generated_Source\PSoC5/ADC_DelSig.c **** 
 1886              		.loc 1 961 0
 1887              		.cfi_startproc
 1888              		@ args = 0, pretend = 0, frame = 0
 1889              		@ frame_needed = 0, uses_anonymous_args = 0
 1890              		@ link register save eliminated.
 1891              	.LVL144:
 992:Generated_Source\PSoC5/ADC_DelSig.c **** 
 1892              		.loc 1 992 0
 1893 0000 064B     		ldr	r3, .L105
 1894 0002 1B68     		ldr	r3, [r3]
 1895 0004 C01A     		subs	r0, r0, r3
 1896              	.LVL145:
 994:Generated_Source\PSoC5/ADC_DelSig.c **** 
 1897              		.loc 1 994 0
 1898 0006 4FF47A73 		mov	r3, #1000
ARM GAS  C:\Users\Nelson\AppData\Local\Temp\ccgC0n3g.s 			page 70


 1899 000a 03FB00F0 		mul	r0, r3, r0
 1900              	.LVL146:
 1901 000e 044B     		ldr	r3, .L105+4
 1902 0010 1B68     		ldr	r3, [r3]
 1903 0012 90FBF3F0 		sdiv	r0, r0, r3
 1904              	.LVL147:
 997:Generated_Source\PSoC5/ADC_DelSig.c **** 
 1905              		.loc 1 997 0
 1906 0016 00B2     		sxth	r0, r0
 1907 0018 7047     		bx	lr
 1908              	.L106:
 1909 001a 00BF     		.align	2
 1910              	.L105:
 1911 001c 00000000 		.word	ADC_DelSig_Offset
 1912 0020 00000000 		.word	ADC_DelSig_CountsPerVolt
 1913              		.cfi_endproc
 1914              	.LFE16:
 1915              		.size	ADC_DelSig_CountsTo_mVolts, .-ADC_DelSig_CountsTo_mVolts
 1916              		.global	__aeabi_i2f
 1917              		.global	__aeabi_fdiv
 1918              		.section	.text.ADC_DelSig_CountsTo_Volts,"ax",%progbits
 1919              		.align	2
 1920              		.global	ADC_DelSig_CountsTo_Volts
 1921              		.thumb
 1922              		.thumb_func
 1923              		.type	ADC_DelSig_CountsTo_Volts, %function
 1924              	ADC_DelSig_CountsTo_Volts:
 1925              	.LFB17:
1022:Generated_Source\PSoC5/ADC_DelSig.c **** 
 1926              		.loc 1 1022 0
 1927              		.cfi_startproc
 1928              		@ args = 0, pretend = 0, frame = 0
 1929              		@ frame_needed = 0, uses_anonymous_args = 0
 1930              	.LVL148:
 1931 0000 10B5     		push	{r4, lr}
 1932              		.cfi_def_cfa_offset 8
 1933              		.cfi_offset 4, -8
 1934              		.cfi_offset 14, -4
1053:Generated_Source\PSoC5/ADC_DelSig.c **** 
 1935              		.loc 1 1053 0
 1936 0002 074B     		ldr	r3, .L109
 1937 0004 1B68     		ldr	r3, [r3]
 1938              	.LVL149:
1055:Generated_Source\PSoC5/ADC_DelSig.c **** 
 1939              		.loc 1 1055 0
 1940 0006 C01A     		subs	r0, r0, r3
 1941              	.LVL150:
 1942 0008 FFF7FEFF 		bl	__aeabi_i2f
 1943              	.LVL151:
 1944 000c 0446     		mov	r4, r0
 1945 000e 054B     		ldr	r3, .L109+4
 1946 0010 1868     		ldr	r0, [r3]
 1947 0012 FFF7FEFF 		bl	__aeabi_i2f
 1948              	.LVL152:
 1949 0016 0146     		mov	r1, r0
 1950 0018 2046     		mov	r0, r4
 1951 001a FFF7FEFF 		bl	__aeabi_fdiv
ARM GAS  C:\Users\Nelson\AppData\Local\Temp\ccgC0n3g.s 			page 71


 1952              	.LVL153:
1058:Generated_Source\PSoC5/ADC_DelSig.c **** 
 1953              		.loc 1 1058 0
 1954 001e 10BD     		pop	{r4, pc}
 1955              	.L110:
 1956              		.align	2
 1957              	.L109:
 1958 0020 00000000 		.word	ADC_DelSig_Offset
 1959 0024 00000000 		.word	ADC_DelSig_CountsPerVolt
 1960              		.cfi_endproc
 1961              	.LFE17:
 1962              		.size	ADC_DelSig_CountsTo_Volts, .-ADC_DelSig_CountsTo_Volts
 1963              		.section	.text.ADC_DelSig_CountsTo_uVolts,"ax",%progbits
 1964              		.align	2
 1965              		.global	ADC_DelSig_CountsTo_uVolts
 1966              		.thumb
 1967              		.thumb_func
 1968              		.type	ADC_DelSig_CountsTo_uVolts, %function
 1969              	ADC_DelSig_CountsTo_uVolts:
 1970              	.LFB18:
1088:Generated_Source\PSoC5/ADC_DelSig.c **** 
 1971              		.loc 1 1088 0
 1972              		.cfi_startproc
 1973              		@ args = 0, pretend = 0, frame = 0
 1974              		@ frame_needed = 0, uses_anonymous_args = 0
 1975              		@ link register save eliminated.
 1976              	.LVL154:
1097:Generated_Source\PSoC5/ADC_DelSig.c ****     {
 1977              		.loc 1 1097 0
 1978 0000 144B     		ldr	r3, .L119
 1979 0002 1B78     		ldrb	r3, [r3]	@ zero_extendqisi2
 1980 0004 DBB2     		uxtb	r3, r3
 1981 0006 012B     		cmp	r3, #1
 1982 0008 08D0     		beq	.L115
1104:Generated_Source\PSoC5/ADC_DelSig.c ****     {
 1983              		.loc 1 1104 0
 1984 000a 124B     		ldr	r3, .L119
 1985 000c 1B78     		ldrb	r3, [r3]	@ zero_extendqisi2
 1986 000e DBB2     		uxtb	r3, r3
 1987 0010 022B     		cmp	r3, #2
 1988 0012 05D0     		beq	.L116
1111:Generated_Source\PSoC5/ADC_DelSig.c ****     {
 1989              		.loc 1 1111 0
 1990 0014 0F4B     		ldr	r3, .L119
 1991 0016 1B78     		ldrb	r3, [r3]	@ zero_extendqisi2
1113:Generated_Source\PSoC5/ADC_DelSig.c ****         #if(ADC_DelSig_CFG3_DEC_DIV != 0)
 1992              		.loc 1 1113 0
 1993 0018 1023     		movs	r3, #16
 1994 001a 02E0     		b	.L112
 1995              	.L115:
1099:Generated_Source\PSoC5/ADC_DelSig.c ****         #if(ADC_DelSig_CFG1_DEC_DIV != 0)
 1996              		.loc 1 1099 0
 1997 001c 0823     		movs	r3, #8
 1998 001e 00E0     		b	.L112
 1999              	.L116:
1106:Generated_Source\PSoC5/ADC_DelSig.c ****         #if(ADC_DelSig_CFG2_DEC_DIV != 0)
 2000              		.loc 1 1106 0
ARM GAS  C:\Users\Nelson\AppData\Local\Temp\ccgC0n3g.s 			page 72


 2001 0020 1023     		movs	r3, #16
 2002              	.L112:
 2003              	.LVL155:
1126:Generated_Source\PSoC5/ADC_DelSig.c ****     {
 2004              		.loc 1 1126 0
 2005 0022 102B     		cmp	r3, #16
 2006 0024 03D1     		bne	.L118
1170:Generated_Source\PSoC5/ADC_DelSig.c ****                 break;
 2007              		.loc 1 1170 0
 2008 0026 2021     		movs	r1, #32
1169:Generated_Source\PSoC5/ADC_DelSig.c ****                 coefB = ADC_DelSig_DIVISOR_32;
 2009              		.loc 1 1169 0
 2010 0028 47F61223 		movw	r3, #31250
 2011              	.LVL156:
 2012 002c 01E0     		b	.L113
 2013              	.LVL157:
 2014              	.L118:
1212:Generated_Source\PSoC5/ADC_DelSig.c ****             break;
 2015              		.loc 1 1212 0
 2016 002e 0121     		movs	r1, #1
1211:Generated_Source\PSoC5/ADC_DelSig.c ****             coefB = ADC_DelSig_DIVISOR_1;
 2017              		.loc 1 1211 0
 2018 0030 094B     		ldr	r3, .L119+4
 2019              	.LVL158:
 2020              	.L113:
1215:Generated_Source\PSoC5/ADC_DelSig.c ****     uVolts = ((coefA * adcCounts) / coefB) - ((coefA * ADC_DelSig_Offset) / coefB);
 2021              		.loc 1 1215 0
 2022 0032 0A4A     		ldr	r2, .L119+8
 2023 0034 1268     		ldr	r2, [r2]
 2024 0036 92FBF1F1 		sdiv	r1, r2, r1
 2025              	.LVL159:
1216:Generated_Source\PSoC5/ADC_DelSig.c **** 
 2026              		.loc 1 1216 0
 2027 003a 00FB03F0 		mul	r0, r0, r3
 2028              	.LVL160:
 2029 003e 90FBF1F0 		sdiv	r0, r0, r1
 2030 0042 074A     		ldr	r2, .L119+12
 2031 0044 1268     		ldr	r2, [r2]
 2032 0046 02FB03F3 		mul	r3, r2, r3
 2033              	.LVL161:
 2034 004a 93FBF1F3 		sdiv	r3, r3, r1
 2035              	.LVL162:
1219:Generated_Source\PSoC5/ADC_DelSig.c **** 
 2036              		.loc 1 1219 0
 2037 004e C01A     		subs	r0, r0, r3
 2038              	.LVL163:
 2039 0050 7047     		bx	lr
 2040              	.L120:
 2041 0052 00BF     		.align	2
 2042              	.L119:
 2043 0054 00000000 		.word	.LANCHOR1
 2044 0058 40420F00 		.word	1000000
 2045 005c 00000000 		.word	ADC_DelSig_CountsPerVolt
 2046 0060 00000000 		.word	ADC_DelSig_Offset
 2047              		.cfi_endproc
 2048              	.LFE18:
 2049              		.size	ADC_DelSig_CountsTo_uVolts, .-ADC_DelSig_CountsTo_uVolts
ARM GAS  C:\Users\Nelson\AppData\Local\Temp\ccgC0n3g.s 			page 73


 2050              		.section	.text.ADC_DelSig_SelectConfiguration,"ax",%progbits
 2051              		.align	2
 2052              		.global	ADC_DelSig_SelectConfiguration
 2053              		.thumb
 2054              		.thumb_func
 2055              		.type	ADC_DelSig_SelectConfiguration, %function
 2056              	ADC_DelSig_SelectConfiguration:
 2057              	.LFB20:
1554:Generated_Source\PSoC5/ADC_DelSig.c ****     /* Check whether the configuration number is valid or not */
 2058              		.loc 1 1554 0
 2059              		.cfi_startproc
 2060              		@ args = 0, pretend = 0, frame = 0
 2061              		@ frame_needed = 0, uses_anonymous_args = 0
 2062              	.LVL164:
 2063 0000 38B5     		push	{r3, r4, r5, lr}
 2064              		.cfi_def_cfa_offset 16
 2065              		.cfi_offset 3, -16
 2066              		.cfi_offset 4, -12
 2067              		.cfi_offset 5, -8
 2068              		.cfi_offset 14, -4
 2069 0002 0446     		mov	r4, r0
1556:Generated_Source\PSoC5/ADC_DelSig.c ****     {
 2070              		.loc 1 1556 0
 2071 0004 431E     		subs	r3, r0, #1
 2072 0006 DBB2     		uxtb	r3, r3
 2073 0008 032B     		cmp	r3, #3
 2074 000a 1FD8     		bhi	.L122
 2075 000c 0D46     		mov	r5, r1
1561:Generated_Source\PSoC5/ADC_DelSig.c ****         {
 2076              		.loc 1 1561 0
 2077 000e 114B     		ldr	r3, .L126
 2078 0010 9B7C     		ldrb	r3, [r3, #18]	@ zero_extendqisi2
 2079 0012 13B9     		cbnz	r3, .L123
1563:Generated_Source\PSoC5/ADC_DelSig.c ****         }
 2080              		.loc 1 1563 0
 2081 0014 0122     		movs	r2, #1
 2082 0016 0F4B     		ldr	r3, .L126
 2083 0018 DA74     		strb	r2, [r3, #19]
 2084              	.L123:
1567:Generated_Source\PSoC5/ADC_DelSig.c **** 
 2085              		.loc 1 1567 0
 2086 001a 0F4B     		ldr	r3, .L126+4
 2087 001c 1C70     		strb	r4, [r3]
1570:Generated_Source\PSoC5/ADC_DelSig.c **** 
 2088              		.loc 1 1570 0
 2089 001e FFF7FEFF 		bl	ADC_DelSig_Stop
 2090              	.LVL165:
1573:Generated_Source\PSoC5/ADC_DelSig.c **** 
 2091              		.loc 1 1573 0
 2092 0022 2046     		mov	r0, r4
 2093 0024 FFF7FEFF 		bl	ADC_DelSig_InitConfig
 2094              	.LVL166:
1576:Generated_Source\PSoC5/ADC_DelSig.c ****         CY_SET_REG16(ADC_DelSig_DEC_GCOR_16B_PTR, ADC_DelSig_gcor[config - 1u].gcor);
 2095              		.loc 1 1576 0
 2096 0028 013C     		subs	r4, r4, #1
 2097 002a 0A4B     		ldr	r3, .L126
 2098 002c 03EB8402 		add	r2, r3, r4, lsl #2
ARM GAS  C:\Users\Nelson\AppData\Local\Temp\ccgC0n3g.s 			page 74


 2099 0030 9178     		ldrb	r1, [r2, #2]	@ zero_extendqisi2
 2100 0032 0A4A     		ldr	r2, .L126+8
 2101 0034 1170     		strb	r1, [r2]
1577:Generated_Source\PSoC5/ADC_DelSig.c **** 
 2102              		.loc 1 1577 0
 2103 0036 33F82420 		ldrh	r2, [r3, r4, lsl #2]
 2104 003a 094B     		ldr	r3, .L126+12
 2105 003c 1A80     		strh	r2, [r3]	@ movhi
1579:Generated_Source\PSoC5/ADC_DelSig.c ****         {
 2106              		.loc 1 1579 0
 2107 003e 012D     		cmp	r5, #1
 2108 0040 07D1     		bne	.L121
1582:Generated_Source\PSoC5/ADC_DelSig.c **** 
 2109              		.loc 1 1582 0
 2110 0042 FFF7FEFF 		bl	ADC_DelSig_Start
 2111              	.LVL167:
1585:Generated_Source\PSoC5/ADC_DelSig.c ****         }
 2112              		.loc 1 1585 0
 2113 0046 FFF7FEFF 		bl	ADC_DelSig_StartConvert
 2114              	.LVL168:
 2115 004a 38BD     		pop	{r3, r4, r5, pc}
 2116              	.LVL169:
 2117              	.L122:
1591:Generated_Source\PSoC5/ADC_DelSig.c ****     }
 2118              		.loc 1 1591 0 discriminator 1
 2119 004c 0020     		movs	r0, #0
 2120              	.LVL170:
 2121 004e FFF7FEFF 		bl	CyHalt
 2122              	.LVL171:
 2123              	.L121:
 2124 0052 38BD     		pop	{r3, r4, r5, pc}
 2125              	.L127:
 2126              		.align	2
 2127              	.L126:
 2128 0054 00000000 		.word	.LANCHOR0
 2129 0058 00000000 		.word	.LANCHOR1
 2130 005c 0E4E0040 		.word	1073761806
 2131 0060 0C4E0040 		.word	1073761804
 2132              		.cfi_endproc
 2133              	.LFE20:
 2134              		.size	ADC_DelSig_SelectConfiguration, .-ADC_DelSig_SelectConfiguration
 2135              		.section	.text.ADC_DelSig_Read8,"ax",%progbits
 2136              		.align	2
 2137              		.global	ADC_DelSig_Read8
 2138              		.thumb
 2139              		.thumb_func
 2140              		.type	ADC_DelSig_Read8, %function
 2141              	ADC_DelSig_Read8:
 2142              	.LFB23:
1741:Generated_Source\PSoC5/ADC_DelSig.c **** }
1742:Generated_Source\PSoC5/ADC_DelSig.c **** 
1743:Generated_Source\PSoC5/ADC_DelSig.c **** 
1744:Generated_Source\PSoC5/ADC_DelSig.c **** /*******************************************************************************
1745:Generated_Source\PSoC5/ADC_DelSig.c **** * Function Name: ADC_DelSig_Read8
1746:Generated_Source\PSoC5/ADC_DelSig.c **** ********************************************************************************
1747:Generated_Source\PSoC5/ADC_DelSig.c **** *
1748:Generated_Source\PSoC5/ADC_DelSig.c **** * Summary:
ARM GAS  C:\Users\Nelson\AppData\Local\Temp\ccgC0n3g.s 			page 75


1749:Generated_Source\PSoC5/ADC_DelSig.c **** *  This function simplifies getting results from the ADC when only a
1750:Generated_Source\PSoC5/ADC_DelSig.c **** *  single reading is required. When called, it will start ADC
1751:Generated_Source\PSoC5/ADC_DelSig.c **** *  conversions, wait for the conversion to be complete, stop ADC
1752:Generated_Source\PSoC5/ADC_DelSig.c **** *  conversion and return the result. This is a blocking function and will
1753:Generated_Source\PSoC5/ADC_DelSig.c **** *  not return until the result is ready.
1754:Generated_Source\PSoC5/ADC_DelSig.c **** *
1755:Generated_Source\PSoC5/ADC_DelSig.c **** * Parameters:
1756:Generated_Source\PSoC5/ADC_DelSig.c **** *  None
1757:Generated_Source\PSoC5/ADC_DelSig.c **** *
1758:Generated_Source\PSoC5/ADC_DelSig.c **** * Return:
1759:Generated_Source\PSoC5/ADC_DelSig.c **** *  int8:  ADC result.
1760:Generated_Source\PSoC5/ADC_DelSig.c **** *
1761:Generated_Source\PSoC5/ADC_DelSig.c **** *******************************************************************************/
1762:Generated_Source\PSoC5/ADC_DelSig.c **** int8 ADC_DelSig_Read8(void) 
1763:Generated_Source\PSoC5/ADC_DelSig.c **** {
 2143              		.loc 1 1763 0
 2144              		.cfi_startproc
 2145              		@ args = 0, pretend = 0, frame = 0
 2146              		@ frame_needed = 0, uses_anonymous_args = 0
 2147 0000 10B5     		push	{r4, lr}
 2148              		.cfi_def_cfa_offset 8
 2149              		.cfi_offset 4, -8
 2150              		.cfi_offset 14, -4
1764:Generated_Source\PSoC5/ADC_DelSig.c ****     int8 result;
1765:Generated_Source\PSoC5/ADC_DelSig.c **** 
1766:Generated_Source\PSoC5/ADC_DelSig.c ****     /* Clear pending conversion done status */
1767:Generated_Source\PSoC5/ADC_DelSig.c ****     ADC_DelSig_DEC_SR_REG |= ADC_DelSig_DEC_INTR_CLEAR;
 2151              		.loc 1 1767 0
 2152 0002 084A     		ldr	r2, .L130
 2153 0004 1378     		ldrb	r3, [r2]	@ zero_extendqisi2
 2154 0006 43F00403 		orr	r3, r3, #4
 2155 000a 1370     		strb	r3, [r2]
1768:Generated_Source\PSoC5/ADC_DelSig.c ****     ADC_DelSig_StartConvert();
 2156              		.loc 1 1768 0
 2157 000c FFF7FEFF 		bl	ADC_DelSig_StartConvert
 2158              	.LVL172:
1769:Generated_Source\PSoC5/ADC_DelSig.c ****     (void)ADC_DelSig_IsEndConversion(ADC_DelSig_WAIT_FOR_RESULT);
 2159              		.loc 1 1769 0
 2160 0010 0020     		movs	r0, #0
 2161 0012 FFF7FEFF 		bl	ADC_DelSig_IsEndConversion
 2162              	.LVL173:
1770:Generated_Source\PSoC5/ADC_DelSig.c ****      result = ADC_DelSig_GetResult8();
 2163              		.loc 1 1770 0
 2164 0016 FFF7FEFF 		bl	ADC_DelSig_GetResult8
 2165              	.LVL174:
 2166 001a 0446     		mov	r4, r0
 2167              	.LVL175:
1771:Generated_Source\PSoC5/ADC_DelSig.c ****     ADC_DelSig_StopConvert();
 2168              		.loc 1 1771 0
 2169 001c FFF7FEFF 		bl	ADC_DelSig_StopConvert
 2170              	.LVL176:
1772:Generated_Source\PSoC5/ADC_DelSig.c ****     
1773:Generated_Source\PSoC5/ADC_DelSig.c ****      return(result);
1774:Generated_Source\PSoC5/ADC_DelSig.c **** }
 2171              		.loc 1 1774 0
 2172 0020 2046     		mov	r0, r4
 2173 0022 10BD     		pop	{r4, pc}
ARM GAS  C:\Users\Nelson\AppData\Local\Temp\ccgC0n3g.s 			page 76


 2174              	.LVL177:
 2175              	.L131:
 2176              		.align	2
 2177              	.L130:
 2178 0024 014E0040 		.word	1073761793
 2179              		.cfi_endproc
 2180              	.LFE23:
 2181              		.size	ADC_DelSig_Read8, .-ADC_DelSig_Read8
 2182              		.section	.text.ADC_DelSig_Read16,"ax",%progbits
 2183              		.align	2
 2184              		.global	ADC_DelSig_Read16
 2185              		.thumb
 2186              		.thumb_func
 2187              		.type	ADC_DelSig_Read16, %function
 2188              	ADC_DelSig_Read16:
 2189              	.LFB24:
1775:Generated_Source\PSoC5/ADC_DelSig.c **** 
1776:Generated_Source\PSoC5/ADC_DelSig.c **** 
1777:Generated_Source\PSoC5/ADC_DelSig.c **** /*******************************************************************************
1778:Generated_Source\PSoC5/ADC_DelSig.c **** * Function Name: ADC_DelSig_Read16
1779:Generated_Source\PSoC5/ADC_DelSig.c **** ********************************************************************************
1780:Generated_Source\PSoC5/ADC_DelSig.c **** *
1781:Generated_Source\PSoC5/ADC_DelSig.c **** * Summary:
1782:Generated_Source\PSoC5/ADC_DelSig.c **** *  This function simplifies getting results from the ADC when only a
1783:Generated_Source\PSoC5/ADC_DelSig.c **** *  single reading is required. When called, it will start ADC
1784:Generated_Source\PSoC5/ADC_DelSig.c **** *  conversions, wait for the conversion to be complete, stop ADC
1785:Generated_Source\PSoC5/ADC_DelSig.c **** *  conversion and return the result. This is a blocking function and will
1786:Generated_Source\PSoC5/ADC_DelSig.c **** *  not return until the result is ready.
1787:Generated_Source\PSoC5/ADC_DelSig.c **** *
1788:Generated_Source\PSoC5/ADC_DelSig.c **** * Parameters:
1789:Generated_Source\PSoC5/ADC_DelSig.c **** *   void
1790:Generated_Source\PSoC5/ADC_DelSig.c **** *
1791:Generated_Source\PSoC5/ADC_DelSig.c **** * Return:
1792:Generated_Source\PSoC5/ADC_DelSig.c **** *  int16:  ADC result.
1793:Generated_Source\PSoC5/ADC_DelSig.c **** *
1794:Generated_Source\PSoC5/ADC_DelSig.c **** *******************************************************************************/
1795:Generated_Source\PSoC5/ADC_DelSig.c **** int16 ADC_DelSig_Read16(void) 
1796:Generated_Source\PSoC5/ADC_DelSig.c **** {
 2190              		.loc 1 1796 0
 2191              		.cfi_startproc
 2192              		@ args = 0, pretend = 0, frame = 0
 2193              		@ frame_needed = 0, uses_anonymous_args = 0
 2194 0000 10B5     		push	{r4, lr}
 2195              		.cfi_def_cfa_offset 8
 2196              		.cfi_offset 4, -8
 2197              		.cfi_offset 14, -4
1797:Generated_Source\PSoC5/ADC_DelSig.c ****     int16 result;
1798:Generated_Source\PSoC5/ADC_DelSig.c **** 
1799:Generated_Source\PSoC5/ADC_DelSig.c ****     /* Clear pending conversion done status */
1800:Generated_Source\PSoC5/ADC_DelSig.c ****     ADC_DelSig_DEC_SR_REG |= ADC_DelSig_DEC_INTR_CLEAR;
 2198              		.loc 1 1800 0
 2199 0002 084A     		ldr	r2, .L134
 2200 0004 1378     		ldrb	r3, [r2]	@ zero_extendqisi2
 2201 0006 43F00403 		orr	r3, r3, #4
 2202 000a 1370     		strb	r3, [r2]
1801:Generated_Source\PSoC5/ADC_DelSig.c ****     ADC_DelSig_StartConvert();
 2203              		.loc 1 1801 0
ARM GAS  C:\Users\Nelson\AppData\Local\Temp\ccgC0n3g.s 			page 77


 2204 000c FFF7FEFF 		bl	ADC_DelSig_StartConvert
 2205              	.LVL178:
1802:Generated_Source\PSoC5/ADC_DelSig.c ****     (void)ADC_DelSig_IsEndConversion(ADC_DelSig_WAIT_FOR_RESULT);
 2206              		.loc 1 1802 0
 2207 0010 0020     		movs	r0, #0
 2208 0012 FFF7FEFF 		bl	ADC_DelSig_IsEndConversion
 2209              	.LVL179:
1803:Generated_Source\PSoC5/ADC_DelSig.c ****      result = ADC_DelSig_GetResult16();
 2210              		.loc 1 1803 0
 2211 0016 FFF7FEFF 		bl	ADC_DelSig_GetResult16
 2212              	.LVL180:
 2213 001a 0446     		mov	r4, r0
 2214              	.LVL181:
1804:Generated_Source\PSoC5/ADC_DelSig.c ****     ADC_DelSig_StopConvert();
 2215              		.loc 1 1804 0
 2216 001c FFF7FEFF 		bl	ADC_DelSig_StopConvert
 2217              	.LVL182:
1805:Generated_Source\PSoC5/ADC_DelSig.c ****     
1806:Generated_Source\PSoC5/ADC_DelSig.c ****      return(result);
1807:Generated_Source\PSoC5/ADC_DelSig.c **** }
 2218              		.loc 1 1807 0
 2219 0020 2046     		mov	r0, r4
 2220 0022 10BD     		pop	{r4, pc}
 2221              	.LVL183:
 2222              	.L135:
 2223              		.align	2
 2224              	.L134:
 2225 0024 014E0040 		.word	1073761793
 2226              		.cfi_endproc
 2227              	.LFE24:
 2228              		.size	ADC_DelSig_Read16, .-ADC_DelSig_Read16
 2229              		.section	.text.ADC_DelSig_Read32,"ax",%progbits
 2230              		.align	2
 2231              		.global	ADC_DelSig_Read32
 2232              		.thumb
 2233              		.thumb_func
 2234              		.type	ADC_DelSig_Read32, %function
 2235              	ADC_DelSig_Read32:
 2236              	.LFB25:
1808:Generated_Source\PSoC5/ADC_DelSig.c **** 
1809:Generated_Source\PSoC5/ADC_DelSig.c **** 
1810:Generated_Source\PSoC5/ADC_DelSig.c **** /*******************************************************************************
1811:Generated_Source\PSoC5/ADC_DelSig.c **** * Function Name: ADC_DelSig_Read32
1812:Generated_Source\PSoC5/ADC_DelSig.c **** ********************************************************************************
1813:Generated_Source\PSoC5/ADC_DelSig.c **** *
1814:Generated_Source\PSoC5/ADC_DelSig.c **** * Summary:
1815:Generated_Source\PSoC5/ADC_DelSig.c **** *  This function simplifies getting results from the ADC when only a
1816:Generated_Source\PSoC5/ADC_DelSig.c **** *  single reading is required. When called, it will start ADC
1817:Generated_Source\PSoC5/ADC_DelSig.c **** *  conversions, wait for the conversion to be complete, stop ADC
1818:Generated_Source\PSoC5/ADC_DelSig.c **** *  conversion and return the result. This is a blocking function and will
1819:Generated_Source\PSoC5/ADC_DelSig.c **** *  not return until the result is ready.
1820:Generated_Source\PSoC5/ADC_DelSig.c **** *
1821:Generated_Source\PSoC5/ADC_DelSig.c **** * Parameters:
1822:Generated_Source\PSoC5/ADC_DelSig.c **** *  None
1823:Generated_Source\PSoC5/ADC_DelSig.c **** *
1824:Generated_Source\PSoC5/ADC_DelSig.c **** * Return:
1825:Generated_Source\PSoC5/ADC_DelSig.c **** *  int32: ADC result.
ARM GAS  C:\Users\Nelson\AppData\Local\Temp\ccgC0n3g.s 			page 78


1826:Generated_Source\PSoC5/ADC_DelSig.c **** *
1827:Generated_Source\PSoC5/ADC_DelSig.c **** *******************************************************************************/
1828:Generated_Source\PSoC5/ADC_DelSig.c **** int32 ADC_DelSig_Read32(void) 
1829:Generated_Source\PSoC5/ADC_DelSig.c **** {
 2237              		.loc 1 1829 0
 2238              		.cfi_startproc
 2239              		@ args = 0, pretend = 0, frame = 0
 2240              		@ frame_needed = 0, uses_anonymous_args = 0
 2241 0000 10B5     		push	{r4, lr}
 2242              		.cfi_def_cfa_offset 8
 2243              		.cfi_offset 4, -8
 2244              		.cfi_offset 14, -4
1830:Generated_Source\PSoC5/ADC_DelSig.c ****     int32 result;
1831:Generated_Source\PSoC5/ADC_DelSig.c ****     
1832:Generated_Source\PSoC5/ADC_DelSig.c ****     /* Clear pending conversion done status */
1833:Generated_Source\PSoC5/ADC_DelSig.c ****     ADC_DelSig_DEC_SR_REG |= ADC_DelSig_DEC_INTR_CLEAR;
 2245              		.loc 1 1833 0
 2246 0002 084A     		ldr	r2, .L138
 2247 0004 1378     		ldrb	r3, [r2]	@ zero_extendqisi2
 2248 0006 43F00403 		orr	r3, r3, #4
 2249 000a 1370     		strb	r3, [r2]
1834:Generated_Source\PSoC5/ADC_DelSig.c ****     ADC_DelSig_StartConvert();
 2250              		.loc 1 1834 0
 2251 000c FFF7FEFF 		bl	ADC_DelSig_StartConvert
 2252              	.LVL184:
1835:Generated_Source\PSoC5/ADC_DelSig.c ****     (void)ADC_DelSig_IsEndConversion(ADC_DelSig_WAIT_FOR_RESULT);
 2253              		.loc 1 1835 0
 2254 0010 0020     		movs	r0, #0
 2255 0012 FFF7FEFF 		bl	ADC_DelSig_IsEndConversion
 2256              	.LVL185:
1836:Generated_Source\PSoC5/ADC_DelSig.c ****      result = ADC_DelSig_GetResult32();
 2257              		.loc 1 1836 0
 2258 0016 FFF7FEFF 		bl	ADC_DelSig_GetResult32
 2259              	.LVL186:
 2260 001a 0446     		mov	r4, r0
 2261              	.LVL187:
1837:Generated_Source\PSoC5/ADC_DelSig.c ****     ADC_DelSig_StopConvert();
 2262              		.loc 1 1837 0
 2263 001c FFF7FEFF 		bl	ADC_DelSig_StopConvert
 2264              	.LVL188:
1838:Generated_Source\PSoC5/ADC_DelSig.c ****     
1839:Generated_Source\PSoC5/ADC_DelSig.c ****      return(result);
1840:Generated_Source\PSoC5/ADC_DelSig.c **** }
 2265              		.loc 1 1840 0
 2266 0020 2046     		mov	r0, r4
 2267 0022 10BD     		pop	{r4, pc}
 2268              	.LVL189:
 2269              	.L139:
 2270              		.align	2
 2271              	.L138:
 2272 0024 014E0040 		.word	1073761793
 2273              		.cfi_endproc
 2274              	.LFE25:
 2275              		.size	ADC_DelSig_Read32, .-ADC_DelSig_Read32
 2276              		.comm	ADC_DelSig_CountsPerVolt,4,4
 2277              		.comm	ADC_DelSig_Offset,4,4
 2278              		.global	ADC_DelSig_Config
ARM GAS  C:\Users\Nelson\AppData\Local\Temp\ccgC0n3g.s 			page 79


 2279              		.global	ADC_DelSig_started
 2280              		.global	ADC_DelSig_initVar
 2281              		.global	ADC_DelSig_stopConversion
 2282              		.global	ADC_DelSig_convDone
 2283              		.data
 2284              		.set	.LANCHOR1,. + 0
 2285              		.type	ADC_DelSig_Config, %object
 2286              		.size	ADC_DelSig_Config, 1
 2287              	ADC_DelSig_Config:
 2288 0000 01       		.byte	1
 2289              		.bss
 2290              		.align	2
 2291              		.set	.LANCHOR0,. + 0
 2292              		.type	ADC_DelSig_gcor, %object
 2293              		.size	ADC_DelSig_gcor, 16
 2294              	ADC_DelSig_gcor:
 2295 0000 00000000 		.space	16
 2295      00000000 
 2295      00000000 
 2295      00000000 
 2296              		.type	ADC_DelSig_stopConversion, %object
 2297              		.size	ADC_DelSig_stopConversion, 1
 2298              	ADC_DelSig_stopConversion:
 2299 0010 00       		.space	1
 2300              		.type	ADC_DelSig_convDone, %object
 2301              		.size	ADC_DelSig_convDone, 1
 2302              	ADC_DelSig_convDone:
 2303 0011 00       		.space	1
 2304              		.type	ADC_DelSig_initVar, %object
 2305              		.size	ADC_DelSig_initVar, 1
 2306              	ADC_DelSig_initVar:
 2307 0012 00       		.space	1
 2308              		.type	ADC_DelSig_started, %object
 2309              		.size	ADC_DelSig_started, 1
 2310              	ADC_DelSig_started:
 2311 0013 00       		.space	1
 2312              		.text
 2313              	.Letext0:
 2314              		.file 2 "Generated_Source\\PSoC5\\cytypes.h"
 2315              		.file 3 "Generated_Source\\PSoC5\\ADC_DelSig.h"
 2316              		.file 4 "Generated_Source\\PSoC5\\CyLib.h"
 2317              		.file 5 "Generated_Source\\PSoC5\\ADC_DelSig_AMux.h"
 2318              		.file 6 "Generated_Source\\PSoC5\\ADC_DelSig_Ext_CP_Clk.h"
 2319              		.file 7 "Generated_Source\\PSoC5\\ADC_DelSig_theACLK.h"
 2320              		.section	.debug_info,"",%progbits
 2321              	.Ldebug_info0:
 2322 0000 460C0000 		.4byte	0xc46
 2323 0004 0400     		.2byte	0x4
 2324 0006 00000000 		.4byte	.Ldebug_abbrev0
 2325 000a 04       		.byte	0x4
 2326 000b 01       		.uleb128 0x1
 2327 000c 0D060000 		.4byte	.LASF98
 2328 0010 01       		.byte	0x1
 2329 0011 E2010000 		.4byte	.LASF99
 2330 0015 C7020000 		.4byte	.LASF100
 2331 0019 00000000 		.4byte	.Ldebug_ranges0+0
 2332 001d 00000000 		.4byte	0
ARM GAS  C:\Users\Nelson\AppData\Local\Temp\ccgC0n3g.s 			page 80


 2333 0021 00000000 		.4byte	.Ldebug_line0
 2334 0025 02       		.uleb128 0x2
 2335 0026 04       		.byte	0x4
 2336 0027 04       		.byte	0x4
 2337 0028 73040000 		.4byte	.LASF0
 2338 002c 02       		.uleb128 0x2
 2339 002d 01       		.byte	0x1
 2340 002e 06       		.byte	0x6
 2341 002f BB010000 		.4byte	.LASF1
 2342 0033 02       		.uleb128 0x2
 2343 0034 01       		.byte	0x1
 2344 0035 08       		.byte	0x8
 2345 0036 AD040000 		.4byte	.LASF2
 2346 003a 02       		.uleb128 0x2
 2347 003b 02       		.byte	0x2
 2348 003c 05       		.byte	0x5
 2349 003d BB040000 		.4byte	.LASF3
 2350 0041 02       		.uleb128 0x2
 2351 0042 02       		.byte	0x2
 2352 0043 07       		.byte	0x7
 2353 0044 69030000 		.4byte	.LASF4
 2354 0048 02       		.uleb128 0x2
 2355 0049 04       		.byte	0x4
 2356 004a 05       		.byte	0x5
 2357 004b CD010000 		.4byte	.LASF5
 2358 004f 02       		.uleb128 0x2
 2359 0050 04       		.byte	0x4
 2360 0051 07       		.byte	0x7
 2361 0052 28030000 		.4byte	.LASF6
 2362 0056 02       		.uleb128 0x2
 2363 0057 08       		.byte	0x8
 2364 0058 05       		.byte	0x5
 2365 0059 AD010000 		.4byte	.LASF7
 2366 005d 02       		.uleb128 0x2
 2367 005e 08       		.byte	0x8
 2368 005f 07       		.byte	0x7
 2369 0060 F9000000 		.4byte	.LASF8
 2370 0064 03       		.uleb128 0x3
 2371 0065 04       		.byte	0x4
 2372 0066 05       		.byte	0x5
 2373 0067 696E7400 		.ascii	"int\000"
 2374 006b 02       		.uleb128 0x2
 2375 006c 04       		.byte	0x4
 2376 006d 07       		.byte	0x7
 2377 006e BA020000 		.4byte	.LASF9
 2378 0072 04       		.uleb128 0x4
 2379 0073 DC010000 		.4byte	.LASF10
 2380 0077 02       		.byte	0x2
 2381 0078 9201     		.2byte	0x192
 2382 007a 33000000 		.4byte	0x33
 2383 007e 04       		.uleb128 0x4
 2384 007f 2A000000 		.4byte	.LASF11
 2385 0083 02       		.byte	0x2
 2386 0084 9301     		.2byte	0x193
 2387 0086 41000000 		.4byte	0x41
 2388 008a 04       		.uleb128 0x4
 2389 008b 30020000 		.4byte	.LASF12
ARM GAS  C:\Users\Nelson\AppData\Local\Temp\ccgC0n3g.s 			page 81


 2390 008f 02       		.byte	0x2
 2391 0090 9401     		.2byte	0x194
 2392 0092 4F000000 		.4byte	0x4f
 2393 0096 04       		.uleb128 0x4
 2394 0097 A7030000 		.4byte	.LASF13
 2395 009b 02       		.byte	0x2
 2396 009c 9501     		.2byte	0x195
 2397 009e 2C000000 		.4byte	0x2c
 2398 00a2 04       		.uleb128 0x4
 2399 00a3 C0060000 		.4byte	.LASF14
 2400 00a7 02       		.byte	0x2
 2401 00a8 9601     		.2byte	0x196
 2402 00aa 3A000000 		.4byte	0x3a
 2403 00ae 04       		.uleb128 0x4
 2404 00af C7010000 		.4byte	.LASF15
 2405 00b3 02       		.byte	0x2
 2406 00b4 9701     		.2byte	0x197
 2407 00b6 48000000 		.4byte	0x48
 2408 00ba 04       		.uleb128 0x4
 2409 00bb 2F040000 		.4byte	.LASF16
 2410 00bf 02       		.byte	0x2
 2411 00c0 9801     		.2byte	0x198
 2412 00c2 25000000 		.4byte	0x25
 2413 00c6 02       		.uleb128 0x2
 2414 00c7 08       		.byte	0x8
 2415 00c8 04       		.byte	0x4
 2416 00c9 10020000 		.4byte	.LASF17
 2417 00cd 02       		.uleb128 0x2
 2418 00ce 01       		.byte	0x1
 2419 00cf 08       		.byte	0x8
 2420 00d0 2F050000 		.4byte	.LASF18
 2421 00d4 04       		.uleb128 0x4
 2422 00d5 89040000 		.4byte	.LASF19
 2423 00d9 02       		.byte	0x2
 2424 00da 3C02     		.2byte	0x23c
 2425 00dc E0000000 		.4byte	0xe0
 2426 00e0 05       		.uleb128 0x5
 2427 00e1 72000000 		.4byte	0x72
 2428 00e5 04       		.uleb128 0x4
 2429 00e6 D6010000 		.4byte	.LASF20
 2430 00ea 02       		.byte	0x2
 2431 00eb 3D02     		.2byte	0x23d
 2432 00ed F1000000 		.4byte	0xf1
 2433 00f1 05       		.uleb128 0x5
 2434 00f2 7E000000 		.4byte	0x7e
 2435 00f6 04       		.uleb128 0x4
 2436 00f7 0E040000 		.4byte	.LASF21
 2437 00fb 02       		.byte	0x2
 2438 00fc 3E02     		.2byte	0x23e
 2439 00fe 02010000 		.4byte	0x102
 2440 0102 05       		.uleb128 0x5
 2441 0103 8A000000 		.4byte	0x8a
 2442 0107 04       		.uleb128 0x4
 2443 0108 3B050000 		.4byte	.LASF22
 2444 010c 02       		.byte	0x2
 2445 010d 4E02     		.2byte	0x24e
 2446 010f 13010000 		.4byte	0x113
ARM GAS  C:\Users\Nelson\AppData\Local\Temp\ccgC0n3g.s 			page 82


 2447 0113 06       		.uleb128 0x6
 2448 0114 04       		.byte	0x4
 2449 0115 19010000 		.4byte	0x119
 2450 0119 07       		.uleb128 0x7
 2451 011a 02       		.uleb128 0x2
 2452 011b 04       		.byte	0x4
 2453 011c 07       		.byte	0x7
 2454 011d 37040000 		.4byte	.LASF23
 2455 0121 08       		.uleb128 0x8
 2456 0122 04       		.byte	0x4
 2457 0123 03       		.byte	0x3
 2458 0124 2F       		.byte	0x2f
 2459 0125 42010000 		.4byte	0x142
 2460 0129 09       		.uleb128 0x9
 2461 012a 9E000000 		.4byte	.LASF24
 2462 012e 03       		.byte	0x3
 2463 012f 31       		.byte	0x31
 2464 0130 7E000000 		.4byte	0x7e
 2465 0134 00       		.byte	0
 2466 0135 09       		.uleb128 0x9
 2467 0136 4F050000 		.4byte	.LASF25
 2468 013a 03       		.byte	0x3
 2469 013b 32       		.byte	0x32
 2470 013c 72000000 		.4byte	0x72
 2471 0140 02       		.byte	0x2
 2472 0141 00       		.byte	0
 2473 0142 0A       		.uleb128 0xa
 2474 0143 41010000 		.4byte	.LASF26
 2475 0147 03       		.byte	0x3
 2476 0148 33       		.byte	0x33
 2477 0149 21010000 		.4byte	0x121
 2478 014d 0B       		.uleb128 0xb
 2479 014e CE030000 		.4byte	.LASF36
 2480 0152 01       		.byte	0x1
 2481 0153 5106     		.2byte	0x651
 2482 0155 00000000 		.4byte	.LFB21
 2483 0159 D0000000 		.4byte	.LFE21-.LFB21
 2484 015d 01       		.uleb128 0x1
 2485 015e 9C       		.byte	0x9c
 2486 015f 03020000 		.4byte	0x203
 2487 0163 0C       		.uleb128 0xc
 2488 0164 61000000 		.4byte	.LASF27
 2489 0168 01       		.byte	0x1
 2490 0169 5106     		.2byte	0x651
 2491 016b 72000000 		.4byte	0x72
 2492 016f 00000000 		.4byte	.LLST0
 2493 0173 0C       		.uleb128 0xc
 2494 0174 8E040000 		.4byte	.LASF28
 2495 0178 01       		.byte	0x1
 2496 0179 5106     		.2byte	0x651
 2497 017b 7E000000 		.4byte	0x7e
 2498 017f 3A000000 		.4byte	.LLST1
 2499 0183 0C       		.uleb128 0xc
 2500 0184 58010000 		.4byte	.LASF29
 2501 0188 01       		.byte	0x1
 2502 0189 5106     		.2byte	0x651
 2503 018b 7E000000 		.4byte	0x7e
ARM GAS  C:\Users\Nelson\AppData\Local\Temp\ccgC0n3g.s 			page 83


 2504 018f 74000000 		.4byte	.LLST2
 2505 0193 0C       		.uleb128 0xc
 2506 0194 08050000 		.4byte	.LASF30
 2507 0198 01       		.byte	0x1
 2508 0199 5206     		.2byte	0x652
 2509 019b 72000000 		.4byte	0x72
 2510 019f AE000000 		.4byte	.LLST3
 2511 01a3 0C       		.uleb128 0xc
 2512 01a4 48050000 		.4byte	.LASF31
 2513 01a8 01       		.byte	0x1
 2514 01a9 5206     		.2byte	0x652
 2515 01ab 72000000 		.4byte	0x72
 2516 01af 01010000 		.4byte	.LLST4
 2517 01b3 0D       		.uleb128 0xd
 2518 01b4 08040000 		.4byte	.LASF32
 2519 01b8 01       		.byte	0x1
 2520 01b9 5406     		.2byte	0x654
 2521 01bb 96000000 		.4byte	0x96
 2522 01bf 2D010000 		.4byte	.LLST5
 2523 01c3 0D       		.uleb128 0xd
 2524 01c4 9B040000 		.4byte	.LASF33
 2525 01c8 01       		.byte	0x1
 2526 01c9 5506     		.2byte	0x655
 2527 01cb AE000000 		.4byte	0xae
 2528 01cf 98010000 		.4byte	.LLST6
 2529 01d3 0D       		.uleb128 0xd
 2530 01d4 AC030000 		.4byte	.LASF34
 2531 01d8 01       		.byte	0x1
 2532 01d9 5606     		.2byte	0x656
 2533 01db 7E000000 		.4byte	0x7e
 2534 01df AB010000 		.4byte	.LLST7
 2535 01e3 0D       		.uleb128 0xd
 2536 01e4 C5040000 		.4byte	.LASF35
 2537 01e8 01       		.byte	0x1
 2538 01e9 5706     		.2byte	0x657
 2539 01eb 8A000000 		.4byte	0x8a
 2540 01ef D4010000 		.4byte	.LLST8
 2541 01f3 0E       		.uleb128 0xe
 2542 01f4 AA000000 		.4byte	.LVL31
 2543 01f8 800B0000 		.4byte	0xb80
 2544 01fc 0F       		.uleb128 0xf
 2545 01fd 01       		.uleb128 0x1
 2546 01fe 50       		.byte	0x50
 2547 01ff 01       		.uleb128 0x1
 2548 0200 30       		.byte	0x30
 2549 0201 00       		.byte	0
 2550 0202 00       		.byte	0
 2551 0203 0B       		.uleb128 0xb
 2552 0204 DC050000 		.4byte	.LASF37
 2553 0208 01       		.byte	0x1
 2554 0209 BC06     		.2byte	0x6bc
 2555 020b 00000000 		.4byte	.LFB22
 2556 020f 4C000000 		.4byte	.LFE22-.LFB22
 2557 0213 01       		.uleb128 0x1
 2558 0214 9C       		.byte	0x9c
 2559 0215 66020000 		.4byte	0x266
 2560 0219 0C       		.uleb128 0xc
ARM GAS  C:\Users\Nelson\AppData\Local\Temp\ccgC0n3g.s 			page 84


 2561 021a AC020000 		.4byte	.LASF38
 2562 021e 01       		.byte	0x1
 2563 021f BC06     		.2byte	0x6bc
 2564 0221 72000000 		.4byte	0x72
 2565 0225 E7010000 		.4byte	.LLST9
 2566 0229 0D       		.uleb128 0xd
 2567 022a F5050000 		.4byte	.LASF39
 2568 022e 01       		.byte	0x1
 2569 022f BE06     		.2byte	0x6be
 2570 0231 72000000 		.4byte	0x72
 2571 0235 08020000 		.4byte	.LLST10
 2572 0239 10       		.uleb128 0x10
 2573 023a 08000000 		.4byte	.LVL34
 2574 023e 910B0000 		.4byte	0xb91
 2575 0242 11       		.uleb128 0x11
 2576 0243 28000000 		.4byte	.LVL36
 2577 0247 9C0B0000 		.4byte	0xb9c
 2578 024b 55020000 		.4byte	0x255
 2579 024f 0F       		.uleb128 0xf
 2580 0250 01       		.uleb128 0x1
 2581 0251 50       		.byte	0x50
 2582 0252 01       		.uleb128 0x1
 2583 0253 33       		.byte	0x33
 2584 0254 00       		.byte	0
 2585 0255 0E       		.uleb128 0xe
 2586 0256 3E000000 		.4byte	.LVL37
 2587 025a AD0B0000 		.4byte	0xbad
 2588 025e 0F       		.uleb128 0xf
 2589 025f 01       		.uleb128 0x1
 2590 0260 50       		.byte	0x50
 2591 0261 02       		.uleb128 0x2
 2592 0262 76       		.byte	0x76
 2593 0263 00       		.sleb128 0
 2594 0264 00       		.byte	0
 2595 0265 00       		.byte	0
 2596 0266 0B       		.uleb128 0xb
 2597 0267 A3000000 		.4byte	.LASF40
 2598 026b 01       		.byte	0x1
 2599 026c DA04     		.2byte	0x4da
 2600 026e 00000000 		.4byte	.LFB19
 2601 0272 28030000 		.4byte	.LFE19-.LFB19
 2602 0276 01       		.uleb128 0x1
 2603 0277 9C       		.byte	0x9c
 2604 0278 42040000 		.4byte	0x442
 2605 027c 0C       		.uleb128 0xc
 2606 027d 48050000 		.4byte	.LASF31
 2607 0281 01       		.byte	0x1
 2608 0282 DA04     		.2byte	0x4da
 2609 0284 72000000 		.4byte	0x72
 2610 0288 1B020000 		.4byte	.LLST11
 2611 028c 11       		.uleb128 0x11
 2612 028d 86000000 		.4byte	.LVL41
 2613 0291 03020000 		.4byte	0x203
 2614 0295 A0020000 		.4byte	0x2a0
 2615 0299 0F       		.uleb128 0xf
 2616 029a 01       		.uleb128 0x1
 2617 029b 50       		.byte	0x50
ARM GAS  C:\Users\Nelson\AppData\Local\Temp\ccgC0n3g.s 			page 85


 2618 029c 02       		.uleb128 0x2
 2619 029d 08       		.byte	0x8
 2620 029e 52       		.byte	0x52
 2621 029f 00       		.byte	0
 2622 02a0 11       		.uleb128 0x11
 2623 02a1 A8000000 		.4byte	.LVL42
 2624 02a5 BE0B0000 		.4byte	0xbbe
 2625 02a9 B4020000 		.4byte	0x2b4
 2626 02ad 0F       		.uleb128 0xf
 2627 02ae 01       		.uleb128 0x1
 2628 02af 50       		.byte	0x50
 2629 02b0 02       		.uleb128 0x2
 2630 02b1 75       		.byte	0x75
 2631 02b2 00       		.sleb128 0
 2632 02b3 00       		.byte	0
 2633 02b4 11       		.uleb128 0x11
 2634 02b5 B6000000 		.4byte	.LVL43
 2635 02b9 CF0B0000 		.4byte	0xbcf
 2636 02bd CE020000 		.4byte	0x2ce
 2637 02c1 0F       		.uleb128 0xf
 2638 02c2 01       		.uleb128 0x1
 2639 02c3 51       		.byte	0x51
 2640 02c4 02       		.uleb128 0x2
 2641 02c5 76       		.byte	0x76
 2642 02c6 00       		.sleb128 0
 2643 02c7 0F       		.uleb128 0xf
 2644 02c8 01       		.uleb128 0x1
 2645 02c9 50       		.byte	0x50
 2646 02ca 02       		.uleb128 0x2
 2647 02cb 08       		.byte	0x8
 2648 02cc 24       		.byte	0x24
 2649 02cd 00       		.byte	0
 2650 02ce 11       		.uleb128 0x11
 2651 02cf BE000000 		.4byte	.LVL44
 2652 02d3 E50B0000 		.4byte	0xbe5
 2653 02d7 E8020000 		.4byte	0x2e8
 2654 02db 0F       		.uleb128 0xf
 2655 02dc 01       		.uleb128 0x1
 2656 02dd 51       		.byte	0x51
 2657 02de 02       		.uleb128 0x2
 2658 02df 76       		.byte	0x76
 2659 02e0 00       		.sleb128 0
 2660 02e1 0F       		.uleb128 0xf
 2661 02e2 01       		.uleb128 0x1
 2662 02e3 50       		.byte	0x50
 2663 02e4 02       		.uleb128 0x2
 2664 02e5 08       		.byte	0x8
 2665 02e6 95       		.byte	0x95
 2666 02e7 00       		.byte	0
 2667 02e8 11       		.uleb128 0x11
 2668 02e9 C6000000 		.4byte	.LVL45
 2669 02ed FB0B0000 		.4byte	0xbfb
 2670 02f1 FB020000 		.4byte	0x2fb
 2671 02f5 0F       		.uleb128 0xf
 2672 02f6 01       		.uleb128 0x1
 2673 02f7 50       		.byte	0x50
 2674 02f8 01       		.uleb128 0x1
ARM GAS  C:\Users\Nelson\AppData\Local\Temp\ccgC0n3g.s 			page 86


 2675 02f9 4D       		.byte	0x4d
 2676 02fa 00       		.byte	0
 2677 02fb 11       		.uleb128 0x11
 2678 02fc 44010000 		.4byte	.LVL46
 2679 0300 03020000 		.4byte	0x203
 2680 0304 0F030000 		.4byte	0x30f
 2681 0308 0F       		.uleb128 0xf
 2682 0309 01       		.uleb128 0x1
 2683 030a 50       		.byte	0x50
 2684 030b 02       		.uleb128 0x2
 2685 030c 08       		.byte	0x8
 2686 030d 44       		.byte	0x44
 2687 030e 00       		.byte	0
 2688 030f 11       		.uleb128 0x11
 2689 0310 66010000 		.4byte	.LVL47
 2690 0314 BE0B0000 		.4byte	0xbbe
 2691 0318 23030000 		.4byte	0x323
 2692 031c 0F       		.uleb128 0xf
 2693 031d 01       		.uleb128 0x1
 2694 031e 50       		.byte	0x50
 2695 031f 02       		.uleb128 0x2
 2696 0320 75       		.byte	0x75
 2697 0321 00       		.sleb128 0
 2698 0322 00       		.byte	0
 2699 0323 11       		.uleb128 0x11
 2700 0324 76010000 		.4byte	.LVL48
 2701 0328 CF0B0000 		.4byte	0xbcf
 2702 032c 3C030000 		.4byte	0x33c
 2703 0330 0F       		.uleb128 0xf
 2704 0331 01       		.uleb128 0x1
 2705 0332 51       		.byte	0x51
 2706 0333 02       		.uleb128 0x2
 2707 0334 76       		.byte	0x76
 2708 0335 00       		.sleb128 0
 2709 0336 0F       		.uleb128 0xf
 2710 0337 01       		.uleb128 0x1
 2711 0338 50       		.byte	0x50
 2712 0339 01       		.uleb128 0x1
 2713 033a 38       		.byte	0x38
 2714 033b 00       		.byte	0
 2715 033c 11       		.uleb128 0x11
 2716 033d 7E010000 		.4byte	.LVL49
 2717 0341 E50B0000 		.4byte	0xbe5
 2718 0345 56030000 		.4byte	0x356
 2719 0349 0F       		.uleb128 0xf
 2720 034a 01       		.uleb128 0x1
 2721 034b 51       		.byte	0x51
 2722 034c 02       		.uleb128 0x2
 2723 034d 76       		.byte	0x76
 2724 034e 00       		.sleb128 0
 2725 034f 0F       		.uleb128 0xf
 2726 0350 01       		.uleb128 0x1
 2727 0351 50       		.byte	0x50
 2728 0352 02       		.uleb128 0x2
 2729 0353 08       		.byte	0x8
 2730 0354 25       		.byte	0x25
 2731 0355 00       		.byte	0
ARM GAS  C:\Users\Nelson\AppData\Local\Temp\ccgC0n3g.s 			page 87


 2732 0356 11       		.uleb128 0x11
 2733 0357 86010000 		.4byte	.LVL50
 2734 035b FB0B0000 		.4byte	0xbfb
 2735 035f 69030000 		.4byte	0x369
 2736 0363 0F       		.uleb128 0xf
 2737 0364 01       		.uleb128 0x1
 2738 0365 50       		.byte	0x50
 2739 0366 01       		.uleb128 0x1
 2740 0367 4D       		.byte	0x4d
 2741 0368 00       		.byte	0
 2742 0369 11       		.uleb128 0x11
 2743 036a 04020000 		.4byte	.LVL51
 2744 036e 03020000 		.4byte	0x203
 2745 0372 7D030000 		.4byte	0x37d
 2746 0376 0F       		.uleb128 0xf
 2747 0377 01       		.uleb128 0x1
 2748 0378 50       		.byte	0x50
 2749 0379 02       		.uleb128 0x2
 2750 037a 08       		.byte	0x8
 2751 037b 44       		.byte	0x44
 2752 037c 00       		.byte	0
 2753 037d 11       		.uleb128 0x11
 2754 037e 26020000 		.4byte	.LVL52
 2755 0382 BE0B0000 		.4byte	0xbbe
 2756 0386 91030000 		.4byte	0x391
 2757 038a 0F       		.uleb128 0xf
 2758 038b 01       		.uleb128 0x1
 2759 038c 50       		.byte	0x50
 2760 038d 02       		.uleb128 0x2
 2761 038e 75       		.byte	0x75
 2762 038f 00       		.sleb128 0
 2763 0390 00       		.byte	0
 2764 0391 11       		.uleb128 0x11
 2765 0392 36020000 		.4byte	.LVL53
 2766 0396 CF0B0000 		.4byte	0xbcf
 2767 039a AA030000 		.4byte	0x3aa
 2768 039e 0F       		.uleb128 0xf
 2769 039f 01       		.uleb128 0x1
 2770 03a0 51       		.byte	0x51
 2771 03a1 02       		.uleb128 0x2
 2772 03a2 76       		.byte	0x76
 2773 03a3 00       		.sleb128 0
 2774 03a4 0F       		.uleb128 0xf
 2775 03a5 01       		.uleb128 0x1
 2776 03a6 50       		.byte	0x50
 2777 03a7 01       		.uleb128 0x1
 2778 03a8 38       		.byte	0x38
 2779 03a9 00       		.byte	0
 2780 03aa 11       		.uleb128 0x11
 2781 03ab 3E020000 		.4byte	.LVL54
 2782 03af E50B0000 		.4byte	0xbe5
 2783 03b3 C4030000 		.4byte	0x3c4
 2784 03b7 0F       		.uleb128 0xf
 2785 03b8 01       		.uleb128 0x1
 2786 03b9 51       		.byte	0x51
 2787 03ba 02       		.uleb128 0x2
 2788 03bb 76       		.byte	0x76
ARM GAS  C:\Users\Nelson\AppData\Local\Temp\ccgC0n3g.s 			page 88


 2789 03bc 00       		.sleb128 0
 2790 03bd 0F       		.uleb128 0xf
 2791 03be 01       		.uleb128 0x1
 2792 03bf 50       		.byte	0x50
 2793 03c0 02       		.uleb128 0x2
 2794 03c1 08       		.byte	0x8
 2795 03c2 25       		.byte	0x25
 2796 03c3 00       		.byte	0
 2797 03c4 11       		.uleb128 0x11
 2798 03c5 46020000 		.4byte	.LVL55
 2799 03c9 FB0B0000 		.4byte	0xbfb
 2800 03cd D7030000 		.4byte	0x3d7
 2801 03d1 0F       		.uleb128 0xf
 2802 03d2 01       		.uleb128 0x1
 2803 03d3 50       		.byte	0x50
 2804 03d4 01       		.uleb128 0x1
 2805 03d5 4D       		.byte	0x4d
 2806 03d6 00       		.byte	0
 2807 03d7 11       		.uleb128 0x11
 2808 03d8 C4020000 		.4byte	.LVL56
 2809 03dc 03020000 		.4byte	0x203
 2810 03e0 EB030000 		.4byte	0x3eb
 2811 03e4 0F       		.uleb128 0xf
 2812 03e5 01       		.uleb128 0x1
 2813 03e6 50       		.byte	0x50
 2814 03e7 02       		.uleb128 0x2
 2815 03e8 08       		.byte	0x8
 2816 03e9 44       		.byte	0x44
 2817 03ea 00       		.byte	0
 2818 03eb 11       		.uleb128 0x11
 2819 03ec E6020000 		.4byte	.LVL57
 2820 03f0 BE0B0000 		.4byte	0xbbe
 2821 03f4 FF030000 		.4byte	0x3ff
 2822 03f8 0F       		.uleb128 0xf
 2823 03f9 01       		.uleb128 0x1
 2824 03fa 50       		.byte	0x50
 2825 03fb 02       		.uleb128 0x2
 2826 03fc 74       		.byte	0x74
 2827 03fd 00       		.sleb128 0
 2828 03fe 00       		.byte	0
 2829 03ff 11       		.uleb128 0x11
 2830 0400 F6020000 		.4byte	.LVL58
 2831 0404 CF0B0000 		.4byte	0xbcf
 2832 0408 18040000 		.4byte	0x418
 2833 040c 0F       		.uleb128 0xf
 2834 040d 01       		.uleb128 0x1
 2835 040e 51       		.byte	0x51
 2836 040f 02       		.uleb128 0x2
 2837 0410 75       		.byte	0x75
 2838 0411 00       		.sleb128 0
 2839 0412 0F       		.uleb128 0xf
 2840 0413 01       		.uleb128 0x1
 2841 0414 50       		.byte	0x50
 2842 0415 01       		.uleb128 0x1
 2843 0416 38       		.byte	0x38
 2844 0417 00       		.byte	0
 2845 0418 11       		.uleb128 0x11
ARM GAS  C:\Users\Nelson\AppData\Local\Temp\ccgC0n3g.s 			page 89


 2846 0419 FE020000 		.4byte	.LVL59
 2847 041d E50B0000 		.4byte	0xbe5
 2848 0421 32040000 		.4byte	0x432
 2849 0425 0F       		.uleb128 0xf
 2850 0426 01       		.uleb128 0x1
 2851 0427 51       		.byte	0x51
 2852 0428 02       		.uleb128 0x2
 2853 0429 75       		.byte	0x75
 2854 042a 00       		.sleb128 0
 2855 042b 0F       		.uleb128 0xf
 2856 042c 01       		.uleb128 0x1
 2857 042d 50       		.byte	0x50
 2858 042e 02       		.uleb128 0x2
 2859 042f 08       		.byte	0x8
 2860 0430 25       		.byte	0x25
 2861 0431 00       		.byte	0
 2862 0432 0E       		.uleb128 0xe
 2863 0433 06030000 		.4byte	.LVL60
 2864 0437 FB0B0000 		.4byte	0xbfb
 2865 043b 0F       		.uleb128 0xf
 2866 043c 01       		.uleb128 0x1
 2867 043d 50       		.byte	0x50
 2868 043e 01       		.uleb128 0x1
 2869 043f 4D       		.byte	0x4d
 2870 0440 00       		.byte	0
 2871 0441 00       		.byte	0
 2872 0442 12       		.uleb128 0x12
 2873 0443 68010000 		.4byte	.LASF41
 2874 0447 01       		.byte	0x1
 2875 0448 5B       		.byte	0x5b
 2876 0449 00000000 		.4byte	.LFB0
 2877 044d 08010000 		.4byte	.LFE0-.LFB0
 2878 0451 01       		.uleb128 0x1
 2879 0452 9C       		.byte	0x9c
 2880 0453 54050000 		.4byte	0x554
 2881 0457 11       		.uleb128 0x11
 2882 0458 1C000000 		.4byte	.LVL61
 2883 045c 150C0000 		.4byte	0xc15
 2884 0460 6A040000 		.4byte	0x46a
 2885 0464 0F       		.uleb128 0xf
 2886 0465 01       		.uleb128 0x1
 2887 0466 50       		.byte	0x50
 2888 0467 01       		.uleb128 0x1
 2889 0468 40       		.byte	0x40
 2890 0469 00       		.byte	0
 2891 046a 11       		.uleb128 0x11
 2892 046b 22000000 		.4byte	.LVL62
 2893 046f 260C0000 		.4byte	0xc26
 2894 0473 7D040000 		.4byte	0x47d
 2895 0477 0F       		.uleb128 0xf
 2896 0478 01       		.uleb128 0x1
 2897 0479 50       		.byte	0x50
 2898 047a 01       		.uleb128 0x1
 2899 047b 40       		.byte	0x40
 2900 047c 00       		.byte	0
 2901 047d 11       		.uleb128 0x11
 2902 047e 2A000000 		.4byte	.LVL63
ARM GAS  C:\Users\Nelson\AppData\Local\Temp\ccgC0n3g.s 			page 90


 2903 0482 370C0000 		.4byte	0xc37
 2904 0486 95040000 		.4byte	0x495
 2905 048a 0F       		.uleb128 0xf
 2906 048b 01       		.uleb128 0x1
 2907 048c 51       		.byte	0x51
 2908 048d 01       		.uleb128 0x1
 2909 048e 37       		.byte	0x37
 2910 048f 0F       		.uleb128 0xf
 2911 0490 01       		.uleb128 0x1
 2912 0491 50       		.byte	0x50
 2913 0492 01       		.uleb128 0x1
 2914 0493 4D       		.byte	0x4d
 2915 0494 00       		.byte	0
 2916 0495 11       		.uleb128 0x11
 2917 0496 8C000000 		.4byte	.LVL64
 2918 049a 4D010000 		.4byte	0x14d
 2919 049e C2040000 		.4byte	0x4c2
 2920 04a2 0F       		.uleb128 0xf
 2921 04a3 01       		.uleb128 0x1
 2922 04a4 53       		.byte	0x53
 2923 04a5 01       		.uleb128 0x1
 2924 04a6 38       		.byte	0x38
 2925 04a7 0F       		.uleb128 0xf
 2926 04a8 01       		.uleb128 0x1
 2927 04a9 52       		.byte	0x52
 2928 04aa 03       		.uleb128 0x3
 2929 04ab 0B       		.byte	0xb
 2930 04ac 0080     		.2byte	0x8000
 2931 04ae 0F       		.uleb128 0xf
 2932 04af 01       		.uleb128 0x1
 2933 04b0 51       		.byte	0x51
 2934 04b1 03       		.uleb128 0x3
 2935 04b2 0B       		.byte	0xb
 2936 04b3 6B8D     		.2byte	0x8d6b
 2937 04b5 0F       		.uleb128 0xf
 2938 04b6 01       		.uleb128 0x1
 2939 04b7 50       		.byte	0x50
 2940 04b8 01       		.uleb128 0x1
 2941 04b9 32       		.byte	0x32
 2942 04ba 0F       		.uleb128 0xf
 2943 04bb 02       		.uleb128 0x2
 2944 04bc 7D       		.byte	0x7d
 2945 04bd 00       		.sleb128 0
 2946 04be 02       		.uleb128 0x2
 2947 04bf 78       		.byte	0x78
 2948 04c0 00       		.sleb128 0
 2949 04c1 00       		.byte	0
 2950 04c2 11       		.uleb128 0x11
 2951 04c3 A0000000 		.4byte	.LVL65
 2952 04c7 4D010000 		.4byte	0x14d
 2953 04cb EF040000 		.4byte	0x4ef
 2954 04cf 0F       		.uleb128 0xf
 2955 04d0 01       		.uleb128 0x1
 2956 04d1 53       		.byte	0x53
 2957 04d2 01       		.uleb128 0x1
 2958 04d3 40       		.byte	0x40
 2959 04d4 0F       		.uleb128 0xf
ARM GAS  C:\Users\Nelson\AppData\Local\Temp\ccgC0n3g.s 			page 91


 2960 04d5 01       		.uleb128 0x1
 2961 04d6 52       		.byte	0x52
 2962 04d7 03       		.uleb128 0x3
 2963 04d8 0B       		.byte	0xb
 2964 04d9 0080     		.2byte	0x8000
 2965 04db 0F       		.uleb128 0xf
 2966 04dc 01       		.uleb128 0x1
 2967 04dd 51       		.byte	0x51
 2968 04de 03       		.uleb128 0x3
 2969 04df 0B       		.byte	0xb
 2970 04e0 DA90     		.2byte	0x90da
 2971 04e2 0F       		.uleb128 0xf
 2972 04e3 01       		.uleb128 0x1
 2973 04e4 50       		.byte	0x50
 2974 04e5 02       		.uleb128 0x2
 2975 04e6 74       		.byte	0x74
 2976 04e7 00       		.sleb128 0
 2977 04e8 0F       		.uleb128 0xf
 2978 04e9 02       		.uleb128 0x2
 2979 04ea 7D       		.byte	0x7d
 2980 04eb 00       		.sleb128 0
 2981 04ec 01       		.uleb128 0x1
 2982 04ed 32       		.byte	0x32
 2983 04ee 00       		.byte	0
 2984 04ef 11       		.uleb128 0x11
 2985 04f0 B4000000 		.4byte	.LVL66
 2986 04f4 4D010000 		.4byte	0x14d
 2987 04f8 1C050000 		.4byte	0x51c
 2988 04fc 0F       		.uleb128 0xf
 2989 04fd 01       		.uleb128 0x1
 2990 04fe 53       		.byte	0x53
 2991 04ff 01       		.uleb128 0x1
 2992 0500 40       		.byte	0x40
 2993 0501 0F       		.uleb128 0xf
 2994 0502 01       		.uleb128 0x1
 2995 0503 52       		.byte	0x52
 2996 0504 03       		.uleb128 0x3
 2997 0505 0B       		.byte	0xb
 2998 0506 0080     		.2byte	0x8000
 2999 0508 0F       		.uleb128 0xf
 3000 0509 01       		.uleb128 0x1
 3001 050a 51       		.byte	0x51
 3002 050b 03       		.uleb128 0x3
 3003 050c 0B       		.byte	0xb
 3004 050d DA90     		.2byte	0x90da
 3005 050f 0F       		.uleb128 0xf
 3006 0510 01       		.uleb128 0x1
 3007 0511 50       		.byte	0x50
 3008 0512 02       		.uleb128 0x2
 3009 0513 74       		.byte	0x74
 3010 0514 00       		.sleb128 0
 3011 0515 0F       		.uleb128 0xf
 3012 0516 02       		.uleb128 0x2
 3013 0517 7D       		.byte	0x7d
 3014 0518 00       		.sleb128 0
 3015 0519 01       		.uleb128 0x1
 3016 051a 33       		.byte	0x33
ARM GAS  C:\Users\Nelson\AppData\Local\Temp\ccgC0n3g.s 			page 92


 3017 051b 00       		.byte	0
 3018 051c 11       		.uleb128 0x11
 3019 051d C6000000 		.4byte	.LVL67
 3020 0521 4D010000 		.4byte	0x14d
 3021 0525 4A050000 		.4byte	0x54a
 3022 0529 0F       		.uleb128 0xf
 3023 052a 01       		.uleb128 0x1
 3024 052b 53       		.byte	0x53
 3025 052c 01       		.uleb128 0x1
 3026 052d 40       		.byte	0x40
 3027 052e 0F       		.uleb128 0xf
 3028 052f 01       		.uleb128 0x1
 3029 0530 52       		.byte	0x52
 3030 0531 03       		.uleb128 0x3
 3031 0532 0B       		.byte	0xb
 3032 0533 0080     		.2byte	0x8000
 3033 0535 0F       		.uleb128 0xf
 3034 0536 01       		.uleb128 0x1
 3035 0537 51       		.byte	0x51
 3036 0538 03       		.uleb128 0x3
 3037 0539 0B       		.byte	0xb
 3038 053a DA90     		.2byte	0x90da
 3039 053c 0F       		.uleb128 0xf
 3040 053d 01       		.uleb128 0x1
 3041 053e 50       		.byte	0x50
 3042 053f 02       		.uleb128 0x2
 3043 0540 74       		.byte	0x74
 3044 0541 00       		.sleb128 0
 3045 0542 0F       		.uleb128 0xf
 3046 0543 02       		.uleb128 0x2
 3047 0544 7D       		.byte	0x7d
 3048 0545 00       		.sleb128 0
 3049 0546 02       		.uleb128 0x2
 3050 0547 77       		.byte	0x77
 3051 0548 00       		.sleb128 0
 3052 0549 00       		.byte	0
 3053 054a 10       		.uleb128 0x10
 3054 054b E6000000 		.4byte	.LVL68
 3055 054f 66020000 		.4byte	0x266
 3056 0553 00       		.byte	0
 3057 0554 12       		.uleb128 0x12
 3058 0555 10010000 		.4byte	.LASF42
 3059 0559 01       		.byte	0x1
 3060 055a B8       		.byte	0xb8
 3061 055b 00000000 		.4byte	.LFB1
 3062 055f D8000000 		.4byte	.LFE1-.LFB1
 3063 0563 01       		.uleb128 0x1
 3064 0564 9C       		.byte	0x9c
 3065 0565 B0050000 		.4byte	0x5b0
 3066 0569 13       		.uleb128 0x13
 3067 056a 48050000 		.4byte	.LASF31
 3068 056e 01       		.byte	0x1
 3069 056f BA       		.byte	0xba
 3070 0570 72000000 		.4byte	0x72
 3071 0574 14       		.uleb128 0x14
 3072 0575 F5050000 		.4byte	.LASF39
 3073 0579 01       		.byte	0x1
ARM GAS  C:\Users\Nelson\AppData\Local\Temp\ccgC0n3g.s 			page 93


 3074 057a BB       		.byte	0xbb
 3075 057b 72000000 		.4byte	0x72
 3076 057f 3C020000 		.4byte	.LLST12
 3077 0583 10       		.uleb128 0x10
 3078 0584 06000000 		.4byte	.LVL69
 3079 0588 910B0000 		.4byte	0xb91
 3080 058c 11       		.uleb128 0x11
 3081 058d 54000000 		.4byte	.LVL72
 3082 0591 9C0B0000 		.4byte	0xb9c
 3083 0595 9F050000 		.4byte	0x59f
 3084 0599 0F       		.uleb128 0xf
 3085 059a 01       		.uleb128 0x1
 3086 059b 50       		.byte	0x50
 3087 059c 01       		.uleb128 0x1
 3088 059d 33       		.byte	0x33
 3089 059e 00       		.byte	0
 3090 059f 0E       		.uleb128 0xe
 3091 05a0 B0000000 		.4byte	.LVL73
 3092 05a4 AD0B0000 		.4byte	0xbad
 3093 05a8 0F       		.uleb128 0xf
 3094 05a9 01       		.uleb128 0x1
 3095 05aa 50       		.byte	0x50
 3096 05ab 02       		.uleb128 0x2
 3097 05ac 76       		.byte	0x76
 3098 05ad 00       		.sleb128 0
 3099 05ae 00       		.byte	0
 3100 05af 00       		.byte	0
 3101 05b0 15       		.uleb128 0x15
 3102 05b1 7C030000 		.4byte	.LASF43
 3103 05b5 01       		.byte	0x1
 3104 05b6 4901     		.2byte	0x149
 3105 05b8 00000000 		.4byte	.LFB2
 3106 05bc 28000000 		.4byte	.LFE2-.LFB2
 3107 05c0 01       		.uleb128 0x1
 3108 05c1 9C       		.byte	0x9c
 3109 05c2 D9050000 		.4byte	0x5d9
 3110 05c6 10       		.uleb128 0x10
 3111 05c7 16000000 		.4byte	.LVL75
 3112 05cb 42040000 		.4byte	0x442
 3113 05cf 10       		.uleb128 0x10
 3114 05d0 20000000 		.4byte	.LVL76
 3115 05d4 54050000 		.4byte	0x554
 3116 05d8 00       		.byte	0
 3117 05d9 15       		.uleb128 0x15
 3118 05da 13050000 		.4byte	.LASF44
 3119 05de 01       		.byte	0x1
 3120 05df 6A01     		.2byte	0x16a
 3121 05e1 00000000 		.4byte	.LFB3
 3122 05e5 E4000000 		.4byte	.LFE3-.LFB3
 3123 05e9 01       		.uleb128 0x1
 3124 05ea 9C       		.byte	0x9c
 3125 05eb 2C060000 		.4byte	0x62c
 3126 05ef 0D       		.uleb128 0xd
 3127 05f0 F5050000 		.4byte	.LASF39
 3128 05f4 01       		.byte	0x1
 3129 05f5 6C01     		.2byte	0x16c
 3130 05f7 72000000 		.4byte	0x72
ARM GAS  C:\Users\Nelson\AppData\Local\Temp\ccgC0n3g.s 			page 94


 3131 05fb 4F020000 		.4byte	.LLST13
 3132 05ff 10       		.uleb128 0x10
 3133 0600 06000000 		.4byte	.LVL77
 3134 0604 910B0000 		.4byte	0xb91
 3135 0608 11       		.uleb128 0x11
 3136 0609 4C000000 		.4byte	.LVL79
 3137 060d 9C0B0000 		.4byte	0xb9c
 3138 0611 1B060000 		.4byte	0x61b
 3139 0615 0F       		.uleb128 0xf
 3140 0616 01       		.uleb128 0x1
 3141 0617 50       		.byte	0x50
 3142 0618 01       		.uleb128 0x1
 3143 0619 33       		.byte	0x33
 3144 061a 00       		.byte	0
 3145 061b 0E       		.uleb128 0xe
 3146 061c CC000000 		.4byte	.LVL80
 3147 0620 AD0B0000 		.4byte	0xbad
 3148 0624 0F       		.uleb128 0xf
 3149 0625 01       		.uleb128 0x1
 3150 0626 50       		.byte	0x50
 3151 0627 02       		.uleb128 0x2
 3152 0628 76       		.byte	0x76
 3153 0629 00       		.sleb128 0
 3154 062a 00       		.byte	0
 3155 062b 00       		.byte	0
 3156 062c 15       		.uleb128 0x15
 3157 062d 00000000 		.4byte	.LASF45
 3158 0631 01       		.byte	0x1
 3159 0632 AD01     		.2byte	0x1ad
 3160 0634 00000000 		.4byte	.LFB4
 3161 0638 18000000 		.4byte	.LFE4-.LFB4
 3162 063c 01       		.uleb128 0x1
 3163 063d 9C       		.byte	0x9c
 3164 063e 63060000 		.4byte	0x663
 3165 0642 0C       		.uleb128 0xc
 3166 0643 6E040000 		.4byte	.LASF46
 3167 0647 01       		.byte	0x1
 3168 0648 AD01     		.2byte	0x1ad
 3169 064a 72000000 		.4byte	0x72
 3170 064e 62020000 		.4byte	.LLST14
 3171 0652 0D       		.uleb128 0xd
 3172 0653 F3060000 		.4byte	.LASF47
 3173 0657 01       		.byte	0x1
 3174 0658 AF01     		.2byte	0x1af
 3175 065a 72000000 		.4byte	0x72
 3176 065e 83020000 		.4byte	.LLST15
 3177 0662 00       		.byte	0
 3178 0663 15       		.uleb128 0x15
 3179 0664 B6030000 		.4byte	.LASF48
 3180 0668 01       		.byte	0x1
 3181 0669 D101     		.2byte	0x1d1
 3182 066b 00000000 		.4byte	.LFB5
 3183 066f 18000000 		.4byte	.LFE5-.LFB5
 3184 0673 01       		.uleb128 0x1
 3185 0674 9C       		.byte	0x9c
 3186 0675 9A060000 		.4byte	0x69a
 3187 0679 0C       		.uleb128 0xc
ARM GAS  C:\Users\Nelson\AppData\Local\Temp\ccgC0n3g.s 			page 95


 3188 067a 53040000 		.4byte	.LASF49
 3189 067e 01       		.byte	0x1
 3190 067f D101     		.2byte	0x1d1
 3191 0681 72000000 		.4byte	0x72
 3192 0685 A1020000 		.4byte	.LLST16
 3193 0689 0D       		.uleb128 0xd
 3194 068a F3060000 		.4byte	.LASF47
 3195 068e 01       		.byte	0x1
 3196 068f D301     		.2byte	0x1d3
 3197 0691 72000000 		.4byte	0x72
 3198 0695 C2020000 		.4byte	.LLST17
 3199 0699 00       		.byte	0
 3200 069a 16       		.uleb128 0x16
 3201 069b 8E050000 		.4byte	.LASF53
 3202 069f 01       		.byte	0x1
 3203 06a0 F901     		.2byte	0x1f9
 3204 06a2 72000000 		.4byte	0x72
 3205 06a6 00000000 		.4byte	.LFB6
 3206 06aa 74000000 		.4byte	.LFE6-.LFB6
 3207 06ae 01       		.uleb128 0x1
 3208 06af 9C       		.byte	0x9c
 3209 06b0 F5060000 		.4byte	0x6f5
 3210 06b4 0C       		.uleb128 0xc
 3211 06b5 9B060000 		.4byte	.LASF50
 3212 06b9 01       		.byte	0x1
 3213 06ba F901     		.2byte	0x1f9
 3214 06bc BA000000 		.4byte	0xba
 3215 06c0 E0020000 		.4byte	.LLST18
 3216 06c4 0D       		.uleb128 0xd
 3217 06c5 F3060000 		.4byte	.LASF47
 3218 06c9 01       		.byte	0x1
 3219 06ca FB01     		.2byte	0x1fb
 3220 06cc 7E000000 		.4byte	0x7e
 3221 06d0 0E030000 		.4byte	.LLST19
 3222 06d4 0D       		.uleb128 0xd
 3223 06d5 06060000 		.4byte	.LASF51
 3224 06d9 01       		.byte	0x1
 3225 06da FC01     		.2byte	0x1fc
 3226 06dc 72000000 		.4byte	0x72
 3227 06e0 46030000 		.4byte	.LLST20
 3228 06e4 0D       		.uleb128 0xd
 3229 06e5 A9050000 		.4byte	.LASF52
 3230 06e9 01       		.byte	0x1
 3231 06ea FD01     		.2byte	0x1fd
 3232 06ec BA000000 		.4byte	0xba
 3233 06f0 65030000 		.4byte	.LLST21
 3234 06f4 00       		.byte	0
 3235 06f5 17       		.uleb128 0x17
 3236 06f6 7A050000 		.4byte	.LASF54
 3237 06fa 01       		.byte	0x1
 3238 06fb 2802     		.2byte	0x228
 3239 06fd 7E000000 		.4byte	0x7e
 3240 0701 00000000 		.4byte	.LFB7
 3241 0705 24000000 		.4byte	.LFE7-.LFB7
 3242 0709 01       		.uleb128 0x1
 3243 070a 9C       		.byte	0x9c
 3244 070b 30070000 		.4byte	0x730
ARM GAS  C:\Users\Nelson\AppData\Local\Temp\ccgC0n3g.s 			page 96


 3245 070f 0D       		.uleb128 0xd
 3246 0710 34050000 		.4byte	.LASF55
 3247 0714 01       		.byte	0x1
 3248 0715 2A02     		.2byte	0x22a
 3249 0717 72000000 		.4byte	0x72
 3250 071b A4030000 		.4byte	.LLST22
 3251 071f 0D       		.uleb128 0xd
 3252 0720 AC030000 		.4byte	.LASF34
 3253 0724 01       		.byte	0x1
 3254 0725 2B02     		.2byte	0x22b
 3255 0727 7E000000 		.4byte	0x7e
 3256 072b B7030000 		.4byte	.LLST23
 3257 072f 00       		.byte	0
 3258 0730 18       		.uleb128 0x18
 3259 0731 51030000 		.4byte	.LASF56
 3260 0735 01       		.byte	0x1
 3261 0736 4A02     		.2byte	0x24a
 3262 0738 00000000 		.4byte	.LFB8
 3263 073c 10000000 		.4byte	.LFE8-.LFB8
 3264 0740 01       		.uleb128 0x1
 3265 0741 9C       		.byte	0x9c
 3266 0742 18       		.uleb128 0x18
 3267 0743 E2000000 		.4byte	.LASF57
 3268 0747 01       		.byte	0x1
 3269 0748 6102     		.2byte	0x261
 3270 074a 00000000 		.4byte	.LFB9
 3271 074e 10000000 		.4byte	.LFE9-.LFB9
 3272 0752 01       		.uleb128 0x1
 3273 0753 9C       		.byte	0x9c
 3274 0754 17       		.uleb128 0x17
 3275 0755 D8060000 		.4byte	.LASF58
 3276 0759 01       		.byte	0x1
 3277 075a 8402     		.2byte	0x284
 3278 075c 72000000 		.4byte	0x72
 3279 0760 00000000 		.4byte	.LFB10
 3280 0764 30000000 		.4byte	.LFE10-.LFB10
 3281 0768 01       		.uleb128 0x1
 3282 0769 9C       		.byte	0x9c
 3283 076a 8F070000 		.4byte	0x78f
 3284 076e 0C       		.uleb128 0xc
 3285 076f B2020000 		.4byte	.LASF59
 3286 0773 01       		.byte	0x1
 3287 0774 8402     		.2byte	0x284
 3288 0776 72000000 		.4byte	0x72
 3289 077a D5030000 		.4byte	.LLST24
 3290 077e 0D       		.uleb128 0xd
 3291 077f 06060000 		.4byte	.LASF51
 3292 0783 01       		.byte	0x1
 3293 0784 8602     		.2byte	0x286
 3294 0786 72000000 		.4byte	0x72
 3295 078a F6030000 		.4byte	.LLST25
 3296 078e 00       		.byte	0
 3297 078f 17       		.uleb128 0x17
 3298 0790 B9000000 		.4byte	.LASF60
 3299 0794 01       		.byte	0x1
 3300 0795 B302     		.2byte	0x2b3
 3301 0797 96000000 		.4byte	0x96
ARM GAS  C:\Users\Nelson\AppData\Local\Temp\ccgC0n3g.s 			page 97


 3302 079b 00000000 		.4byte	.LFB11
 3303 079f 48000000 		.4byte	.LFE11-.LFB11
 3304 07a3 01       		.uleb128 0x1
 3305 07a4 9C       		.byte	0x9c
 3306 07a5 C8070000 		.4byte	0x7c8
 3307 07a9 19       		.uleb128 0x19
 3308 07aa FA060000 		.4byte	.LASF61
 3309 07ae 01       		.byte	0x1
 3310 07af B502     		.2byte	0x2b5
 3311 07b1 96000000 		.4byte	0x96
 3312 07b5 01       		.uleb128 0x1
 3313 07b6 50       		.byte	0x50
 3314 07b7 0D       		.uleb128 0xd
 3315 07b8 53040000 		.4byte	.LASF49
 3316 07bc 01       		.byte	0x1
 3317 07bd B602     		.2byte	0x2b6
 3318 07bf 72000000 		.4byte	0x72
 3319 07c3 14040000 		.4byte	.LLST26
 3320 07c7 00       		.byte	0
 3321 07c8 17       		.uleb128 0x17
 3322 07c9 6C000000 		.4byte	.LASF62
 3323 07cd 01       		.byte	0x1
 3324 07ce E902     		.2byte	0x2e9
 3325 07d0 A2000000 		.4byte	0xa2
 3326 07d4 00000000 		.4byte	.LFB12
 3327 07d8 50000000 		.4byte	.LFE12-.LFB12
 3328 07dc 01       		.uleb128 0x1
 3329 07dd 9C       		.byte	0x9c
 3330 07de 03080000 		.4byte	0x803
 3331 07e2 0D       		.uleb128 0xd
 3332 07e3 FA060000 		.4byte	.LASF61
 3333 07e7 01       		.byte	0x1
 3334 07e8 EB02     		.2byte	0x2eb
 3335 07ea 7E000000 		.4byte	0x7e
 3336 07ee 32040000 		.4byte	.LLST27
 3337 07f2 0D       		.uleb128 0xd
 3338 07f3 53040000 		.4byte	.LASF49
 3339 07f7 01       		.byte	0x1
 3340 07f8 EC02     		.2byte	0x2ec
 3341 07fa 72000000 		.4byte	0x72
 3342 07fe 5B040000 		.4byte	.LLST28
 3343 0802 00       		.byte	0
 3344 0803 17       		.uleb128 0x17
 3345 0804 49020000 		.4byte	.LASF63
 3346 0808 01       		.byte	0x1
 3347 0809 2503     		.2byte	0x325
 3348 080b AE000000 		.4byte	0xae
 3349 080f 00000000 		.4byte	.LFB13
 3350 0813 6C000000 		.4byte	.LFE13-.LFB13
 3351 0817 01       		.uleb128 0x1
 3352 0818 9C       		.byte	0x9c
 3353 0819 3E080000 		.4byte	0x83e
 3354 081d 0D       		.uleb128 0xd
 3355 081e FA060000 		.4byte	.LASF61
 3356 0822 01       		.byte	0x1
 3357 0823 2703     		.2byte	0x327
 3358 0825 8A000000 		.4byte	0x8a
ARM GAS  C:\Users\Nelson\AppData\Local\Temp\ccgC0n3g.s 			page 98


 3359 0829 79040000 		.4byte	.LLST29
 3360 082d 0D       		.uleb128 0xd
 3361 082e 53040000 		.4byte	.LASF49
 3362 0832 01       		.byte	0x1
 3363 0833 2803     		.2byte	0x328
 3364 0835 72000000 		.4byte	0x72
 3365 0839 DA040000 		.4byte	.LLST30
 3366 083d 00       		.byte	0
 3367 083e 15       		.uleb128 0x15
 3368 083f 83020000 		.4byte	.LASF64
 3369 0843 01       		.byte	0x1
 3370 0844 8203     		.2byte	0x382
 3371 0846 00000000 		.4byte	.LFB14
 3372 084a 0C000000 		.4byte	.LFE14-.LFB14
 3373 084e 01       		.uleb128 0x1
 3374 084f 9C       		.byte	0x9c
 3375 0850 63080000 		.4byte	0x863
 3376 0854 1A       		.uleb128 0x1a
 3377 0855 CB050000 		.4byte	.LASF65
 3378 0859 01       		.byte	0x1
 3379 085a 8203     		.2byte	0x382
 3380 085c AE000000 		.4byte	0xae
 3381 0860 01       		.uleb128 0x1
 3382 0861 50       		.byte	0x50
 3383 0862 00       		.byte	0
 3384 0863 15       		.uleb128 0x15
 3385 0864 1D020000 		.4byte	.LASF66
 3386 0868 01       		.byte	0x1
 3387 0869 A503     		.2byte	0x3a5
 3388 086b 00000000 		.4byte	.LFB15
 3389 086f 0C000000 		.4byte	.LFE15-.LFB15
 3390 0873 01       		.uleb128 0x1
 3391 0874 9C       		.byte	0x9c
 3392 0875 88080000 		.4byte	0x888
 3393 0879 1A       		.uleb128 0x1a
 3394 087a 43000000 		.4byte	.LASF67
 3395 087e 01       		.byte	0x1
 3396 087f A503     		.2byte	0x3a5
 3397 0881 AE000000 		.4byte	0xae
 3398 0885 01       		.uleb128 0x1
 3399 0886 50       		.byte	0x50
 3400 0887 00       		.byte	0
 3401 0888 17       		.uleb128 0x17
 3402 0889 14040000 		.4byte	.LASF68
 3403 088d 01       		.byte	0x1
 3404 088e C003     		.2byte	0x3c0
 3405 0890 A2000000 		.4byte	0xa2
 3406 0894 00000000 		.4byte	.LFB16
 3407 0898 24000000 		.4byte	.LFE16-.LFB16
 3408 089c 01       		.uleb128 0x1
 3409 089d 9C       		.byte	0x9c
 3410 089e C1080000 		.4byte	0x8c1
 3411 08a2 0C       		.uleb128 0xc
 3412 08a3 D2050000 		.4byte	.LASF69
 3413 08a7 01       		.byte	0x1
 3414 08a8 C003     		.2byte	0x3c0
 3415 08aa AE000000 		.4byte	0xae
ARM GAS  C:\Users\Nelson\AppData\Local\Temp\ccgC0n3g.s 			page 99


 3416 08ae 03050000 		.4byte	.LLST31
 3417 08b2 19       		.uleb128 0x19
 3418 08b3 01040000 		.4byte	.LASF70
 3419 08b7 01       		.byte	0x1
 3420 08b8 C303     		.2byte	0x3c3
 3421 08ba A2000000 		.4byte	0xa2
 3422 08be 01       		.uleb128 0x1
 3423 08bf 50       		.byte	0x50
 3424 08c0 00       		.byte	0
 3425 08c1 16       		.uleb128 0x16
 3426 08c2 8D030000 		.4byte	.LASF71
 3427 08c6 01       		.byte	0x1
 3428 08c7 FD03     		.2byte	0x3fd
 3429 08c9 BA000000 		.4byte	0xba
 3430 08cd 00000000 		.4byte	.LFB17
 3431 08d1 28000000 		.4byte	.LFE17-.LFB17
 3432 08d5 01       		.uleb128 0x1
 3433 08d6 9C       		.byte	0x9c
 3434 08d7 FA080000 		.4byte	0x8fa
 3435 08db 0C       		.uleb128 0xc
 3436 08dc D2050000 		.4byte	.LASF69
 3437 08e0 01       		.byte	0x1
 3438 08e1 FD03     		.2byte	0x3fd
 3439 08e3 AE000000 		.4byte	0xae
 3440 08e7 21050000 		.4byte	.LLST32
 3441 08eb 19       		.uleb128 0x19
 3442 08ec 17020000 		.4byte	.LASF72
 3443 08f0 01       		.byte	0x1
 3444 08f1 0004     		.2byte	0x400
 3445 08f3 BA000000 		.4byte	0xba
 3446 08f7 01       		.uleb128 0x1
 3447 08f8 50       		.byte	0x50
 3448 08f9 00       		.byte	0
 3449 08fa 17       		.uleb128 0x17
 3450 08fb 83000000 		.4byte	.LASF73
 3451 08ff 01       		.byte	0x1
 3452 0900 3F04     		.2byte	0x43f
 3453 0902 AE000000 		.4byte	0xae
 3454 0906 00000000 		.4byte	.LFB18
 3455 090a 64000000 		.4byte	.LFE18-.LFB18
 3456 090e 01       		.uleb128 0x1
 3457 090f 9C       		.byte	0x9c
 3458 0910 63090000 		.4byte	0x963
 3459 0914 0C       		.uleb128 0xc
 3460 0915 D2050000 		.4byte	.LASF69
 3461 0919 01       		.byte	0x1
 3462 091a 3F04     		.2byte	0x43f
 3463 091c AE000000 		.4byte	0xae
 3464 0920 4F050000 		.4byte	.LLST33
 3465 0924 0D       		.uleb128 0xd
 3466 0925 21030000 		.4byte	.LASF74
 3467 0929 01       		.byte	0x1
 3468 092a 4204     		.2byte	0x442
 3469 092c AE000000 		.4byte	0xae
 3470 0930 70050000 		.4byte	.LLST34
 3471 0934 0D       		.uleb128 0xd
 3472 0935 23050000 		.4byte	.LASF75
ARM GAS  C:\Users\Nelson\AppData\Local\Temp\ccgC0n3g.s 			page 100


 3473 0939 01       		.byte	0x1
 3474 093a 4304     		.2byte	0x443
 3475 093c AE000000 		.4byte	0xae
 3476 0940 93050000 		.4byte	.LLST35
 3477 0944 19       		.uleb128 0x19
 3478 0945 29050000 		.4byte	.LASF76
 3479 0949 01       		.byte	0x1
 3480 094a 4404     		.2byte	0x444
 3481 094c AE000000 		.4byte	0xae
 3482 0950 01       		.uleb128 0x1
 3483 0951 51       		.byte	0x51
 3484 0952 0D       		.uleb128 0xd
 3485 0953 08050000 		.4byte	.LASF30
 3486 0957 01       		.byte	0x1
 3487 0958 4504     		.2byte	0x445
 3488 095a 72000000 		.4byte	0x72
 3489 095e A6050000 		.4byte	.LLST36
 3490 0962 00       		.byte	0
 3491 0963 15       		.uleb128 0x15
 3492 0964 22010000 		.4byte	.LASF77
 3493 0968 01       		.byte	0x1
 3494 0969 1006     		.2byte	0x610
 3495 096b 00000000 		.4byte	.LFB20
 3496 096f 64000000 		.4byte	.LFE20-.LFB20
 3497 0973 01       		.uleb128 0x1
 3498 0974 9C       		.byte	0x9c
 3499 0975 D8090000 		.4byte	0x9d8
 3500 0979 0C       		.uleb128 0xc
 3501 097a 48050000 		.4byte	.LASF31
 3502 097e 01       		.byte	0x1
 3503 097f 1006     		.2byte	0x610
 3504 0981 72000000 		.4byte	0x72
 3505 0985 C4050000 		.4byte	.LLST37
 3506 0989 0C       		.uleb128 0xc
 3507 098a A1050000 		.4byte	.LASF78
 3508 098e 01       		.byte	0x1
 3509 098f 1006     		.2byte	0x610
 3510 0991 72000000 		.4byte	0x72
 3511 0995 FE050000 		.4byte	.LLST38
 3512 0999 10       		.uleb128 0x10
 3513 099a 22000000 		.4byte	.LVL165
 3514 099e D9050000 		.4byte	0x5d9
 3515 09a2 11       		.uleb128 0x11
 3516 09a3 28000000 		.4byte	.LVL166
 3517 09a7 66020000 		.4byte	0x266
 3518 09ab B6090000 		.4byte	0x9b6
 3519 09af 0F       		.uleb128 0xf
 3520 09b0 01       		.uleb128 0x1
 3521 09b1 50       		.byte	0x50
 3522 09b2 02       		.uleb128 0x2
 3523 09b3 74       		.byte	0x74
 3524 09b4 00       		.sleb128 0
 3525 09b5 00       		.byte	0
 3526 09b6 10       		.uleb128 0x10
 3527 09b7 46000000 		.4byte	.LVL167
 3528 09bb B0050000 		.4byte	0x5b0
 3529 09bf 10       		.uleb128 0x10
ARM GAS  C:\Users\Nelson\AppData\Local\Temp\ccgC0n3g.s 			page 101


 3530 09c0 4A000000 		.4byte	.LVL168
 3531 09c4 30070000 		.4byte	0x730
 3532 09c8 0E       		.uleb128 0xe
 3533 09c9 52000000 		.4byte	.LVL171
 3534 09cd 800B0000 		.4byte	0xb80
 3535 09d1 0F       		.uleb128 0xf
 3536 09d2 01       		.uleb128 0x1
 3537 09d3 50       		.byte	0x50
 3538 09d4 01       		.uleb128 0x1
 3539 09d5 30       		.byte	0x30
 3540 09d6 00       		.byte	0
 3541 09d7 00       		.byte	0
 3542 09d8 17       		.uleb128 0x17
 3543 09d9 19000000 		.4byte	.LASF79
 3544 09dd 01       		.byte	0x1
 3545 09de E206     		.2byte	0x6e2
 3546 09e0 96000000 		.4byte	0x96
 3547 09e4 00000000 		.4byte	.LFB23
 3548 09e8 28000000 		.4byte	.LFE23-.LFB23
 3549 09ec 01       		.uleb128 0x1
 3550 09ed 9C       		.byte	0x9c
 3551 09ee 310A0000 		.4byte	0xa31
 3552 09f2 0D       		.uleb128 0xd
 3553 09f3 FA060000 		.4byte	.LASF61
 3554 09f7 01       		.byte	0x1
 3555 09f8 E406     		.2byte	0x6e4
 3556 09fa 96000000 		.4byte	0x96
 3557 09fe 38060000 		.4byte	.LLST39
 3558 0a02 10       		.uleb128 0x10
 3559 0a03 10000000 		.4byte	.LVL172
 3560 0a07 30070000 		.4byte	0x730
 3561 0a0b 11       		.uleb128 0x11
 3562 0a0c 16000000 		.4byte	.LVL173
 3563 0a10 54070000 		.4byte	0x754
 3564 0a14 1E0A0000 		.4byte	0xa1e
 3565 0a18 0F       		.uleb128 0xf
 3566 0a19 01       		.uleb128 0x1
 3567 0a1a 50       		.byte	0x50
 3568 0a1b 01       		.uleb128 0x1
 3569 0a1c 30       		.byte	0x30
 3570 0a1d 00       		.byte	0
 3571 0a1e 10       		.uleb128 0x10
 3572 0a1f 1A000000 		.4byte	.LVL174
 3573 0a23 8F070000 		.4byte	0x78f
 3574 0a27 10       		.uleb128 0x10
 3575 0a28 20000000 		.4byte	.LVL176
 3576 0a2c 42070000 		.4byte	0x742
 3577 0a30 00       		.byte	0
 3578 0a31 17       		.uleb128 0x17
 3579 0a32 31000000 		.4byte	.LASF80
 3580 0a36 01       		.byte	0x1
 3581 0a37 0307     		.2byte	0x703
 3582 0a39 A2000000 		.4byte	0xa2
 3583 0a3d 00000000 		.4byte	.LFB24
 3584 0a41 28000000 		.4byte	.LFE24-.LFB24
 3585 0a45 01       		.uleb128 0x1
 3586 0a46 9C       		.byte	0x9c
ARM GAS  C:\Users\Nelson\AppData\Local\Temp\ccgC0n3g.s 			page 102


 3587 0a47 8A0A0000 		.4byte	0xa8a
 3588 0a4b 0D       		.uleb128 0xd
 3589 0a4c FA060000 		.4byte	.LASF61
 3590 0a50 01       		.byte	0x1
 3591 0a51 0507     		.2byte	0x705
 3592 0a53 A2000000 		.4byte	0xa2
 3593 0a57 4B060000 		.4byte	.LLST40
 3594 0a5b 10       		.uleb128 0x10
 3595 0a5c 10000000 		.4byte	.LVL178
 3596 0a60 30070000 		.4byte	0x730
 3597 0a64 11       		.uleb128 0x11
 3598 0a65 16000000 		.4byte	.LVL179
 3599 0a69 54070000 		.4byte	0x754
 3600 0a6d 770A0000 		.4byte	0xa77
 3601 0a71 0F       		.uleb128 0xf
 3602 0a72 01       		.uleb128 0x1
 3603 0a73 50       		.byte	0x50
 3604 0a74 01       		.uleb128 0x1
 3605 0a75 30       		.byte	0x30
 3606 0a76 00       		.byte	0
 3607 0a77 10       		.uleb128 0x10
 3608 0a78 1A000000 		.4byte	.LVL180
 3609 0a7c C8070000 		.4byte	0x7c8
 3610 0a80 10       		.uleb128 0x10
 3611 0a81 20000000 		.4byte	.LVL182
 3612 0a85 42070000 		.4byte	0x742
 3613 0a89 00       		.byte	0
 3614 0a8a 17       		.uleb128 0x17
 3615 0a8b 37020000 		.4byte	.LASF81
 3616 0a8f 01       		.byte	0x1
 3617 0a90 2407     		.2byte	0x724
 3618 0a92 AE000000 		.4byte	0xae
 3619 0a96 00000000 		.4byte	.LFB25
 3620 0a9a 28000000 		.4byte	.LFE25-.LFB25
 3621 0a9e 01       		.uleb128 0x1
 3622 0a9f 9C       		.byte	0x9c
 3623 0aa0 E30A0000 		.4byte	0xae3
 3624 0aa4 0D       		.uleb128 0xd
 3625 0aa5 FA060000 		.4byte	.LASF61
 3626 0aa9 01       		.byte	0x1
 3627 0aaa 2607     		.2byte	0x726
 3628 0aac AE000000 		.4byte	0xae
 3629 0ab0 5E060000 		.4byte	.LLST41
 3630 0ab4 10       		.uleb128 0x10
 3631 0ab5 10000000 		.4byte	.LVL184
 3632 0ab9 30070000 		.4byte	0x730
 3633 0abd 11       		.uleb128 0x11
 3634 0abe 16000000 		.4byte	.LVL185
 3635 0ac2 54070000 		.4byte	0x754
 3636 0ac6 D00A0000 		.4byte	0xad0
 3637 0aca 0F       		.uleb128 0xf
 3638 0acb 01       		.uleb128 0x1
 3639 0acc 50       		.byte	0x50
 3640 0acd 01       		.uleb128 0x1
 3641 0ace 30       		.byte	0x30
 3642 0acf 00       		.byte	0
 3643 0ad0 10       		.uleb128 0x10
ARM GAS  C:\Users\Nelson\AppData\Local\Temp\ccgC0n3g.s 			page 103


 3644 0ad1 1A000000 		.4byte	.LVL186
 3645 0ad5 03080000 		.4byte	0x803
 3646 0ad9 10       		.uleb128 0x10
 3647 0ada 20000000 		.4byte	.LVL188
 3648 0ade 42070000 		.4byte	0x742
 3649 0ae2 00       		.byte	0
 3650 0ae3 1B       		.uleb128 0x1b
 3651 0ae4 42010000 		.4byte	0x142
 3652 0ae8 F30A0000 		.4byte	0xaf3
 3653 0aec 1C       		.uleb128 0x1c
 3654 0aed 1A010000 		.4byte	0x11a
 3655 0af1 03       		.byte	0x3
 3656 0af2 00       		.byte	0
 3657 0af3 1D       		.uleb128 0x1d
 3658 0af4 79040000 		.4byte	.LASF82
 3659 0af8 01       		.byte	0x1
 3660 0af9 3D       		.byte	0x3d
 3661 0afa E30A0000 		.4byte	0xae3
 3662 0afe 05       		.uleb128 0x5
 3663 0aff 03       		.byte	0x3
 3664 0b00 00000000 		.4byte	ADC_DelSig_gcor
 3665 0b04 1E       		.uleb128 0x1e
 3666 0b05 40040000 		.4byte	.LASF83
 3667 0b09 01       		.byte	0x1
 3668 0b0a 2C       		.byte	0x2c
 3669 0b0b 72000000 		.4byte	0x72
 3670 0b0f 05       		.uleb128 0x5
 3671 0b10 03       		.byte	0x3
 3672 0b11 00000000 		.4byte	ADC_DelSig_initVar
 3673 0b15 1E       		.uleb128 0x1e
 3674 0b16 98020000 		.4byte	.LASF84
 3675 0b1a 01       		.byte	0x1
 3676 0b1b 24       		.byte	0x24
 3677 0b1c E0000000 		.4byte	0xe0
 3678 0b20 05       		.uleb128 0x5
 3679 0b21 03       		.byte	0x3
 3680 0b22 00000000 		.4byte	ADC_DelSig_convDone
 3681 0b26 1E       		.uleb128 0x1e
 3682 0b27 A6060000 		.4byte	.LASF85
 3683 0b2b 01       		.byte	0x1
 3684 0b2c 29       		.byte	0x29
 3685 0b2d E0000000 		.4byte	0xe0
 3686 0b31 05       		.uleb128 0x5
 3687 0b32 03       		.byte	0x3
 3688 0b33 00000000 		.4byte	ADC_DelSig_stopConversion
 3689 0b37 1E       		.uleb128 0x1e
 3690 0b38 CF000000 		.4byte	.LASF86
 3691 0b3c 01       		.byte	0x1
 3692 0b3d 2F       		.byte	0x2f
 3693 0b3e E0000000 		.4byte	0xe0
 3694 0b42 05       		.uleb128 0x5
 3695 0b43 03       		.byte	0x3
 3696 0b44 00000000 		.4byte	ADC_DelSig_started
 3697 0b48 1E       		.uleb128 0x1e
 3698 0b49 C6060000 		.4byte	.LASF87
 3699 0b4d 01       		.byte	0x1
 3700 0b4e 32       		.byte	0x32
ARM GAS  C:\Users\Nelson\AppData\Local\Temp\ccgC0n3g.s 			page 104


 3701 0b4f E0000000 		.4byte	0xe0
 3702 0b53 05       		.uleb128 0x5
 3703 0b54 03       		.byte	0x3
 3704 0b55 00000000 		.4byte	ADC_DelSig_Config
 3705 0b59 1E       		.uleb128 0x1e
 3706 0b5a CD040000 		.4byte	.LASF88
 3707 0b5e 01       		.byte	0x1
 3708 0b5f 34       		.byte	0x34
 3709 0b60 6A0B0000 		.4byte	0xb6a
 3710 0b64 05       		.uleb128 0x5
 3711 0b65 03       		.byte	0x3
 3712 0b66 00000000 		.4byte	ADC_DelSig_Offset
 3713 0b6a 05       		.uleb128 0x5
 3714 0b6b AE000000 		.4byte	0xae
 3715 0b6f 1E       		.uleb128 0x1e
 3716 0b70 B2050000 		.4byte	.LASF89
 3717 0b74 01       		.byte	0x1
 3718 0b75 35       		.byte	0x35
 3719 0b76 6A0B0000 		.4byte	0xb6a
 3720 0b7a 05       		.uleb128 0x5
 3721 0b7b 03       		.byte	0x3
 3722 0b7c 00000000 		.4byte	ADC_DelSig_CountsPerVolt
 3723 0b80 1F       		.uleb128 0x1f
 3724 0b81 A6040000 		.4byte	.LASF90
 3725 0b85 04       		.byte	0x4
 3726 0b86 7F       		.byte	0x7f
 3727 0b87 910B0000 		.4byte	0xb91
 3728 0b8b 20       		.uleb128 0x20
 3729 0b8c 72000000 		.4byte	0x72
 3730 0b90 00       		.byte	0
 3731 0b91 21       		.uleb128 0x21
 3732 0b92 3A030000 		.4byte	.LASF101
 3733 0b96 04       		.byte	0x4
 3734 0b97 7D       		.byte	0x7d
 3735 0b98 72000000 		.4byte	0x72
 3736 0b9c 1F       		.uleb128 0x1f
 3737 0b9d 06020000 		.4byte	.LASF91
 3738 0ba1 04       		.byte	0x4
 3739 0ba2 77       		.byte	0x77
 3740 0ba3 AD0B0000 		.4byte	0xbad
 3741 0ba7 20       		.uleb128 0x20
 3742 0ba8 7E000000 		.4byte	0x7e
 3743 0bac 00       		.byte	0
 3744 0bad 1F       		.uleb128 0x1f
 3745 0bae 4B000000 		.4byte	.LASF92
 3746 0bb2 04       		.byte	0x4
 3747 0bb3 7E       		.byte	0x7e
 3748 0bb4 BE0B0000 		.4byte	0xbbe
 3749 0bb8 20       		.uleb128 0x20
 3750 0bb9 72000000 		.4byte	0x72
 3751 0bbd 00       		.byte	0
 3752 0bbe 1F       		.uleb128 0x1f
 3753 0bbf EA030000 		.4byte	.LASF93
 3754 0bc3 05       		.byte	0x5
 3755 0bc4 50       		.byte	0x50
 3756 0bc5 CF0B0000 		.4byte	0xbcf
 3757 0bc9 20       		.uleb128 0x20
ARM GAS  C:\Users\Nelson\AppData\Local\Temp\ccgC0n3g.s 			page 105


 3758 0bca 72000000 		.4byte	0x72
 3759 0bce 00       		.byte	0
 3760 0bcf 1F       		.uleb128 0x1f
 3761 0bd0 DF040000 		.4byte	.LASF94
 3762 0bd4 06       		.byte	0x6
 3763 0bd5 2F       		.byte	0x2f
 3764 0bd6 E50B0000 		.4byte	0xbe5
 3765 0bda 20       		.uleb128 0x20
 3766 0bdb 7E000000 		.4byte	0x7e
 3767 0bdf 20       		.uleb128 0x20
 3768 0be0 72000000 		.4byte	0x72
 3769 0be4 00       		.byte	0
 3770 0be5 1F       		.uleb128 0x1f
 3771 0be6 54050000 		.4byte	.LASF95
 3772 0bea 07       		.byte	0x7
 3773 0beb 2F       		.byte	0x2f
 3774 0bec FB0B0000 		.4byte	0xbfb
 3775 0bf0 20       		.uleb128 0x20
 3776 0bf1 7E000000 		.4byte	0x7e
 3777 0bf5 20       		.uleb128 0x20
 3778 0bf6 72000000 		.4byte	0x72
 3779 0bfa 00       		.byte	0
 3780 0bfb 22       		.uleb128 0x22
 3781 0bfc 78010000 		.4byte	.LASF102
 3782 0c00 04       		.byte	0x4
 3783 0c01 88       		.byte	0x88
 3784 0c02 07010000 		.4byte	0x107
 3785 0c06 150C0000 		.4byte	0xc15
 3786 0c0a 20       		.uleb128 0x20
 3787 0c0b 72000000 		.4byte	0x72
 3788 0c0f 20       		.uleb128 0x20
 3789 0c10 07010000 		.4byte	0x107
 3790 0c14 00       		.byte	0
 3791 0c15 1F       		.uleb128 0x1f
 3792 0c16 87010000 		.4byte	.LASF96
 3793 0c1a 06       		.byte	0x6
 3794 0c1b 32       		.byte	0x32
 3795 0c1c 260C0000 		.4byte	0xc26
 3796 0c20 20       		.uleb128 0x20
 3797 0c21 72000000 		.4byte	0x72
 3798 0c25 00       		.byte	0
 3799 0c26 1F       		.uleb128 0x1f
 3800 0c27 60020000 		.4byte	.LASF97
 3801 0c2b 07       		.byte	0x7
 3802 0c2c 32       		.byte	0x32
 3803 0c2d 370C0000 		.4byte	0xc37
 3804 0c31 20       		.uleb128 0x20
 3805 0c32 72000000 		.4byte	0x72
 3806 0c36 00       		.byte	0
 3807 0c37 23       		.uleb128 0x23
 3808 0c38 5D040000 		.4byte	.LASF103
 3809 0c3c 04       		.byte	0x4
 3810 0c3d 8B       		.byte	0x8b
 3811 0c3e 20       		.uleb128 0x20
 3812 0c3f 72000000 		.4byte	0x72
 3813 0c43 20       		.uleb128 0x20
 3814 0c44 72000000 		.4byte	0x72
ARM GAS  C:\Users\Nelson\AppData\Local\Temp\ccgC0n3g.s 			page 106


 3815 0c48 00       		.byte	0
 3816 0c49 00       		.byte	0
 3817              		.section	.debug_abbrev,"",%progbits
 3818              	.Ldebug_abbrev0:
 3819 0000 01       		.uleb128 0x1
 3820 0001 11       		.uleb128 0x11
 3821 0002 01       		.byte	0x1
 3822 0003 25       		.uleb128 0x25
 3823 0004 0E       		.uleb128 0xe
 3824 0005 13       		.uleb128 0x13
 3825 0006 0B       		.uleb128 0xb
 3826 0007 03       		.uleb128 0x3
 3827 0008 0E       		.uleb128 0xe
 3828 0009 1B       		.uleb128 0x1b
 3829 000a 0E       		.uleb128 0xe
 3830 000b 55       		.uleb128 0x55
 3831 000c 17       		.uleb128 0x17
 3832 000d 11       		.uleb128 0x11
 3833 000e 01       		.uleb128 0x1
 3834 000f 10       		.uleb128 0x10
 3835 0010 17       		.uleb128 0x17
 3836 0011 00       		.byte	0
 3837 0012 00       		.byte	0
 3838 0013 02       		.uleb128 0x2
 3839 0014 24       		.uleb128 0x24
 3840 0015 00       		.byte	0
 3841 0016 0B       		.uleb128 0xb
 3842 0017 0B       		.uleb128 0xb
 3843 0018 3E       		.uleb128 0x3e
 3844 0019 0B       		.uleb128 0xb
 3845 001a 03       		.uleb128 0x3
 3846 001b 0E       		.uleb128 0xe
 3847 001c 00       		.byte	0
 3848 001d 00       		.byte	0
 3849 001e 03       		.uleb128 0x3
 3850 001f 24       		.uleb128 0x24
 3851 0020 00       		.byte	0
 3852 0021 0B       		.uleb128 0xb
 3853 0022 0B       		.uleb128 0xb
 3854 0023 3E       		.uleb128 0x3e
 3855 0024 0B       		.uleb128 0xb
 3856 0025 03       		.uleb128 0x3
 3857 0026 08       		.uleb128 0x8
 3858 0027 00       		.byte	0
 3859 0028 00       		.byte	0
 3860 0029 04       		.uleb128 0x4
 3861 002a 16       		.uleb128 0x16
 3862 002b 00       		.byte	0
 3863 002c 03       		.uleb128 0x3
 3864 002d 0E       		.uleb128 0xe
 3865 002e 3A       		.uleb128 0x3a
 3866 002f 0B       		.uleb128 0xb
 3867 0030 3B       		.uleb128 0x3b
 3868 0031 05       		.uleb128 0x5
 3869 0032 49       		.uleb128 0x49
 3870 0033 13       		.uleb128 0x13
 3871 0034 00       		.byte	0
ARM GAS  C:\Users\Nelson\AppData\Local\Temp\ccgC0n3g.s 			page 107


 3872 0035 00       		.byte	0
 3873 0036 05       		.uleb128 0x5
 3874 0037 35       		.uleb128 0x35
 3875 0038 00       		.byte	0
 3876 0039 49       		.uleb128 0x49
 3877 003a 13       		.uleb128 0x13
 3878 003b 00       		.byte	0
 3879 003c 00       		.byte	0
 3880 003d 06       		.uleb128 0x6
 3881 003e 0F       		.uleb128 0xf
 3882 003f 00       		.byte	0
 3883 0040 0B       		.uleb128 0xb
 3884 0041 0B       		.uleb128 0xb
 3885 0042 49       		.uleb128 0x49
 3886 0043 13       		.uleb128 0x13
 3887 0044 00       		.byte	0
 3888 0045 00       		.byte	0
 3889 0046 07       		.uleb128 0x7
 3890 0047 15       		.uleb128 0x15
 3891 0048 00       		.byte	0
 3892 0049 27       		.uleb128 0x27
 3893 004a 19       		.uleb128 0x19
 3894 004b 00       		.byte	0
 3895 004c 00       		.byte	0
 3896 004d 08       		.uleb128 0x8
 3897 004e 13       		.uleb128 0x13
 3898 004f 01       		.byte	0x1
 3899 0050 0B       		.uleb128 0xb
 3900 0051 0B       		.uleb128 0xb
 3901 0052 3A       		.uleb128 0x3a
 3902 0053 0B       		.uleb128 0xb
 3903 0054 3B       		.uleb128 0x3b
 3904 0055 0B       		.uleb128 0xb
 3905 0056 01       		.uleb128 0x1
 3906 0057 13       		.uleb128 0x13
 3907 0058 00       		.byte	0
 3908 0059 00       		.byte	0
 3909 005a 09       		.uleb128 0x9
 3910 005b 0D       		.uleb128 0xd
 3911 005c 00       		.byte	0
 3912 005d 03       		.uleb128 0x3
 3913 005e 0E       		.uleb128 0xe
 3914 005f 3A       		.uleb128 0x3a
 3915 0060 0B       		.uleb128 0xb
 3916 0061 3B       		.uleb128 0x3b
 3917 0062 0B       		.uleb128 0xb
 3918 0063 49       		.uleb128 0x49
 3919 0064 13       		.uleb128 0x13
 3920 0065 38       		.uleb128 0x38
 3921 0066 0B       		.uleb128 0xb
 3922 0067 00       		.byte	0
 3923 0068 00       		.byte	0
 3924 0069 0A       		.uleb128 0xa
 3925 006a 16       		.uleb128 0x16
 3926 006b 00       		.byte	0
 3927 006c 03       		.uleb128 0x3
 3928 006d 0E       		.uleb128 0xe
ARM GAS  C:\Users\Nelson\AppData\Local\Temp\ccgC0n3g.s 			page 108


 3929 006e 3A       		.uleb128 0x3a
 3930 006f 0B       		.uleb128 0xb
 3931 0070 3B       		.uleb128 0x3b
 3932 0071 0B       		.uleb128 0xb
 3933 0072 49       		.uleb128 0x49
 3934 0073 13       		.uleb128 0x13
 3935 0074 00       		.byte	0
 3936 0075 00       		.byte	0
 3937 0076 0B       		.uleb128 0xb
 3938 0077 2E       		.uleb128 0x2e
 3939 0078 01       		.byte	0x1
 3940 0079 03       		.uleb128 0x3
 3941 007a 0E       		.uleb128 0xe
 3942 007b 3A       		.uleb128 0x3a
 3943 007c 0B       		.uleb128 0xb
 3944 007d 3B       		.uleb128 0x3b
 3945 007e 05       		.uleb128 0x5
 3946 007f 27       		.uleb128 0x27
 3947 0080 19       		.uleb128 0x19
 3948 0081 11       		.uleb128 0x11
 3949 0082 01       		.uleb128 0x1
 3950 0083 12       		.uleb128 0x12
 3951 0084 06       		.uleb128 0x6
 3952 0085 40       		.uleb128 0x40
 3953 0086 18       		.uleb128 0x18
 3954 0087 9742     		.uleb128 0x2117
 3955 0089 19       		.uleb128 0x19
 3956 008a 01       		.uleb128 0x1
 3957 008b 13       		.uleb128 0x13
 3958 008c 00       		.byte	0
 3959 008d 00       		.byte	0
 3960 008e 0C       		.uleb128 0xc
 3961 008f 05       		.uleb128 0x5
 3962 0090 00       		.byte	0
 3963 0091 03       		.uleb128 0x3
 3964 0092 0E       		.uleb128 0xe
 3965 0093 3A       		.uleb128 0x3a
 3966 0094 0B       		.uleb128 0xb
 3967 0095 3B       		.uleb128 0x3b
 3968 0096 05       		.uleb128 0x5
 3969 0097 49       		.uleb128 0x49
 3970 0098 13       		.uleb128 0x13
 3971 0099 02       		.uleb128 0x2
 3972 009a 17       		.uleb128 0x17
 3973 009b 00       		.byte	0
 3974 009c 00       		.byte	0
 3975 009d 0D       		.uleb128 0xd
 3976 009e 34       		.uleb128 0x34
 3977 009f 00       		.byte	0
 3978 00a0 03       		.uleb128 0x3
 3979 00a1 0E       		.uleb128 0xe
 3980 00a2 3A       		.uleb128 0x3a
 3981 00a3 0B       		.uleb128 0xb
 3982 00a4 3B       		.uleb128 0x3b
 3983 00a5 05       		.uleb128 0x5
 3984 00a6 49       		.uleb128 0x49
 3985 00a7 13       		.uleb128 0x13
ARM GAS  C:\Users\Nelson\AppData\Local\Temp\ccgC0n3g.s 			page 109


 3986 00a8 02       		.uleb128 0x2
 3987 00a9 17       		.uleb128 0x17
 3988 00aa 00       		.byte	0
 3989 00ab 00       		.byte	0
 3990 00ac 0E       		.uleb128 0xe
 3991 00ad 898201   		.uleb128 0x4109
 3992 00b0 01       		.byte	0x1
 3993 00b1 11       		.uleb128 0x11
 3994 00b2 01       		.uleb128 0x1
 3995 00b3 31       		.uleb128 0x31
 3996 00b4 13       		.uleb128 0x13
 3997 00b5 00       		.byte	0
 3998 00b6 00       		.byte	0
 3999 00b7 0F       		.uleb128 0xf
 4000 00b8 8A8201   		.uleb128 0x410a
 4001 00bb 00       		.byte	0
 4002 00bc 02       		.uleb128 0x2
 4003 00bd 18       		.uleb128 0x18
 4004 00be 9142     		.uleb128 0x2111
 4005 00c0 18       		.uleb128 0x18
 4006 00c1 00       		.byte	0
 4007 00c2 00       		.byte	0
 4008 00c3 10       		.uleb128 0x10
 4009 00c4 898201   		.uleb128 0x4109
 4010 00c7 00       		.byte	0
 4011 00c8 11       		.uleb128 0x11
 4012 00c9 01       		.uleb128 0x1
 4013 00ca 31       		.uleb128 0x31
 4014 00cb 13       		.uleb128 0x13
 4015 00cc 00       		.byte	0
 4016 00cd 00       		.byte	0
 4017 00ce 11       		.uleb128 0x11
 4018 00cf 898201   		.uleb128 0x4109
 4019 00d2 01       		.byte	0x1
 4020 00d3 11       		.uleb128 0x11
 4021 00d4 01       		.uleb128 0x1
 4022 00d5 31       		.uleb128 0x31
 4023 00d6 13       		.uleb128 0x13
 4024 00d7 01       		.uleb128 0x1
 4025 00d8 13       		.uleb128 0x13
 4026 00d9 00       		.byte	0
 4027 00da 00       		.byte	0
 4028 00db 12       		.uleb128 0x12
 4029 00dc 2E       		.uleb128 0x2e
 4030 00dd 01       		.byte	0x1
 4031 00de 3F       		.uleb128 0x3f
 4032 00df 19       		.uleb128 0x19
 4033 00e0 03       		.uleb128 0x3
 4034 00e1 0E       		.uleb128 0xe
 4035 00e2 3A       		.uleb128 0x3a
 4036 00e3 0B       		.uleb128 0xb
 4037 00e4 3B       		.uleb128 0x3b
 4038 00e5 0B       		.uleb128 0xb
 4039 00e6 27       		.uleb128 0x27
 4040 00e7 19       		.uleb128 0x19
 4041 00e8 11       		.uleb128 0x11
 4042 00e9 01       		.uleb128 0x1
ARM GAS  C:\Users\Nelson\AppData\Local\Temp\ccgC0n3g.s 			page 110


 4043 00ea 12       		.uleb128 0x12
 4044 00eb 06       		.uleb128 0x6
 4045 00ec 40       		.uleb128 0x40
 4046 00ed 18       		.uleb128 0x18
 4047 00ee 9742     		.uleb128 0x2117
 4048 00f0 19       		.uleb128 0x19
 4049 00f1 01       		.uleb128 0x1
 4050 00f2 13       		.uleb128 0x13
 4051 00f3 00       		.byte	0
 4052 00f4 00       		.byte	0
 4053 00f5 13       		.uleb128 0x13
 4054 00f6 34       		.uleb128 0x34
 4055 00f7 00       		.byte	0
 4056 00f8 03       		.uleb128 0x3
 4057 00f9 0E       		.uleb128 0xe
 4058 00fa 3A       		.uleb128 0x3a
 4059 00fb 0B       		.uleb128 0xb
 4060 00fc 3B       		.uleb128 0x3b
 4061 00fd 0B       		.uleb128 0xb
 4062 00fe 49       		.uleb128 0x49
 4063 00ff 13       		.uleb128 0x13
 4064 0100 00       		.byte	0
 4065 0101 00       		.byte	0
 4066 0102 14       		.uleb128 0x14
 4067 0103 34       		.uleb128 0x34
 4068 0104 00       		.byte	0
 4069 0105 03       		.uleb128 0x3
 4070 0106 0E       		.uleb128 0xe
 4071 0107 3A       		.uleb128 0x3a
 4072 0108 0B       		.uleb128 0xb
 4073 0109 3B       		.uleb128 0x3b
 4074 010a 0B       		.uleb128 0xb
 4075 010b 49       		.uleb128 0x49
 4076 010c 13       		.uleb128 0x13
 4077 010d 02       		.uleb128 0x2
 4078 010e 17       		.uleb128 0x17
 4079 010f 00       		.byte	0
 4080 0110 00       		.byte	0
 4081 0111 15       		.uleb128 0x15
 4082 0112 2E       		.uleb128 0x2e
 4083 0113 01       		.byte	0x1
 4084 0114 3F       		.uleb128 0x3f
 4085 0115 19       		.uleb128 0x19
 4086 0116 03       		.uleb128 0x3
 4087 0117 0E       		.uleb128 0xe
 4088 0118 3A       		.uleb128 0x3a
 4089 0119 0B       		.uleb128 0xb
 4090 011a 3B       		.uleb128 0x3b
 4091 011b 05       		.uleb128 0x5
 4092 011c 27       		.uleb128 0x27
 4093 011d 19       		.uleb128 0x19
 4094 011e 11       		.uleb128 0x11
 4095 011f 01       		.uleb128 0x1
 4096 0120 12       		.uleb128 0x12
 4097 0121 06       		.uleb128 0x6
 4098 0122 40       		.uleb128 0x40
 4099 0123 18       		.uleb128 0x18
ARM GAS  C:\Users\Nelson\AppData\Local\Temp\ccgC0n3g.s 			page 111


 4100 0124 9742     		.uleb128 0x2117
 4101 0126 19       		.uleb128 0x19
 4102 0127 01       		.uleb128 0x1
 4103 0128 13       		.uleb128 0x13
 4104 0129 00       		.byte	0
 4105 012a 00       		.byte	0
 4106 012b 16       		.uleb128 0x16
 4107 012c 2E       		.uleb128 0x2e
 4108 012d 01       		.byte	0x1
 4109 012e 3F       		.uleb128 0x3f
 4110 012f 19       		.uleb128 0x19
 4111 0130 03       		.uleb128 0x3
 4112 0131 0E       		.uleb128 0xe
 4113 0132 3A       		.uleb128 0x3a
 4114 0133 0B       		.uleb128 0xb
 4115 0134 3B       		.uleb128 0x3b
 4116 0135 05       		.uleb128 0x5
 4117 0136 27       		.uleb128 0x27
 4118 0137 19       		.uleb128 0x19
 4119 0138 49       		.uleb128 0x49
 4120 0139 13       		.uleb128 0x13
 4121 013a 11       		.uleb128 0x11
 4122 013b 01       		.uleb128 0x1
 4123 013c 12       		.uleb128 0x12
 4124 013d 06       		.uleb128 0x6
 4125 013e 40       		.uleb128 0x40
 4126 013f 18       		.uleb128 0x18
 4127 0140 9642     		.uleb128 0x2116
 4128 0142 19       		.uleb128 0x19
 4129 0143 01       		.uleb128 0x1
 4130 0144 13       		.uleb128 0x13
 4131 0145 00       		.byte	0
 4132 0146 00       		.byte	0
 4133 0147 17       		.uleb128 0x17
 4134 0148 2E       		.uleb128 0x2e
 4135 0149 01       		.byte	0x1
 4136 014a 3F       		.uleb128 0x3f
 4137 014b 19       		.uleb128 0x19
 4138 014c 03       		.uleb128 0x3
 4139 014d 0E       		.uleb128 0xe
 4140 014e 3A       		.uleb128 0x3a
 4141 014f 0B       		.uleb128 0xb
 4142 0150 3B       		.uleb128 0x3b
 4143 0151 05       		.uleb128 0x5
 4144 0152 27       		.uleb128 0x27
 4145 0153 19       		.uleb128 0x19
 4146 0154 49       		.uleb128 0x49
 4147 0155 13       		.uleb128 0x13
 4148 0156 11       		.uleb128 0x11
 4149 0157 01       		.uleb128 0x1
 4150 0158 12       		.uleb128 0x12
 4151 0159 06       		.uleb128 0x6
 4152 015a 40       		.uleb128 0x40
 4153 015b 18       		.uleb128 0x18
 4154 015c 9742     		.uleb128 0x2117
 4155 015e 19       		.uleb128 0x19
 4156 015f 01       		.uleb128 0x1
ARM GAS  C:\Users\Nelson\AppData\Local\Temp\ccgC0n3g.s 			page 112


 4157 0160 13       		.uleb128 0x13
 4158 0161 00       		.byte	0
 4159 0162 00       		.byte	0
 4160 0163 18       		.uleb128 0x18
 4161 0164 2E       		.uleb128 0x2e
 4162 0165 00       		.byte	0
 4163 0166 3F       		.uleb128 0x3f
 4164 0167 19       		.uleb128 0x19
 4165 0168 03       		.uleb128 0x3
 4166 0169 0E       		.uleb128 0xe
 4167 016a 3A       		.uleb128 0x3a
 4168 016b 0B       		.uleb128 0xb
 4169 016c 3B       		.uleb128 0x3b
 4170 016d 05       		.uleb128 0x5
 4171 016e 27       		.uleb128 0x27
 4172 016f 19       		.uleb128 0x19
 4173 0170 11       		.uleb128 0x11
 4174 0171 01       		.uleb128 0x1
 4175 0172 12       		.uleb128 0x12
 4176 0173 06       		.uleb128 0x6
 4177 0174 40       		.uleb128 0x40
 4178 0175 18       		.uleb128 0x18
 4179 0176 9742     		.uleb128 0x2117
 4180 0178 19       		.uleb128 0x19
 4181 0179 00       		.byte	0
 4182 017a 00       		.byte	0
 4183 017b 19       		.uleb128 0x19
 4184 017c 34       		.uleb128 0x34
 4185 017d 00       		.byte	0
 4186 017e 03       		.uleb128 0x3
 4187 017f 0E       		.uleb128 0xe
 4188 0180 3A       		.uleb128 0x3a
 4189 0181 0B       		.uleb128 0xb
 4190 0182 3B       		.uleb128 0x3b
 4191 0183 05       		.uleb128 0x5
 4192 0184 49       		.uleb128 0x49
 4193 0185 13       		.uleb128 0x13
 4194 0186 02       		.uleb128 0x2
 4195 0187 18       		.uleb128 0x18
 4196 0188 00       		.byte	0
 4197 0189 00       		.byte	0
 4198 018a 1A       		.uleb128 0x1a
 4199 018b 05       		.uleb128 0x5
 4200 018c 00       		.byte	0
 4201 018d 03       		.uleb128 0x3
 4202 018e 0E       		.uleb128 0xe
 4203 018f 3A       		.uleb128 0x3a
 4204 0190 0B       		.uleb128 0xb
 4205 0191 3B       		.uleb128 0x3b
 4206 0192 05       		.uleb128 0x5
 4207 0193 49       		.uleb128 0x49
 4208 0194 13       		.uleb128 0x13
 4209 0195 02       		.uleb128 0x2
 4210 0196 18       		.uleb128 0x18
 4211 0197 00       		.byte	0
 4212 0198 00       		.byte	0
 4213 0199 1B       		.uleb128 0x1b
ARM GAS  C:\Users\Nelson\AppData\Local\Temp\ccgC0n3g.s 			page 113


 4214 019a 01       		.uleb128 0x1
 4215 019b 01       		.byte	0x1
 4216 019c 49       		.uleb128 0x49
 4217 019d 13       		.uleb128 0x13
 4218 019e 01       		.uleb128 0x1
 4219 019f 13       		.uleb128 0x13
 4220 01a0 00       		.byte	0
 4221 01a1 00       		.byte	0
 4222 01a2 1C       		.uleb128 0x1c
 4223 01a3 21       		.uleb128 0x21
 4224 01a4 00       		.byte	0
 4225 01a5 49       		.uleb128 0x49
 4226 01a6 13       		.uleb128 0x13
 4227 01a7 2F       		.uleb128 0x2f
 4228 01a8 0B       		.uleb128 0xb
 4229 01a9 00       		.byte	0
 4230 01aa 00       		.byte	0
 4231 01ab 1D       		.uleb128 0x1d
 4232 01ac 34       		.uleb128 0x34
 4233 01ad 00       		.byte	0
 4234 01ae 03       		.uleb128 0x3
 4235 01af 0E       		.uleb128 0xe
 4236 01b0 3A       		.uleb128 0x3a
 4237 01b1 0B       		.uleb128 0xb
 4238 01b2 3B       		.uleb128 0x3b
 4239 01b3 0B       		.uleb128 0xb
 4240 01b4 49       		.uleb128 0x49
 4241 01b5 13       		.uleb128 0x13
 4242 01b6 02       		.uleb128 0x2
 4243 01b7 18       		.uleb128 0x18
 4244 01b8 00       		.byte	0
 4245 01b9 00       		.byte	0
 4246 01ba 1E       		.uleb128 0x1e
 4247 01bb 34       		.uleb128 0x34
 4248 01bc 00       		.byte	0
 4249 01bd 03       		.uleb128 0x3
 4250 01be 0E       		.uleb128 0xe
 4251 01bf 3A       		.uleb128 0x3a
 4252 01c0 0B       		.uleb128 0xb
 4253 01c1 3B       		.uleb128 0x3b
 4254 01c2 0B       		.uleb128 0xb
 4255 01c3 49       		.uleb128 0x49
 4256 01c4 13       		.uleb128 0x13
 4257 01c5 3F       		.uleb128 0x3f
 4258 01c6 19       		.uleb128 0x19
 4259 01c7 02       		.uleb128 0x2
 4260 01c8 18       		.uleb128 0x18
 4261 01c9 00       		.byte	0
 4262 01ca 00       		.byte	0
 4263 01cb 1F       		.uleb128 0x1f
 4264 01cc 2E       		.uleb128 0x2e
 4265 01cd 01       		.byte	0x1
 4266 01ce 3F       		.uleb128 0x3f
 4267 01cf 19       		.uleb128 0x19
 4268 01d0 03       		.uleb128 0x3
 4269 01d1 0E       		.uleb128 0xe
 4270 01d2 3A       		.uleb128 0x3a
ARM GAS  C:\Users\Nelson\AppData\Local\Temp\ccgC0n3g.s 			page 114


 4271 01d3 0B       		.uleb128 0xb
 4272 01d4 3B       		.uleb128 0x3b
 4273 01d5 0B       		.uleb128 0xb
 4274 01d6 27       		.uleb128 0x27
 4275 01d7 19       		.uleb128 0x19
 4276 01d8 3C       		.uleb128 0x3c
 4277 01d9 19       		.uleb128 0x19
 4278 01da 01       		.uleb128 0x1
 4279 01db 13       		.uleb128 0x13
 4280 01dc 00       		.byte	0
 4281 01dd 00       		.byte	0
 4282 01de 20       		.uleb128 0x20
 4283 01df 05       		.uleb128 0x5
 4284 01e0 00       		.byte	0
 4285 01e1 49       		.uleb128 0x49
 4286 01e2 13       		.uleb128 0x13
 4287 01e3 00       		.byte	0
 4288 01e4 00       		.byte	0
 4289 01e5 21       		.uleb128 0x21
 4290 01e6 2E       		.uleb128 0x2e
 4291 01e7 00       		.byte	0
 4292 01e8 3F       		.uleb128 0x3f
 4293 01e9 19       		.uleb128 0x19
 4294 01ea 03       		.uleb128 0x3
 4295 01eb 0E       		.uleb128 0xe
 4296 01ec 3A       		.uleb128 0x3a
 4297 01ed 0B       		.uleb128 0xb
 4298 01ee 3B       		.uleb128 0x3b
 4299 01ef 0B       		.uleb128 0xb
 4300 01f0 27       		.uleb128 0x27
 4301 01f1 19       		.uleb128 0x19
 4302 01f2 49       		.uleb128 0x49
 4303 01f3 13       		.uleb128 0x13
 4304 01f4 3C       		.uleb128 0x3c
 4305 01f5 19       		.uleb128 0x19
 4306 01f6 00       		.byte	0
 4307 01f7 00       		.byte	0
 4308 01f8 22       		.uleb128 0x22
 4309 01f9 2E       		.uleb128 0x2e
 4310 01fa 01       		.byte	0x1
 4311 01fb 3F       		.uleb128 0x3f
 4312 01fc 19       		.uleb128 0x19
 4313 01fd 03       		.uleb128 0x3
 4314 01fe 0E       		.uleb128 0xe
 4315 01ff 3A       		.uleb128 0x3a
 4316 0200 0B       		.uleb128 0xb
 4317 0201 3B       		.uleb128 0x3b
 4318 0202 0B       		.uleb128 0xb
 4319 0203 27       		.uleb128 0x27
 4320 0204 19       		.uleb128 0x19
 4321 0205 49       		.uleb128 0x49
 4322 0206 13       		.uleb128 0x13
 4323 0207 3C       		.uleb128 0x3c
 4324 0208 19       		.uleb128 0x19
 4325 0209 01       		.uleb128 0x1
 4326 020a 13       		.uleb128 0x13
 4327 020b 00       		.byte	0
ARM GAS  C:\Users\Nelson\AppData\Local\Temp\ccgC0n3g.s 			page 115


 4328 020c 00       		.byte	0
 4329 020d 23       		.uleb128 0x23
 4330 020e 2E       		.uleb128 0x2e
 4331 020f 01       		.byte	0x1
 4332 0210 3F       		.uleb128 0x3f
 4333 0211 19       		.uleb128 0x19
 4334 0212 03       		.uleb128 0x3
 4335 0213 0E       		.uleb128 0xe
 4336 0214 3A       		.uleb128 0x3a
 4337 0215 0B       		.uleb128 0xb
 4338 0216 3B       		.uleb128 0x3b
 4339 0217 0B       		.uleb128 0xb
 4340 0218 27       		.uleb128 0x27
 4341 0219 19       		.uleb128 0x19
 4342 021a 3C       		.uleb128 0x3c
 4343 021b 19       		.uleb128 0x19
 4344 021c 00       		.byte	0
 4345 021d 00       		.byte	0
 4346 021e 00       		.byte	0
 4347              		.section	.debug_loc,"",%progbits
 4348              	.Ldebug_loc0:
 4349              	.LLST0:
 4350 0000 00000000 		.4byte	.LVL0
 4351 0004 10000000 		.4byte	.LVL1
 4352 0008 0100     		.2byte	0x1
 4353 000a 50       		.byte	0x50
 4354 000b 10000000 		.4byte	.LVL1
 4355 000f A4000000 		.4byte	.LVL29
 4356 0013 0400     		.2byte	0x4
 4357 0015 F3       		.byte	0xf3
 4358 0016 01       		.uleb128 0x1
 4359 0017 50       		.byte	0x50
 4360 0018 9F       		.byte	0x9f
 4361 0019 A4000000 		.4byte	.LVL29
 4362 001d A6000000 		.4byte	.LVL30
 4363 0021 0100     		.2byte	0x1
 4364 0023 50       		.byte	0x50
 4365 0024 A6000000 		.4byte	.LVL30
 4366 0028 D0000000 		.4byte	.LFE21
 4367 002c 0400     		.2byte	0x4
 4368 002e F3       		.byte	0xf3
 4369 002f 01       		.uleb128 0x1
 4370 0030 50       		.byte	0x50
 4371 0031 9F       		.byte	0x9f
 4372 0032 00000000 		.4byte	0
 4373 0036 00000000 		.4byte	0
 4374              	.LLST1:
 4375 003a 00000000 		.4byte	.LVL0
 4376 003e 6A000000 		.4byte	.LVL19
 4377 0042 0100     		.2byte	0x1
 4378 0044 51       		.byte	0x51
 4379 0045 6A000000 		.4byte	.LVL19
 4380 0049 A4000000 		.4byte	.LVL29
 4381 004d 0400     		.2byte	0x4
 4382 004f F3       		.byte	0xf3
 4383 0050 01       		.uleb128 0x1
 4384 0051 51       		.byte	0x51
ARM GAS  C:\Users\Nelson\AppData\Local\Temp\ccgC0n3g.s 			page 116


 4385 0052 9F       		.byte	0x9f
 4386 0053 A4000000 		.4byte	.LVL29
 4387 0057 A9000000 		.4byte	.LVL31-1
 4388 005b 0100     		.2byte	0x1
 4389 005d 51       		.byte	0x51
 4390 005e A9000000 		.4byte	.LVL31-1
 4391 0062 D0000000 		.4byte	.LFE21
 4392 0066 0400     		.2byte	0x4
 4393 0068 F3       		.byte	0xf3
 4394 0069 01       		.uleb128 0x1
 4395 006a 51       		.byte	0x51
 4396 006b 9F       		.byte	0x9f
 4397 006c 00000000 		.4byte	0
 4398 0070 00000000 		.4byte	0
 4399              	.LLST2:
 4400 0074 00000000 		.4byte	.LVL0
 4401 0078 6E000000 		.4byte	.LVL20
 4402 007c 0100     		.2byte	0x1
 4403 007e 52       		.byte	0x52
 4404 007f 6E000000 		.4byte	.LVL20
 4405 0083 A4000000 		.4byte	.LVL29
 4406 0087 0400     		.2byte	0x4
 4407 0089 F3       		.byte	0xf3
 4408 008a 01       		.uleb128 0x1
 4409 008b 52       		.byte	0x52
 4410 008c 9F       		.byte	0x9f
 4411 008d A4000000 		.4byte	.LVL29
 4412 0091 A9000000 		.4byte	.LVL31-1
 4413 0095 0100     		.2byte	0x1
 4414 0097 52       		.byte	0x52
 4415 0098 A9000000 		.4byte	.LVL31-1
 4416 009c D0000000 		.4byte	.LFE21
 4417 00a0 0400     		.2byte	0x4
 4418 00a2 F3       		.byte	0xf3
 4419 00a3 01       		.uleb128 0x1
 4420 00a4 52       		.byte	0x52
 4421 00a5 9F       		.byte	0x9f
 4422 00a6 00000000 		.4byte	0
 4423 00aa 00000000 		.4byte	0
 4424              	.LLST3:
 4425 00ae 00000000 		.4byte	.LVL0
 4426 00b2 88000000 		.4byte	.LVL26
 4427 00b6 0100     		.2byte	0x1
 4428 00b8 53       		.byte	0x53
 4429 00b9 88000000 		.4byte	.LVL26
 4430 00bd 8E000000 		.4byte	.LVL27
 4431 00c1 0400     		.2byte	0x4
 4432 00c3 F3       		.byte	0xf3
 4433 00c4 01       		.uleb128 0x1
 4434 00c5 53       		.byte	0x53
 4435 00c6 9F       		.byte	0x9f
 4436 00c7 8E000000 		.4byte	.LVL27
 4437 00cb 90000000 		.4byte	.LVL28
 4438 00cf 0100     		.2byte	0x1
 4439 00d1 53       		.byte	0x53
 4440 00d2 90000000 		.4byte	.LVL28
 4441 00d6 A4000000 		.4byte	.LVL29
ARM GAS  C:\Users\Nelson\AppData\Local\Temp\ccgC0n3g.s 			page 117


 4442 00da 0400     		.2byte	0x4
 4443 00dc F3       		.byte	0xf3
 4444 00dd 01       		.uleb128 0x1
 4445 00de 53       		.byte	0x53
 4446 00df 9F       		.byte	0x9f
 4447 00e0 A4000000 		.4byte	.LVL29
 4448 00e4 A9000000 		.4byte	.LVL31-1
 4449 00e8 0100     		.2byte	0x1
 4450 00ea 53       		.byte	0x53
 4451 00eb A9000000 		.4byte	.LVL31-1
 4452 00ef D0000000 		.4byte	.LFE21
 4453 00f3 0400     		.2byte	0x4
 4454 00f5 F3       		.byte	0xf3
 4455 00f6 01       		.uleb128 0x1
 4456 00f7 53       		.byte	0x53
 4457 00f8 9F       		.byte	0x9f
 4458 00f9 00000000 		.4byte	0
 4459 00fd 00000000 		.4byte	0
 4460              	.LLST4:
 4461 0101 00000000 		.4byte	.LVL0
 4462 0105 A4000000 		.4byte	.LVL29
 4463 0109 0200     		.2byte	0x2
 4464 010b 91       		.byte	0x91
 4465 010c 00       		.sleb128 0
 4466 010d A4000000 		.4byte	.LVL29
 4467 0111 AC000000 		.4byte	.LVL32
 4468 0115 0200     		.2byte	0x2
 4469 0117 91       		.byte	0x91
 4470 0118 00       		.sleb128 0
 4471 0119 AC000000 		.4byte	.LVL32
 4472 011d D0000000 		.4byte	.LFE21
 4473 0121 0200     		.2byte	0x2
 4474 0123 7D       		.byte	0x7d
 4475 0124 00       		.sleb128 0
 4476 0125 00000000 		.4byte	0
 4477 0129 00000000 		.4byte	0
 4478              	.LLST5:
 4479 012d 2A000000 		.4byte	.LVL2
 4480 0131 2C000000 		.4byte	.LVL3
 4481 0135 0100     		.2byte	0x1
 4482 0137 50       		.byte	0x50
 4483 0138 30000000 		.4byte	.LVL4
 4484 013c 32000000 		.4byte	.LVL5
 4485 0140 0100     		.2byte	0x1
 4486 0142 50       		.byte	0x50
 4487 0143 3A000000 		.4byte	.LVL6
 4488 0147 3C000000 		.4byte	.LVL7
 4489 014b 0100     		.2byte	0x1
 4490 014d 50       		.byte	0x50
 4491 014e 40000000 		.4byte	.LVL8
 4492 0152 42000000 		.4byte	.LVL9
 4493 0156 0100     		.2byte	0x1
 4494 0158 50       		.byte	0x50
 4495 0159 4A000000 		.4byte	.LVL10
 4496 015d 4C000000 		.4byte	.LVL11
 4497 0161 0100     		.2byte	0x1
 4498 0163 50       		.byte	0x50
ARM GAS  C:\Users\Nelson\AppData\Local\Temp\ccgC0n3g.s 			page 118


 4499 0164 50000000 		.4byte	.LVL12
 4500 0168 52000000 		.4byte	.LVL13
 4501 016c 0100     		.2byte	0x1
 4502 016e 50       		.byte	0x50
 4503 016f 5A000000 		.4byte	.LVL14
 4504 0173 5C000000 		.4byte	.LVL15
 4505 0177 0100     		.2byte	0x1
 4506 0179 50       		.byte	0x50
 4507 017a 60000000 		.4byte	.LVL16
 4508 017e 62000000 		.4byte	.LVL17
 4509 0182 0100     		.2byte	0x1
 4510 0184 50       		.byte	0x50
 4511 0185 64000000 		.4byte	.LVL18
 4512 0189 A4000000 		.4byte	.LVL29
 4513 018d 0100     		.2byte	0x1
 4514 018f 50       		.byte	0x50
 4515 0190 00000000 		.4byte	0
 4516 0194 00000000 		.4byte	0
 4517              	.LLST6:
 4518 0198 6A000000 		.4byte	.LVL19
 4519 019c 72000000 		.4byte	.LVL22
 4520 01a0 0100     		.2byte	0x1
 4521 01a2 51       		.byte	0x51
 4522 01a3 00000000 		.4byte	0
 4523 01a7 00000000 		.4byte	0
 4524              	.LLST7:
 4525 01ab 72000000 		.4byte	.LVL22
 4526 01af 7A000000 		.4byte	.LVL23
 4527 01b3 0100     		.2byte	0x1
 4528 01b5 51       		.byte	0x51
 4529 01b6 7A000000 		.4byte	.LVL23
 4530 01ba 7E000000 		.4byte	.LVL24
 4531 01be 0100     		.2byte	0x1
 4532 01c0 52       		.byte	0x52
 4533 01c1 80000000 		.4byte	.LVL25
 4534 01c5 A4000000 		.4byte	.LVL29
 4535 01c9 0100     		.2byte	0x1
 4536 01cb 51       		.byte	0x51
 4537 01cc 00000000 		.4byte	0
 4538 01d0 00000000 		.4byte	0
 4539              	.LLST8:
 4540 01d4 6E000000 		.4byte	.LVL20
 4541 01d8 70000000 		.4byte	.LVL21
 4542 01dc 0100     		.2byte	0x1
 4543 01de 52       		.byte	0x52
 4544 01df 00000000 		.4byte	0
 4545 01e3 00000000 		.4byte	0
 4546              	.LLST9:
 4547 01e7 00000000 		.4byte	.LVL33
 4548 01eb 07000000 		.4byte	.LVL34-1
 4549 01ef 0100     		.2byte	0x1
 4550 01f1 50       		.byte	0x50
 4551 01f2 07000000 		.4byte	.LVL34-1
 4552 01f6 4C000000 		.4byte	.LFE22
 4553 01fa 0400     		.2byte	0x4
 4554 01fc F3       		.byte	0xf3
 4555 01fd 01       		.uleb128 0x1
ARM GAS  C:\Users\Nelson\AppData\Local\Temp\ccgC0n3g.s 			page 119


 4556 01fe 50       		.byte	0x50
 4557 01ff 9F       		.byte	0x9f
 4558 0200 00000000 		.4byte	0
 4559 0204 00000000 		.4byte	0
 4560              	.LLST10:
 4561 0208 0A000000 		.4byte	.LVL35
 4562 020c 40000000 		.4byte	.LVL38
 4563 0210 0100     		.2byte	0x1
 4564 0212 56       		.byte	0x56
 4565 0213 00000000 		.4byte	0
 4566 0217 00000000 		.4byte	0
 4567              	.LLST11:
 4568 021b 00000000 		.4byte	.LVL39
 4569 021f 82000000 		.4byte	.LVL40
 4570 0223 0100     		.2byte	0x1
 4571 0225 50       		.byte	0x50
 4572 0226 82000000 		.4byte	.LVL40
 4573 022a 28030000 		.4byte	.LFE19
 4574 022e 0400     		.2byte	0x4
 4575 0230 F3       		.byte	0xf3
 4576 0231 01       		.uleb128 0x1
 4577 0232 50       		.byte	0x50
 4578 0233 9F       		.byte	0x9f
 4579 0234 00000000 		.4byte	0
 4580 0238 00000000 		.4byte	0
 4581              	.LLST12:
 4582 023c 08000000 		.4byte	.LVL70
 4583 0240 B2000000 		.4byte	.LVL74
 4584 0244 0100     		.2byte	0x1
 4585 0246 56       		.byte	0x56
 4586 0247 00000000 		.4byte	0
 4587 024b 00000000 		.4byte	0
 4588              	.LLST13:
 4589 024f 08000000 		.4byte	.LVL78
 4590 0253 CE000000 		.4byte	.LVL81
 4591 0257 0100     		.2byte	0x1
 4592 0259 56       		.byte	0x56
 4593 025a 00000000 		.4byte	0
 4594 025e 00000000 		.4byte	0
 4595              	.LLST14:
 4596 0262 00000000 		.4byte	.LVL82
 4597 0266 0A000000 		.4byte	.LVL84
 4598 026a 0100     		.2byte	0x1
 4599 026c 50       		.byte	0x50
 4600 026d 0A000000 		.4byte	.LVL84
 4601 0271 18000000 		.4byte	.LFE4
 4602 0275 0400     		.2byte	0x4
 4603 0277 F3       		.byte	0xf3
 4604 0278 01       		.uleb128 0x1
 4605 0279 50       		.byte	0x50
 4606 027a 9F       		.byte	0x9f
 4607 027b 00000000 		.4byte	0
 4608 027f 00000000 		.4byte	0
 4609              	.LLST15:
 4610 0283 08000000 		.4byte	.LVL83
 4611 0287 10000000 		.4byte	.LVL85
 4612 028b 0100     		.2byte	0x1
ARM GAS  C:\Users\Nelson\AppData\Local\Temp\ccgC0n3g.s 			page 120


 4613 028d 53       		.byte	0x53
 4614 028e 10000000 		.4byte	.LVL85
 4615 0292 18000000 		.4byte	.LFE4
 4616 0296 0100     		.2byte	0x1
 4617 0298 50       		.byte	0x50
 4618 0299 00000000 		.4byte	0
 4619 029d 00000000 		.4byte	0
 4620              	.LLST16:
 4621 02a1 00000000 		.4byte	.LVL86
 4622 02a5 0C000000 		.4byte	.LVL88
 4623 02a9 0100     		.2byte	0x1
 4624 02ab 50       		.byte	0x50
 4625 02ac 0C000000 		.4byte	.LVL88
 4626 02b0 18000000 		.4byte	.LFE5
 4627 02b4 0400     		.2byte	0x4
 4628 02b6 F3       		.byte	0xf3
 4629 02b7 01       		.uleb128 0x1
 4630 02b8 50       		.byte	0x50
 4631 02b9 9F       		.byte	0x9f
 4632 02ba 00000000 		.4byte	0
 4633 02be 00000000 		.4byte	0
 4634              	.LLST17:
 4635 02c2 08000000 		.4byte	.LVL87
 4636 02c6 0E000000 		.4byte	.LVL89
 4637 02ca 0100     		.2byte	0x1
 4638 02cc 53       		.byte	0x53
 4639 02cd 0E000000 		.4byte	.LVL89
 4640 02d1 18000000 		.4byte	.LFE5
 4641 02d5 0100     		.2byte	0x1
 4642 02d7 50       		.byte	0x50
 4643 02d8 00000000 		.4byte	0
 4644 02dc 00000000 		.4byte	0
 4645              	.LLST18:
 4646 02e0 00000000 		.4byte	.LVL90
 4647 02e4 10000000 		.4byte	.LVL92
 4648 02e8 0100     		.2byte	0x1
 4649 02ea 50       		.byte	0x50
 4650 02eb 10000000 		.4byte	.LVL92
 4651 02ef 24000000 		.4byte	.LVL96
 4652 02f3 0100     		.2byte	0x1
 4653 02f5 54       		.byte	0x54
 4654 02f6 24000000 		.4byte	.LVL96
 4655 02fa 74000000 		.4byte	.LFE6
 4656 02fe 0600     		.2byte	0x6
 4657 0300 F3       		.byte	0xf3
 4658 0301 03       		.uleb128 0x3
 4659 0302 F5       		.byte	0xf5
 4660 0303 00       		.uleb128 0
 4661 0304 25       		.uleb128 0x25
 4662 0305 9F       		.byte	0x9f
 4663 0306 00000000 		.4byte	0
 4664 030a 00000000 		.4byte	0
 4665              	.LLST19:
 4666 030e 0A000000 		.4byte	.LVL91
 4667 0312 13000000 		.4byte	.LVL93-1
 4668 0316 0A00     		.2byte	0xa
 4669 0318 73       		.byte	0x73
ARM GAS  C:\Users\Nelson\AppData\Local\Temp\ccgC0n3g.s 			page 121


 4670 0319 00       		.sleb128 0
 4671 031a 32       		.byte	0x32
 4672 031b 24       		.byte	0x24
 4673 031c 03       		.byte	0x3
 4674 031d 00000000 		.4byte	.LANCHOR0
 4675 0321 22       		.byte	0x22
 4676 0322 44000000 		.4byte	.LVL101
 4677 0326 56000000 		.4byte	.LVL103
 4678 032a 0100     		.2byte	0x1
 4679 032c 50       		.byte	0x50
 4680 032d 56000000 		.4byte	.LVL103
 4681 0331 58000000 		.4byte	.LVL104
 4682 0335 0700     		.2byte	0x7
 4683 0337 73       		.byte	0x73
 4684 0338 00       		.sleb128 0
 4685 0339 32       		.byte	0x32
 4686 033a 24       		.byte	0x24
 4687 033b 72       		.byte	0x72
 4688 033c 00       		.sleb128 0
 4689 033d 22       		.byte	0x22
 4690 033e 00000000 		.4byte	0
 4691 0342 00000000 		.4byte	0
 4692              	.LLST20:
 4693 0346 54000000 		.4byte	.LVL102
 4694 034a 58000000 		.4byte	.LVL104
 4695 034e 0200     		.2byte	0x2
 4696 0350 30       		.byte	0x30
 4697 0351 9F       		.byte	0x9f
 4698 0352 5A000000 		.4byte	.LVL105
 4699 0356 74000000 		.4byte	.LFE6
 4700 035a 0100     		.2byte	0x1
 4701 035c 50       		.byte	0x50
 4702 035d 00000000 		.4byte	0
 4703 0361 00000000 		.4byte	0
 4704              	.LLST21:
 4705 0365 1C000000 		.4byte	.LVL94
 4706 0369 21000000 		.4byte	.LVL95-1
 4707 036d 0100     		.2byte	0x1
 4708 036f 50       		.byte	0x50
 4709 0370 24000000 		.4byte	.LVL96
 4710 0374 27000000 		.4byte	.LVL97-1
 4711 0378 0100     		.2byte	0x1
 4712 037a 50       		.byte	0x50
 4713 037b 27000000 		.4byte	.LVL97-1
 4714 037f 3E000000 		.4byte	.LVL99
 4715 0383 0100     		.2byte	0x1
 4716 0385 54       		.byte	0x54
 4717 0386 3E000000 		.4byte	.LVL99
 4718 038a 41000000 		.4byte	.LVL100-1
 4719 038e 0100     		.2byte	0x1
 4720 0390 50       		.byte	0x50
 4721 0391 58000000 		.4byte	.LVL104
 4722 0395 5C000000 		.4byte	.LVL106
 4723 0399 0100     		.2byte	0x1
 4724 039b 54       		.byte	0x54
 4725 039c 00000000 		.4byte	0
 4726 03a0 00000000 		.4byte	0
ARM GAS  C:\Users\Nelson\AppData\Local\Temp\ccgC0n3g.s 			page 122


 4727              	.LLST22:
 4728 03a4 06000000 		.4byte	.LVL107
 4729 03a8 14000000 		.4byte	.LVL109
 4730 03ac 0100     		.2byte	0x1
 4731 03ae 53       		.byte	0x53
 4732 03af 00000000 		.4byte	0
 4733 03b3 00000000 		.4byte	0
 4734              	.LLST23:
 4735 03b7 0C000000 		.4byte	.LVL108
 4736 03bb 16000000 		.4byte	.LVL110
 4737 03bf 0100     		.2byte	0x1
 4738 03c1 50       		.byte	0x50
 4739 03c2 18000000 		.4byte	.LVL111
 4740 03c6 24000000 		.4byte	.LFE7
 4741 03ca 0100     		.2byte	0x1
 4742 03cc 50       		.byte	0x50
 4743 03cd 00000000 		.4byte	0
 4744 03d1 00000000 		.4byte	0
 4745              	.LLST24:
 4746 03d5 00000000 		.4byte	.LVL112
 4747 03d9 24000000 		.4byte	.LVL116
 4748 03dd 0100     		.2byte	0x1
 4749 03df 50       		.byte	0x50
 4750 03e0 24000000 		.4byte	.LVL116
 4751 03e4 30000000 		.4byte	.LFE10
 4752 03e8 0400     		.2byte	0x4
 4753 03ea F3       		.byte	0xf3
 4754 03eb 01       		.uleb128 0x1
 4755 03ec 50       		.byte	0x50
 4756 03ed 9F       		.byte	0x9f
 4757 03ee 00000000 		.4byte	0
 4758 03f2 00000000 		.4byte	0
 4759              	.LLST25:
 4760 03f6 10000000 		.4byte	.LVL113
 4761 03fa 12000000 		.4byte	.LVL114
 4762 03fe 0100     		.2byte	0x1
 4763 0400 53       		.byte	0x53
 4764 0401 1A000000 		.4byte	.LVL115
 4765 0405 30000000 		.4byte	.LFE10
 4766 0409 0100     		.2byte	0x1
 4767 040b 53       		.byte	0x53
 4768 040c 00000000 		.4byte	0
 4769 0410 00000000 		.4byte	0
 4770              	.LLST26:
 4771 0414 08000000 		.4byte	.LVL117
 4772 0418 12000000 		.4byte	.LVL119
 4773 041c 0100     		.2byte	0x1
 4774 041e 53       		.byte	0x53
 4775 041f 16000000 		.4byte	.LVL120
 4776 0423 1C000000 		.4byte	.LVL121
 4777 0427 0100     		.2byte	0x1
 4778 0429 53       		.byte	0x53
 4779 042a 00000000 		.4byte	0
 4780 042e 00000000 		.4byte	0
 4781              	.LLST27:
 4782 0432 12000000 		.4byte	.LVL124
 4783 0436 14000000 		.4byte	.LVL125
ARM GAS  C:\Users\Nelson\AppData\Local\Temp\ccgC0n3g.s 			page 123


 4784 043a 0100     		.2byte	0x1
 4785 043c 50       		.byte	0x50
 4786 043d 18000000 		.4byte	.LVL126
 4787 0441 20000000 		.4byte	.LVL127
 4788 0445 0100     		.2byte	0x1
 4789 0447 52       		.byte	0x52
 4790 0448 20000000 		.4byte	.LVL127
 4791 044c 50000000 		.4byte	.LFE12
 4792 0450 0100     		.2byte	0x1
 4793 0452 50       		.byte	0x50
 4794 0453 00000000 		.4byte	0
 4795 0457 00000000 		.4byte	0
 4796              	.LLST28:
 4797 045b 08000000 		.4byte	.LVL122
 4798 045f 0E000000 		.4byte	.LVL123
 4799 0463 0100     		.2byte	0x1
 4800 0465 53       		.byte	0x53
 4801 0466 14000000 		.4byte	.LVL125
 4802 046a 26000000 		.4byte	.LVL128
 4803 046e 0100     		.2byte	0x1
 4804 0470 53       		.byte	0x53
 4805 0471 00000000 		.4byte	0
 4806 0475 00000000 		.4byte	0
 4807              	.LLST29:
 4808 0479 10000000 		.4byte	.LVL131
 4809 047d 1A000000 		.4byte	.LVL132
 4810 0481 0700     		.2byte	0x7
 4811 0483 70       		.byte	0x70
 4812 0484 00       		.sleb128 0
 4813 0485 0A       		.byte	0xa
 4814 0486 FFFF     		.2byte	0xffff
 4815 0488 1A       		.byte	0x1a
 4816 0489 9F       		.byte	0x9f
 4817 048a 1A000000 		.4byte	.LVL132
 4818 048e 1C000000 		.4byte	.LVL133
 4819 0492 0100     		.2byte	0x1
 4820 0494 50       		.byte	0x50
 4821 0495 24000000 		.4byte	.LVL135
 4822 0499 2C000000 		.4byte	.LVL136
 4823 049d 0700     		.2byte	0x7
 4824 049f 70       		.byte	0x70
 4825 04a0 00       		.sleb128 0
 4826 04a1 0A       		.byte	0xa
 4827 04a2 FFFF     		.2byte	0xffff
 4828 04a4 1A       		.byte	0x1a
 4829 04a5 9F       		.byte	0x9f
 4830 04a6 2C000000 		.4byte	.LVL136
 4831 04aa 34000000 		.4byte	.LVL137
 4832 04ae 0100     		.2byte	0x1
 4833 04b0 53       		.byte	0x53
 4834 04b1 34000000 		.4byte	.LVL137
 4835 04b5 36000000 		.4byte	.LVL138
 4836 04b9 0100     		.2byte	0x1
 4837 04bb 50       		.byte	0x50
 4838 04bc 3C000000 		.4byte	.LVL140
 4839 04c0 44000000 		.4byte	.LVL141
 4840 04c4 0100     		.2byte	0x1
ARM GAS  C:\Users\Nelson\AppData\Local\Temp\ccgC0n3g.s 			page 124


 4841 04c6 53       		.byte	0x53
 4842 04c7 44000000 		.4byte	.LVL141
 4843 04cb 6C000000 		.4byte	.LFE13
 4844 04cf 0100     		.2byte	0x1
 4845 04d1 50       		.byte	0x50
 4846 04d2 00000000 		.4byte	0
 4847 04d6 00000000 		.4byte	0
 4848              	.LLST30:
 4849 04da 08000000 		.4byte	.LVL129
 4850 04de 0E000000 		.4byte	.LVL130
 4851 04e2 0100     		.2byte	0x1
 4852 04e4 53       		.byte	0x53
 4853 04e5 1C000000 		.4byte	.LVL133
 4854 04e9 22000000 		.4byte	.LVL134
 4855 04ed 0100     		.2byte	0x1
 4856 04ef 53       		.byte	0x53
 4857 04f0 36000000 		.4byte	.LVL138
 4858 04f4 38000000 		.4byte	.LVL139
 4859 04f8 0100     		.2byte	0x1
 4860 04fa 53       		.byte	0x53
 4861 04fb 00000000 		.4byte	0
 4862 04ff 00000000 		.4byte	0
 4863              	.LLST31:
 4864 0503 00000000 		.4byte	.LVL144
 4865 0507 06000000 		.4byte	.LVL145
 4866 050b 0100     		.2byte	0x1
 4867 050d 50       		.byte	0x50
 4868 050e 06000000 		.4byte	.LVL145
 4869 0512 0E000000 		.4byte	.LVL146
 4870 0516 0100     		.2byte	0x1
 4871 0518 50       		.byte	0x50
 4872 0519 00000000 		.4byte	0
 4873 051d 00000000 		.4byte	0
 4874              	.LLST32:
 4875 0521 00000000 		.4byte	.LVL148
 4876 0525 06000000 		.4byte	.LVL149
 4877 0529 0100     		.2byte	0x1
 4878 052b 50       		.byte	0x50
 4879 052c 06000000 		.4byte	.LVL149
 4880 0530 08000000 		.4byte	.LVL150
 4881 0534 0600     		.2byte	0x6
 4882 0536 70       		.byte	0x70
 4883 0537 00       		.sleb128 0
 4884 0538 73       		.byte	0x73
 4885 0539 00       		.sleb128 0
 4886 053a 1C       		.byte	0x1c
 4887 053b 9F       		.byte	0x9f
 4888 053c 08000000 		.4byte	.LVL150
 4889 0540 0B000000 		.4byte	.LVL151-1
 4890 0544 0100     		.2byte	0x1
 4891 0546 50       		.byte	0x50
 4892 0547 00000000 		.4byte	0
 4893 054b 00000000 		.4byte	0
 4894              	.LLST33:
 4895 054f 00000000 		.4byte	.LVL154
 4896 0553 3E000000 		.4byte	.LVL160
 4897 0557 0100     		.2byte	0x1
ARM GAS  C:\Users\Nelson\AppData\Local\Temp\ccgC0n3g.s 			page 125


 4898 0559 50       		.byte	0x50
 4899 055a 3E000000 		.4byte	.LVL160
 4900 055e 64000000 		.4byte	.LFE18
 4901 0562 0400     		.2byte	0x4
 4902 0564 F3       		.byte	0xf3
 4903 0565 01       		.uleb128 0x1
 4904 0566 50       		.byte	0x50
 4905 0567 9F       		.byte	0x9f
 4906 0568 00000000 		.4byte	0
 4907 056c 00000000 		.4byte	0
 4908              	.LLST34:
 4909 0570 4E000000 		.4byte	.LVL162
 4910 0574 50000000 		.4byte	.LVL163
 4911 0578 0600     		.2byte	0x6
 4912 057a 70       		.byte	0x70
 4913 057b 00       		.sleb128 0
 4914 057c 73       		.byte	0x73
 4915 057d 00       		.sleb128 0
 4916 057e 1C       		.byte	0x1c
 4917 057f 9F       		.byte	0x9f
 4918 0580 50000000 		.4byte	.LVL163
 4919 0584 64000000 		.4byte	.LFE18
 4920 0588 0100     		.2byte	0x1
 4921 058a 50       		.byte	0x50
 4922 058b 00000000 		.4byte	0
 4923 058f 00000000 		.4byte	0
 4924              	.LLST35:
 4925 0593 32000000 		.4byte	.LVL158
 4926 0597 4A000000 		.4byte	.LVL161
 4927 059b 0100     		.2byte	0x1
 4928 059d 53       		.byte	0x53
 4929 059e 00000000 		.4byte	0
 4930 05a2 00000000 		.4byte	0
 4931              	.LLST36:
 4932 05a6 22000000 		.4byte	.LVL155
 4933 05aa 2C000000 		.4byte	.LVL156
 4934 05ae 0100     		.2byte	0x1
 4935 05b0 53       		.byte	0x53
 4936 05b1 2E000000 		.4byte	.LVL157
 4937 05b5 32000000 		.4byte	.LVL158
 4938 05b9 0100     		.2byte	0x1
 4939 05bb 53       		.byte	0x53
 4940 05bc 00000000 		.4byte	0
 4941 05c0 00000000 		.4byte	0
 4942              	.LLST37:
 4943 05c4 00000000 		.4byte	.LVL164
 4944 05c8 21000000 		.4byte	.LVL165-1
 4945 05cc 0100     		.2byte	0x1
 4946 05ce 50       		.byte	0x50
 4947 05cf 21000000 		.4byte	.LVL165-1
 4948 05d3 4C000000 		.4byte	.LVL169
 4949 05d7 0400     		.2byte	0x4
 4950 05d9 F3       		.byte	0xf3
 4951 05da 01       		.uleb128 0x1
 4952 05db 50       		.byte	0x50
 4953 05dc 9F       		.byte	0x9f
 4954 05dd 4C000000 		.4byte	.LVL169
ARM GAS  C:\Users\Nelson\AppData\Local\Temp\ccgC0n3g.s 			page 126


 4955 05e1 4E000000 		.4byte	.LVL170
 4956 05e5 0100     		.2byte	0x1
 4957 05e7 50       		.byte	0x50
 4958 05e8 4E000000 		.4byte	.LVL170
 4959 05ec 64000000 		.4byte	.LFE20
 4960 05f0 0400     		.2byte	0x4
 4961 05f2 F3       		.byte	0xf3
 4962 05f3 01       		.uleb128 0x1
 4963 05f4 50       		.byte	0x50
 4964 05f5 9F       		.byte	0x9f
 4965 05f6 00000000 		.4byte	0
 4966 05fa 00000000 		.4byte	0
 4967              	.LLST38:
 4968 05fe 00000000 		.4byte	.LVL164
 4969 0602 21000000 		.4byte	.LVL165-1
 4970 0606 0100     		.2byte	0x1
 4971 0608 51       		.byte	0x51
 4972 0609 21000000 		.4byte	.LVL165-1
 4973 060d 4C000000 		.4byte	.LVL169
 4974 0611 0400     		.2byte	0x4
 4975 0613 F3       		.byte	0xf3
 4976 0614 01       		.uleb128 0x1
 4977 0615 51       		.byte	0x51
 4978 0616 9F       		.byte	0x9f
 4979 0617 4C000000 		.4byte	.LVL169
 4980 061b 51000000 		.4byte	.LVL171-1
 4981 061f 0100     		.2byte	0x1
 4982 0621 51       		.byte	0x51
 4983 0622 51000000 		.4byte	.LVL171-1
 4984 0626 64000000 		.4byte	.LFE20
 4985 062a 0400     		.2byte	0x4
 4986 062c F3       		.byte	0xf3
 4987 062d 01       		.uleb128 0x1
 4988 062e 51       		.byte	0x51
 4989 062f 9F       		.byte	0x9f
 4990 0630 00000000 		.4byte	0
 4991 0634 00000000 		.4byte	0
 4992              	.LLST39:
 4993 0638 1C000000 		.4byte	.LVL175
 4994 063c 24000000 		.4byte	.LVL177
 4995 0640 0100     		.2byte	0x1
 4996 0642 54       		.byte	0x54
 4997 0643 00000000 		.4byte	0
 4998 0647 00000000 		.4byte	0
 4999              	.LLST40:
 5000 064b 1C000000 		.4byte	.LVL181
 5001 064f 24000000 		.4byte	.LVL183
 5002 0653 0100     		.2byte	0x1
 5003 0655 54       		.byte	0x54
 5004 0656 00000000 		.4byte	0
 5005 065a 00000000 		.4byte	0
 5006              	.LLST41:
 5007 065e 1C000000 		.4byte	.LVL187
 5008 0662 1F000000 		.4byte	.LVL188-1
 5009 0666 0100     		.2byte	0x1
 5010 0668 50       		.byte	0x50
 5011 0669 1F000000 		.4byte	.LVL188-1
ARM GAS  C:\Users\Nelson\AppData\Local\Temp\ccgC0n3g.s 			page 127


 5012 066d 24000000 		.4byte	.LVL189
 5013 0671 0100     		.2byte	0x1
 5014 0673 54       		.byte	0x54
 5015 0674 24000000 		.4byte	.LVL189
 5016 0678 28000000 		.4byte	.LFE25
 5017 067c 0100     		.2byte	0x1
 5018 067e 50       		.byte	0x50
 5019 067f 00000000 		.4byte	0
 5020 0683 00000000 		.4byte	0
 5021              		.section	.debug_aranges,"",%progbits
 5022 0000 E4000000 		.4byte	0xe4
 5023 0004 0200     		.2byte	0x2
 5024 0006 00000000 		.4byte	.Ldebug_info0
 5025 000a 04       		.byte	0x4
 5026 000b 00       		.byte	0
 5027 000c 0000     		.2byte	0
 5028 000e 0000     		.2byte	0
 5029 0010 00000000 		.4byte	.LFB21
 5030 0014 D0000000 		.4byte	.LFE21-.LFB21
 5031 0018 00000000 		.4byte	.LFB22
 5032 001c 4C000000 		.4byte	.LFE22-.LFB22
 5033 0020 00000000 		.4byte	.LFB19
 5034 0024 28030000 		.4byte	.LFE19-.LFB19
 5035 0028 00000000 		.4byte	.LFB0
 5036 002c 08010000 		.4byte	.LFE0-.LFB0
 5037 0030 00000000 		.4byte	.LFB1
 5038 0034 D8000000 		.4byte	.LFE1-.LFB1
 5039 0038 00000000 		.4byte	.LFB2
 5040 003c 28000000 		.4byte	.LFE2-.LFB2
 5041 0040 00000000 		.4byte	.LFB3
 5042 0044 E4000000 		.4byte	.LFE3-.LFB3
 5043 0048 00000000 		.4byte	.LFB4
 5044 004c 18000000 		.4byte	.LFE4-.LFB4
 5045 0050 00000000 		.4byte	.LFB5
 5046 0054 18000000 		.4byte	.LFE5-.LFB5
 5047 0058 00000000 		.4byte	.LFB6
 5048 005c 74000000 		.4byte	.LFE6-.LFB6
 5049 0060 00000000 		.4byte	.LFB7
 5050 0064 24000000 		.4byte	.LFE7-.LFB7
 5051 0068 00000000 		.4byte	.LFB8
 5052 006c 10000000 		.4byte	.LFE8-.LFB8
 5053 0070 00000000 		.4byte	.LFB9
 5054 0074 10000000 		.4byte	.LFE9-.LFB9
 5055 0078 00000000 		.4byte	.LFB10
 5056 007c 30000000 		.4byte	.LFE10-.LFB10
 5057 0080 00000000 		.4byte	.LFB11
 5058 0084 48000000 		.4byte	.LFE11-.LFB11
 5059 0088 00000000 		.4byte	.LFB12
 5060 008c 50000000 		.4byte	.LFE12-.LFB12
 5061 0090 00000000 		.4byte	.LFB13
 5062 0094 6C000000 		.4byte	.LFE13-.LFB13
 5063 0098 00000000 		.4byte	.LFB14
 5064 009c 0C000000 		.4byte	.LFE14-.LFB14
 5065 00a0 00000000 		.4byte	.LFB15
 5066 00a4 0C000000 		.4byte	.LFE15-.LFB15
 5067 00a8 00000000 		.4byte	.LFB16
 5068 00ac 24000000 		.4byte	.LFE16-.LFB16
ARM GAS  C:\Users\Nelson\AppData\Local\Temp\ccgC0n3g.s 			page 128


 5069 00b0 00000000 		.4byte	.LFB17
 5070 00b4 28000000 		.4byte	.LFE17-.LFB17
 5071 00b8 00000000 		.4byte	.LFB18
 5072 00bc 64000000 		.4byte	.LFE18-.LFB18
 5073 00c0 00000000 		.4byte	.LFB20
 5074 00c4 64000000 		.4byte	.LFE20-.LFB20
 5075 00c8 00000000 		.4byte	.LFB23
 5076 00cc 28000000 		.4byte	.LFE23-.LFB23
 5077 00d0 00000000 		.4byte	.LFB24
 5078 00d4 28000000 		.4byte	.LFE24-.LFB24
 5079 00d8 00000000 		.4byte	.LFB25
 5080 00dc 28000000 		.4byte	.LFE25-.LFB25
 5081 00e0 00000000 		.4byte	0
 5082 00e4 00000000 		.4byte	0
 5083              		.section	.debug_ranges,"",%progbits
 5084              	.Ldebug_ranges0:
 5085 0000 00000000 		.4byte	.LFB21
 5086 0004 D0000000 		.4byte	.LFE21
 5087 0008 00000000 		.4byte	.LFB22
 5088 000c 4C000000 		.4byte	.LFE22
 5089 0010 00000000 		.4byte	.LFB19
 5090 0014 28030000 		.4byte	.LFE19
 5091 0018 00000000 		.4byte	.LFB0
 5092 001c 08010000 		.4byte	.LFE0
 5093 0020 00000000 		.4byte	.LFB1
 5094 0024 D8000000 		.4byte	.LFE1
 5095 0028 00000000 		.4byte	.LFB2
 5096 002c 28000000 		.4byte	.LFE2
 5097 0030 00000000 		.4byte	.LFB3
 5098 0034 E4000000 		.4byte	.LFE3
 5099 0038 00000000 		.4byte	.LFB4
 5100 003c 18000000 		.4byte	.LFE4
 5101 0040 00000000 		.4byte	.LFB5
 5102 0044 18000000 		.4byte	.LFE5
 5103 0048 00000000 		.4byte	.LFB6
 5104 004c 74000000 		.4byte	.LFE6
 5105 0050 00000000 		.4byte	.LFB7
 5106 0054 24000000 		.4byte	.LFE7
 5107 0058 00000000 		.4byte	.LFB8
 5108 005c 10000000 		.4byte	.LFE8
 5109 0060 00000000 		.4byte	.LFB9
 5110 0064 10000000 		.4byte	.LFE9
 5111 0068 00000000 		.4byte	.LFB10
 5112 006c 30000000 		.4byte	.LFE10
 5113 0070 00000000 		.4byte	.LFB11
 5114 0074 48000000 		.4byte	.LFE11
 5115 0078 00000000 		.4byte	.LFB12
 5116 007c 50000000 		.4byte	.LFE12
 5117 0080 00000000 		.4byte	.LFB13
 5118 0084 6C000000 		.4byte	.LFE13
 5119 0088 00000000 		.4byte	.LFB14
 5120 008c 0C000000 		.4byte	.LFE14
 5121 0090 00000000 		.4byte	.LFB15
 5122 0094 0C000000 		.4byte	.LFE15
 5123 0098 00000000 		.4byte	.LFB16
 5124 009c 24000000 		.4byte	.LFE16
 5125 00a0 00000000 		.4byte	.LFB17
ARM GAS  C:\Users\Nelson\AppData\Local\Temp\ccgC0n3g.s 			page 129


 5126 00a4 28000000 		.4byte	.LFE17
 5127 00a8 00000000 		.4byte	.LFB18
 5128 00ac 64000000 		.4byte	.LFE18
 5129 00b0 00000000 		.4byte	.LFB20
 5130 00b4 64000000 		.4byte	.LFE20
 5131 00b8 00000000 		.4byte	.LFB23
 5132 00bc 28000000 		.4byte	.LFE23
 5133 00c0 00000000 		.4byte	.LFB24
 5134 00c4 28000000 		.4byte	.LFE24
 5135 00c8 00000000 		.4byte	.LFB25
 5136 00cc 28000000 		.4byte	.LFE25
 5137 00d0 00000000 		.4byte	0
 5138 00d4 00000000 		.4byte	0
 5139              		.section	.debug_line,"",%progbits
 5140              	.Ldebug_line0:
 5141 0000 ED030000 		.section	.debug_str,"MS",%progbits,1
 5141      0200AA00 
 5141      00000201 
 5141      FB0E0D00 
 5141      01010101 
 5142              	.LASF45:
 5143 0000 4144435F 		.ascii	"ADC_DelSig_SetBufferGain\000"
 5143      44656C53 
 5143      69675F53 
 5143      65744275 
 5143      66666572 
 5144              	.LASF79:
 5145 0019 4144435F 		.ascii	"ADC_DelSig_Read8\000"
 5145      44656C53 
 5145      69675F52 
 5145      65616438 
 5145      00
 5146              	.LASF11:
 5147 002a 75696E74 		.ascii	"uint16\000"
 5147      313600
 5148              	.LASF80:
 5149 0031 4144435F 		.ascii	"ADC_DelSig_Read16\000"
 5149      44656C53 
 5149      69675F52 
 5149      65616431 
 5149      3600
 5150              	.LASF67:
 5151 0043 61646347 		.ascii	"adcGain\000"
 5151      61696E00 
 5152              	.LASF92:
 5153 004b 43794578 		.ascii	"CyExitCriticalSection\000"
 5153      69744372 
 5153      69746963 
 5153      616C5365 
 5153      6374696F 
 5154              	.LASF27:
 5155 0061 696E7075 		.ascii	"inputRange\000"
 5155      7452616E 
 5155      676500
 5156              	.LASF62:
 5157 006c 4144435F 		.ascii	"ADC_DelSig_GetResult16\000"
 5157      44656C53 
ARM GAS  C:\Users\Nelson\AppData\Local\Temp\ccgC0n3g.s 			page 130


 5157      69675F47 
 5157      65745265 
 5157      73756C74 
 5158              	.LASF73:
 5159 0083 4144435F 		.ascii	"ADC_DelSig_CountsTo_uVolts\000"
 5159      44656C53 
 5159      69675F43 
 5159      6F756E74 
 5159      73546F5F 
 5160              	.LASF24:
 5161 009e 67636F72 		.ascii	"gcor\000"
 5161      00
 5162              	.LASF40:
 5163 00a3 4144435F 		.ascii	"ADC_DelSig_InitConfig\000"
 5163      44656C53 
 5163      69675F49 
 5163      6E697443 
 5163      6F6E6669 
 5164              	.LASF60:
 5165 00b9 4144435F 		.ascii	"ADC_DelSig_GetResult8\000"
 5165      44656C53 
 5165      69675F47 
 5165      65745265 
 5165      73756C74 
 5166              	.LASF86:
 5167 00cf 4144435F 		.ascii	"ADC_DelSig_started\000"
 5167      44656C53 
 5167      69675F73 
 5167      74617274 
 5167      656400
 5168              	.LASF57:
 5169 00e2 4144435F 		.ascii	"ADC_DelSig_StopConvert\000"
 5169      44656C53 
 5169      69675F53 
 5169      746F7043 
 5169      6F6E7665 
 5170              	.LASF8:
 5171 00f9 6C6F6E67 		.ascii	"long long unsigned int\000"
 5171      206C6F6E 
 5171      6720756E 
 5171      7369676E 
 5171      65642069 
 5172              	.LASF42:
 5173 0110 4144435F 		.ascii	"ADC_DelSig_Enable\000"
 5173      44656C53 
 5173      69675F45 
 5173      6E61626C 
 5173      6500
 5174              	.LASF77:
 5175 0122 4144435F 		.ascii	"ADC_DelSig_SelectConfiguration\000"
 5175      44656C53 
 5175      69675F53 
 5175      656C6563 
 5175      74436F6E 
 5176              	.LASF26:
 5177 0141 4144435F 		.ascii	"ADC_DelSig_GCOR_STRUCT\000"
 5177      44656C53 
ARM GAS  C:\Users\Nelson\AppData\Local\Temp\ccgC0n3g.s 			page 131


 5177      69675F47 
 5177      434F525F 
 5177      53545255 
 5178              	.LASF29:
 5179 0158 69646561 		.ascii	"idealOddDecGain\000"
 5179      6C4F6464 
 5179      44656347 
 5179      61696E00 
 5180              	.LASF41:
 5181 0168 4144435F 		.ascii	"ADC_DelSig_Init\000"
 5181      44656C53 
 5181      69675F49 
 5181      6E697400 
 5182              	.LASF102:
 5183 0178 4379496E 		.ascii	"CyIntSetVector\000"
 5183      74536574 
 5183      56656374 
 5183      6F7200
 5184              	.LASF96:
 5185 0187 4144435F 		.ascii	"ADC_DelSig_Ext_CP_Clk_SetModeRegister\000"
 5185      44656C53 
 5185      69675F45 
 5185      78745F43 
 5185      505F436C 
 5186              	.LASF7:
 5187 01ad 6C6F6E67 		.ascii	"long long int\000"
 5187      206C6F6E 
 5187      6720696E 
 5187      7400
 5188              	.LASF1:
 5189 01bb 7369676E 		.ascii	"signed char\000"
 5189      65642063 
 5189      68617200 
 5190              	.LASF15:
 5191 01c7 696E7433 		.ascii	"int32\000"
 5191      3200
 5192              	.LASF5:
 5193 01cd 6C6F6E67 		.ascii	"long int\000"
 5193      20696E74 
 5193      00
 5194              	.LASF20:
 5195 01d6 72656731 		.ascii	"reg16\000"
 5195      3600
 5196              	.LASF10:
 5197 01dc 75696E74 		.ascii	"uint8\000"
 5197      3800
 5198              	.LASF99:
 5199 01e2 47656E65 		.ascii	"Generated_Source\\PSoC5\\ADC_DelSig.c\000"
 5199      72617465 
 5199      645F536F 
 5199      75726365 
 5199      5C50536F 
 5200              	.LASF91:
 5201 0206 43794465 		.ascii	"CyDelayUs\000"
 5201      6C617955 
 5201      7300
 5202              	.LASF17:
ARM GAS  C:\Users\Nelson\AppData\Local\Temp\ccgC0n3g.s 			page 132


 5203 0210 646F7562 		.ascii	"double\000"
 5203      6C6500
 5204              	.LASF72:
 5205 0217 566F6C74 		.ascii	"Volts\000"
 5205      7300
 5206              	.LASF66:
 5207 021d 4144435F 		.ascii	"ADC_DelSig_SetGain\000"
 5207      44656C53 
 5207      69675F53 
 5207      65744761 
 5207      696E00
 5208              	.LASF12:
 5209 0230 75696E74 		.ascii	"uint32\000"
 5209      333200
 5210              	.LASF81:
 5211 0237 4144435F 		.ascii	"ADC_DelSig_Read32\000"
 5211      44656C53 
 5211      69675F52 
 5211      65616433 
 5211      3200
 5212              	.LASF63:
 5213 0249 4144435F 		.ascii	"ADC_DelSig_GetResult32\000"
 5213      44656C53 
 5213      69675F47 
 5213      65745265 
 5213      73756C74 
 5214              	.LASF97:
 5215 0260 4144435F 		.ascii	"ADC_DelSig_theACLK_SetModeRegister\000"
 5215      44656C53 
 5215      69675F74 
 5215      68654143 
 5215      4C4B5F53 
 5216              	.LASF64:
 5217 0283 4144435F 		.ascii	"ADC_DelSig_SetOffset\000"
 5217      44656C53 
 5217      69675F53 
 5217      65744F66 
 5217      66736574 
 5218              	.LASF84:
 5219 0298 4144435F 		.ascii	"ADC_DelSig_convDone\000"
 5219      44656C53 
 5219      69675F63 
 5219      6F6E7644 
 5219      6F6E6500 
 5220              	.LASF38:
 5221 02ac 76616C75 		.ascii	"value\000"
 5221      6500
 5222              	.LASF59:
 5223 02b2 7265744D 		.ascii	"retMode\000"
 5223      6F646500 
 5224              	.LASF9:
 5225 02ba 756E7369 		.ascii	"unsigned int\000"
 5225      676E6564 
 5225      20696E74 
 5225      00
 5226              	.LASF100:
 5227 02c7 433A5C55 		.ascii	"C:\\Users\\Nelson\\Desktop\\121 labs\\CMPE121 Lab P"
ARM GAS  C:\Users\Nelson\AppData\Local\Temp\ccgC0n3g.s 			page 133


 5227      73657273 
 5227      5C4E656C 
 5227      736F6E5C 
 5227      4465736B 
 5228 02f5 726F6A65 		.ascii	"roject\\Oscilloscope\\PSOC\\Oscilliscope.cydsn\000"
 5228      63745C4F 
 5228      7363696C 
 5228      6C6F7363 
 5228      6F70655C 
 5229              	.LASF74:
 5230 0321 75566F6C 		.ascii	"uVolts\000"
 5230      747300
 5231              	.LASF6:
 5232 0328 6C6F6E67 		.ascii	"long unsigned int\000"
 5232      20756E73 
 5232      69676E65 
 5232      6420696E 
 5232      7400
 5233              	.LASF101:
 5234 033a 4379456E 		.ascii	"CyEnterCriticalSection\000"
 5234      74657243 
 5234      72697469 
 5234      63616C53 
 5234      65637469 
 5235              	.LASF56:
 5236 0351 4144435F 		.ascii	"ADC_DelSig_StartConvert\000"
 5236      44656C53 
 5236      69675F53 
 5236      74617274 
 5236      436F6E76 
 5237              	.LASF4:
 5238 0369 73686F72 		.ascii	"short unsigned int\000"
 5238      7420756E 
 5238      7369676E 
 5238      65642069 
 5238      6E7400
 5239              	.LASF43:
 5240 037c 4144435F 		.ascii	"ADC_DelSig_Start\000"
 5240      44656C53 
 5240      69675F53 
 5240      74617274 
 5240      00
 5241              	.LASF71:
 5242 038d 4144435F 		.ascii	"ADC_DelSig_CountsTo_Volts\000"
 5242      44656C53 
 5242      69675F43 
 5242      6F756E74 
 5242      73546F5F 
 5243              	.LASF13:
 5244 03a7 696E7438 		.ascii	"int8\000"
 5244      00
 5245              	.LASF34:
 5246 03ac 67636F72 		.ascii	"gcorValue\000"
 5246      56616C75 
 5246      6500
 5247              	.LASF48:
 5248 03b6 4144435F 		.ascii	"ADC_DelSig_SetCoherency\000"
ARM GAS  C:\Users\Nelson\AppData\Local\Temp\ccgC0n3g.s 			page 134


 5248      44656C53 
 5248      69675F53 
 5248      6574436F 
 5248      68657265 
 5249              	.LASF36:
 5250 03ce 4144435F 		.ascii	"ADC_DelSig_GainCompensation\000"
 5250      44656C53 
 5250      69675F47 
 5250      61696E43 
 5250      6F6D7065 
 5251              	.LASF93:
 5252 03ea 4144435F 		.ascii	"ADC_DelSig_AMux_Select\000"
 5252      44656C53 
 5252      69675F41 
 5252      4D75785F 
 5252      53656C65 
 5253              	.LASF70:
 5254 0401 6D566F6C 		.ascii	"mVolts\000"
 5254      747300
 5255              	.LASF32:
 5256 0408 666C6173 		.ascii	"flash\000"
 5256      6800
 5257              	.LASF21:
 5258 040e 72656733 		.ascii	"reg32\000"
 5258      3200
 5259              	.LASF68:
 5260 0414 4144435F 		.ascii	"ADC_DelSig_CountsTo_mVolts\000"
 5260      44656C53 
 5260      69675F43 
 5260      6F756E74 
 5260      73546F5F 
 5261              	.LASF16:
 5262 042f 666C6F61 		.ascii	"float32\000"
 5262      74333200 
 5263              	.LASF23:
 5264 0437 73697A65 		.ascii	"sizetype\000"
 5264      74797065 
 5264      00
 5265              	.LASF83:
 5266 0440 4144435F 		.ascii	"ADC_DelSig_initVar\000"
 5266      44656C53 
 5266      69675F69 
 5266      6E697456 
 5266      617200
 5267              	.LASF49:
 5268 0453 636F6865 		.ascii	"coherency\000"
 5268      72656E63 
 5268      7900
 5269              	.LASF103:
 5270 045d 4379496E 		.ascii	"CyIntSetPriority\000"
 5270      74536574 
 5270      5072696F 
 5270      72697479 
 5270      00
 5271              	.LASF46:
 5272 046e 6761696E 		.ascii	"gain\000"
 5272      00
ARM GAS  C:\Users\Nelson\AppData\Local\Temp\ccgC0n3g.s 			page 135


 5273              	.LASF0:
 5274 0473 666C6F61 		.ascii	"float\000"
 5274      7400
 5275              	.LASF82:
 5276 0479 4144435F 		.ascii	"ADC_DelSig_gcor\000"
 5276      44656C53 
 5276      69675F67 
 5276      636F7200 
 5277              	.LASF19:
 5278 0489 72656738 		.ascii	"reg8\000"
 5278      00
 5279              	.LASF28:
 5280 048e 69646561 		.ascii	"idealDecGain\000"
 5280      6C446563 
 5280      4761696E 
 5280      00
 5281              	.LASF33:
 5282 049b 6E6F726D 		.ascii	"normalised\000"
 5282      616C6973 
 5282      656400
 5283              	.LASF90:
 5284 04a6 43794861 		.ascii	"CyHalt\000"
 5284      6C7400
 5285              	.LASF2:
 5286 04ad 756E7369 		.ascii	"unsigned char\000"
 5286      676E6564 
 5286      20636861 
 5286      7200
 5287              	.LASF3:
 5288 04bb 73686F72 		.ascii	"short int\000"
 5288      7420696E 
 5288      7400
 5289              	.LASF35:
 5290 04c5 67636F72 		.ascii	"gcorTmp\000"
 5290      546D7000 
 5291              	.LASF88:
 5292 04cd 4144435F 		.ascii	"ADC_DelSig_Offset\000"
 5292      44656C53 
 5292      69675F4F 
 5292      66667365 
 5292      7400
 5293              	.LASF94:
 5294 04df 4144435F 		.ascii	"ADC_DelSig_Ext_CP_Clk_SetDividerRegister\000"
 5294      44656C53 
 5294      69675F45 
 5294      78745F43 
 5294      505F436C 
 5295              	.LASF30:
 5296 0508 7265736F 		.ascii	"resolution\000"
 5296      6C757469 
 5296      6F6E00
 5297              	.LASF44:
 5298 0513 4144435F 		.ascii	"ADC_DelSig_Stop\000"
 5298      44656C53 
 5298      69675F53 
 5298      746F7000 
 5299              	.LASF75:
ARM GAS  C:\Users\Nelson\AppData\Local\Temp\ccgC0n3g.s 			page 136


 5300 0523 636F6566 		.ascii	"coefA\000"
 5300      4100
 5301              	.LASF76:
 5302 0529 636F6566 		.ascii	"coefB\000"
 5302      4200
 5303              	.LASF18:
 5304 052f 63686172 		.ascii	"char\000"
 5304      00
 5305              	.LASF55:
 5306 0534 6756616C 		.ascii	"gValue\000"
 5306      756500
 5307              	.LASF22:
 5308 053b 63796973 		.ascii	"cyisraddress\000"
 5308      72616464 
 5308      72657373 
 5308      00
 5309              	.LASF31:
 5310 0548 636F6E66 		.ascii	"config\000"
 5310      696700
 5311              	.LASF25:
 5312 054f 6776616C 		.ascii	"gval\000"
 5312      00
 5313              	.LASF95:
 5314 0554 4144435F 		.ascii	"ADC_DelSig_theACLK_SetDividerRegister\000"
 5314      44656C53 
 5314      69675F74 
 5314      68654143 
 5314      4C4B5F53 
 5315              	.LASF54:
 5316 057a 4144435F 		.ascii	"ADC_DelSig_ReadGCOR\000"
 5316      44656C53 
 5316      69675F52 
 5316      65616447 
 5316      434F5200 
 5317              	.LASF53:
 5318 058e 4144435F 		.ascii	"ADC_DelSig_SetGCOR\000"
 5318      44656C53 
 5318      69675F53 
 5318      65744743 
 5318      4F5200
 5319              	.LASF78:
 5320 05a1 72657374 		.ascii	"restart\000"
 5320      61727400 
 5321              	.LASF52:
 5322 05a9 746D7056 		.ascii	"tmpValue\000"
 5322      616C7565 
 5322      00
 5323              	.LASF89:
 5324 05b2 4144435F 		.ascii	"ADC_DelSig_CountsPerVolt\000"
 5324      44656C53 
 5324      69675F43 
 5324      6F756E74 
 5324      73506572 
 5325              	.LASF65:
 5326 05cb 6F666673 		.ascii	"offset\000"
 5326      657400
 5327              	.LASF69:
ARM GAS  C:\Users\Nelson\AppData\Local\Temp\ccgC0n3g.s 			page 137


 5328 05d2 61646343 		.ascii	"adcCounts\000"
 5328      6F756E74 
 5328      7300
 5329              	.LASF37:
 5330 05dc 4144435F 		.ascii	"ADC_DelSig_SetDSMRef0Reg\000"
 5330      44656C53 
 5330      69675F53 
 5330      65744453 
 5330      4D526566 
 5331              	.LASF39:
 5332 05f5 656E6162 		.ascii	"enableInterrupts\000"
 5332      6C65496E 
 5332      74657272 
 5332      75707473 
 5332      00
 5333              	.LASF51:
 5334 0606 73746174 		.ascii	"status\000"
 5334      757300
 5335              	.LASF98:
 5336 060d 474E5520 		.ascii	"GNU C 4.9.3 20150303 (release) [ARM/embedded-4_9-br"
 5336      4320342E 
 5336      392E3320 
 5336      32303135 
 5336      30333033 
 5337 0640 616E6368 		.ascii	"anch revision 221220] -mcpu=cortex-m3 -mthumb -g -O"
 5337      20726576 
 5337      6973696F 
 5337      6E203232 
 5337      31323230 
 5338 0673 67202D66 		.ascii	"g -ffunction-sections -ffat-lto-objects\000"
 5338      66756E63 
 5338      74696F6E 
 5338      2D736563 
 5338      74696F6E 
 5339              	.LASF50:
 5340 069b 6761696E 		.ascii	"gainAdjust\000"
 5340      41646A75 
 5340      737400
 5341              	.LASF85:
 5342 06a6 4144435F 		.ascii	"ADC_DelSig_stopConversion\000"
 5342      44656C53 
 5342      69675F73 
 5342      746F7043 
 5342      6F6E7665 
 5343              	.LASF14:
 5344 06c0 696E7431 		.ascii	"int16\000"
 5344      3600
 5345              	.LASF87:
 5346 06c6 4144435F 		.ascii	"ADC_DelSig_Config\000"
 5346      44656C53 
 5346      69675F43 
 5346      6F6E6669 
 5346      6700
 5347              	.LASF58:
 5348 06d8 4144435F 		.ascii	"ADC_DelSig_IsEndConversion\000"
 5348      44656C53 
 5348      69675F49 
ARM GAS  C:\Users\Nelson\AppData\Local\Temp\ccgC0n3g.s 			page 138


 5348      73456E64 
 5348      436F6E76 
 5349              	.LASF47:
 5350 06f3 746D7052 		.ascii	"tmpReg\000"
 5350      656700
 5351              	.LASF61:
 5352 06fa 72657375 		.ascii	"result\000"
 5352      6C7400
 5353              		.ident	"GCC: (GNU Tools for ARM Embedded Processors) 4.9.3 20150303 (release) [ARM/embedded-4_9-br
