ARM GAS  C:\Users\Nelson\AppData\Local\Temp\ccJUGSN3.s 			page 1


   1              		.syntax unified
   2              		.cpu cortex-m3
   3              		.fpu softvfp
   4              		.eabi_attribute 20, 1
   5              		.eabi_attribute 21, 1
   6              		.eabi_attribute 23, 3
   7              		.eabi_attribute 24, 1
   8              		.eabi_attribute 25, 1
   9              		.eabi_attribute 26, 1
  10              		.eabi_attribute 30, 1
  11              		.eabi_attribute 34, 1
  12              		.eabi_attribute 18, 4
  13              		.thumb
  14              		.file	"cyfitter_cfg.c"
  15              		.text
  16              	.Ltext0:
  17              		.cfi_sections	.debug_frame
  18              		.section	.text.CyClockStartupError,"ax",%progbits
  19              		.align	2
  20              		.thumb
  21              		.thumb_func
  22              		.type	CyClockStartupError, %function
  23              	CyClockStartupError:
  24              	.LFB3:
  25              		.file 1 "Generated_Source\\PSoC5\\cyfitter_cfg.c"
   1:Generated_Source\PSoC5/cyfitter_cfg.c **** /*******************************************************************************
   2:Generated_Source\PSoC5/cyfitter_cfg.c **** * File Name: cyfitter_cfg.c
   3:Generated_Source\PSoC5/cyfitter_cfg.c **** * 
   4:Generated_Source\PSoC5/cyfitter_cfg.c **** * PSoC Creator  4.0 Update 1
   5:Generated_Source\PSoC5/cyfitter_cfg.c **** *
   6:Generated_Source\PSoC5/cyfitter_cfg.c **** * Description:
   7:Generated_Source\PSoC5/cyfitter_cfg.c **** * This file contains device initialization code.
   8:Generated_Source\PSoC5/cyfitter_cfg.c **** * Except for the user defined sections in CyClockStartupError(), this file should not be modified.
   9:Generated_Source\PSoC5/cyfitter_cfg.c **** * This file is automatically generated by PSoC Creator.
  10:Generated_Source\PSoC5/cyfitter_cfg.c **** *
  11:Generated_Source\PSoC5/cyfitter_cfg.c **** ********************************************************************************
  12:Generated_Source\PSoC5/cyfitter_cfg.c **** * Copyright (c) 2007-2016 Cypress Semiconductor.  All rights reserved.
  13:Generated_Source\PSoC5/cyfitter_cfg.c **** * You may use this file only in accordance with the license, terms, conditions, 
  14:Generated_Source\PSoC5/cyfitter_cfg.c **** * disclaimers, and limitations in the end user license agreement accompanying 
  15:Generated_Source\PSoC5/cyfitter_cfg.c **** * the software package with which this file was provided.
  16:Generated_Source\PSoC5/cyfitter_cfg.c **** ********************************************************************************/
  17:Generated_Source\PSoC5/cyfitter_cfg.c **** 
  18:Generated_Source\PSoC5/cyfitter_cfg.c **** #include <string.h>
  19:Generated_Source\PSoC5/cyfitter_cfg.c **** #include "cytypes.h"
  20:Generated_Source\PSoC5/cyfitter_cfg.c **** #include "cydevice_trm.h"
  21:Generated_Source\PSoC5/cyfitter_cfg.c **** #include "cyfitter.h"
  22:Generated_Source\PSoC5/cyfitter_cfg.c **** #include "CyLib.h"
  23:Generated_Source\PSoC5/cyfitter_cfg.c **** #include "cyfitter_cfg.h"
  24:Generated_Source\PSoC5/cyfitter_cfg.c **** 
  25:Generated_Source\PSoC5/cyfitter_cfg.c **** #define CY_NEED_CYCLOCKSTARTUPERROR 1
  26:Generated_Source\PSoC5/cyfitter_cfg.c **** 
  27:Generated_Source\PSoC5/cyfitter_cfg.c **** 
  28:Generated_Source\PSoC5/cyfitter_cfg.c **** #if defined(__GNUC__) || defined(__ARMCC_VERSION)
  29:Generated_Source\PSoC5/cyfitter_cfg.c ****     #define CYPACKED 
  30:Generated_Source\PSoC5/cyfitter_cfg.c ****     #define CYPACKED_ATTR __attribute__ ((packed))
  31:Generated_Source\PSoC5/cyfitter_cfg.c ****     #define CYALIGNED __attribute__ ((aligned))
  32:Generated_Source\PSoC5/cyfitter_cfg.c ****     #define CY_CFG_UNUSED __attribute__ ((unused))
ARM GAS  C:\Users\Nelson\AppData\Local\Temp\ccJUGSN3.s 			page 2


  33:Generated_Source\PSoC5/cyfitter_cfg.c ****     #ifndef CY_CFG_SECTION
  34:Generated_Source\PSoC5/cyfitter_cfg.c ****         #define CY_CFG_SECTION __attribute__ ((section(".psocinit")))
  35:Generated_Source\PSoC5/cyfitter_cfg.c ****     #endif
  36:Generated_Source\PSoC5/cyfitter_cfg.c ****     
  37:Generated_Source\PSoC5/cyfitter_cfg.c ****     #if defined(__ARMCC_VERSION)
  38:Generated_Source\PSoC5/cyfitter_cfg.c ****         #define CY_CFG_MEMORY_BARRIER() __memory_changed()
  39:Generated_Source\PSoC5/cyfitter_cfg.c ****     #else
  40:Generated_Source\PSoC5/cyfitter_cfg.c ****         #define CY_CFG_MEMORY_BARRIER() __sync_synchronize()
  41:Generated_Source\PSoC5/cyfitter_cfg.c ****     #endif
  42:Generated_Source\PSoC5/cyfitter_cfg.c ****     
  43:Generated_Source\PSoC5/cyfitter_cfg.c **** #elif defined(__ICCARM__)
  44:Generated_Source\PSoC5/cyfitter_cfg.c ****     #include <intrinsics.h>
  45:Generated_Source\PSoC5/cyfitter_cfg.c **** 
  46:Generated_Source\PSoC5/cyfitter_cfg.c ****     #define CYPACKED __packed
  47:Generated_Source\PSoC5/cyfitter_cfg.c ****     #define CYPACKED_ATTR 
  48:Generated_Source\PSoC5/cyfitter_cfg.c ****     #define CYALIGNED _Pragma("data_alignment=4")
  49:Generated_Source\PSoC5/cyfitter_cfg.c ****     #define CY_CFG_UNUSED _Pragma("diag_suppress=Pe177")
  50:Generated_Source\PSoC5/cyfitter_cfg.c ****     #define CY_CFG_SECTION _Pragma("location=\".psocinit\"")
  51:Generated_Source\PSoC5/cyfitter_cfg.c ****     
  52:Generated_Source\PSoC5/cyfitter_cfg.c ****     #define CY_CFG_MEMORY_BARRIER() __DMB()
  53:Generated_Source\PSoC5/cyfitter_cfg.c ****     
  54:Generated_Source\PSoC5/cyfitter_cfg.c **** #else
  55:Generated_Source\PSoC5/cyfitter_cfg.c ****     #error Unsupported toolchain
  56:Generated_Source\PSoC5/cyfitter_cfg.c **** #endif
  57:Generated_Source\PSoC5/cyfitter_cfg.c **** 
  58:Generated_Source\PSoC5/cyfitter_cfg.c **** 
  59:Generated_Source\PSoC5/cyfitter_cfg.c **** CY_CFG_UNUSED
  60:Generated_Source\PSoC5/cyfitter_cfg.c **** static void CYMEMZERO(void *s, size_t n);
  61:Generated_Source\PSoC5/cyfitter_cfg.c **** CY_CFG_UNUSED
  62:Generated_Source\PSoC5/cyfitter_cfg.c **** static void CYMEMZERO(void *s, size_t n)
  63:Generated_Source\PSoC5/cyfitter_cfg.c **** {
  64:Generated_Source\PSoC5/cyfitter_cfg.c **** 	(void)memset(s, 0, n);
  65:Generated_Source\PSoC5/cyfitter_cfg.c **** }
  66:Generated_Source\PSoC5/cyfitter_cfg.c **** CY_CFG_UNUSED
  67:Generated_Source\PSoC5/cyfitter_cfg.c **** static void CYCONFIGCPY(void *dest, const void *src, size_t n);
  68:Generated_Source\PSoC5/cyfitter_cfg.c **** CY_CFG_UNUSED
  69:Generated_Source\PSoC5/cyfitter_cfg.c **** static void CYCONFIGCPY(void *dest, const void *src, size_t n)
  70:Generated_Source\PSoC5/cyfitter_cfg.c **** {
  71:Generated_Source\PSoC5/cyfitter_cfg.c **** 	(void)memcpy(dest, src, n);
  72:Generated_Source\PSoC5/cyfitter_cfg.c **** }
  73:Generated_Source\PSoC5/cyfitter_cfg.c **** CY_CFG_UNUSED
  74:Generated_Source\PSoC5/cyfitter_cfg.c **** static void CYCONFIGCPYCODE(void *dest, const void *src, size_t n);
  75:Generated_Source\PSoC5/cyfitter_cfg.c **** CY_CFG_UNUSED
  76:Generated_Source\PSoC5/cyfitter_cfg.c **** static void CYCONFIGCPYCODE(void *dest, const void *src, size_t n)
  77:Generated_Source\PSoC5/cyfitter_cfg.c **** {
  78:Generated_Source\PSoC5/cyfitter_cfg.c **** 	(void)memcpy(dest, src, n);
  79:Generated_Source\PSoC5/cyfitter_cfg.c **** }
  80:Generated_Source\PSoC5/cyfitter_cfg.c **** 
  81:Generated_Source\PSoC5/cyfitter_cfg.c **** 
  82:Generated_Source\PSoC5/cyfitter_cfg.c **** 
  83:Generated_Source\PSoC5/cyfitter_cfg.c **** 
  84:Generated_Source\PSoC5/cyfitter_cfg.c **** /* Clock startup error codes                                                   */
  85:Generated_Source\PSoC5/cyfitter_cfg.c **** #define CYCLOCKSTART_NO_ERROR    0u
  86:Generated_Source\PSoC5/cyfitter_cfg.c **** #define CYCLOCKSTART_XTAL_ERROR  1u
  87:Generated_Source\PSoC5/cyfitter_cfg.c **** #define CYCLOCKSTART_32KHZ_ERROR 2u
  88:Generated_Source\PSoC5/cyfitter_cfg.c **** #define CYCLOCKSTART_PLL_ERROR   3u
  89:Generated_Source\PSoC5/cyfitter_cfg.c **** 
ARM GAS  C:\Users\Nelson\AppData\Local\Temp\ccJUGSN3.s 			page 3


  90:Generated_Source\PSoC5/cyfitter_cfg.c **** 
  91:Generated_Source\PSoC5/cyfitter_cfg.c **** #ifdef CY_NEED_CYCLOCKSTARTUPERROR
  92:Generated_Source\PSoC5/cyfitter_cfg.c **** /*******************************************************************************
  93:Generated_Source\PSoC5/cyfitter_cfg.c **** * Function Name: CyClockStartupError
  94:Generated_Source\PSoC5/cyfitter_cfg.c **** ********************************************************************************
  95:Generated_Source\PSoC5/cyfitter_cfg.c **** * Summary:
  96:Generated_Source\PSoC5/cyfitter_cfg.c **** *  If an error is encountered during clock configuration (crystal startup error,
  97:Generated_Source\PSoC5/cyfitter_cfg.c **** *  PLL lock error, etc.), the system will end up here.  Unless reimplemented by
  98:Generated_Source\PSoC5/cyfitter_cfg.c **** *  the customer, this function will stop in an infinite loop.
  99:Generated_Source\PSoC5/cyfitter_cfg.c **** *
 100:Generated_Source\PSoC5/cyfitter_cfg.c **** * Parameters:
 101:Generated_Source\PSoC5/cyfitter_cfg.c **** *   void
 102:Generated_Source\PSoC5/cyfitter_cfg.c **** *
 103:Generated_Source\PSoC5/cyfitter_cfg.c **** * Return:
 104:Generated_Source\PSoC5/cyfitter_cfg.c **** *   void
 105:Generated_Source\PSoC5/cyfitter_cfg.c **** *
 106:Generated_Source\PSoC5/cyfitter_cfg.c **** *******************************************************************************/
 107:Generated_Source\PSoC5/cyfitter_cfg.c **** CY_CFG_UNUSED
 108:Generated_Source\PSoC5/cyfitter_cfg.c **** static void CyClockStartupError(uint8 errorCode);
 109:Generated_Source\PSoC5/cyfitter_cfg.c **** CY_CFG_UNUSED
 110:Generated_Source\PSoC5/cyfitter_cfg.c **** static void CyClockStartupError(uint8 errorCode)
 111:Generated_Source\PSoC5/cyfitter_cfg.c **** {
  26              		.loc 1 111 0
  27              		.cfi_startproc
  28              		@ Volatile: function does not return.
  29              		@ args = 0, pretend = 0, frame = 0
  30              		@ frame_needed = 0, uses_anonymous_args = 0
  31              		@ link register save eliminated.
  32              	.LVL0:
  33              	.L2:
 112:Generated_Source\PSoC5/cyfitter_cfg.c ****     /* To remove the compiler warning if errorCode not used.                */
 113:Generated_Source\PSoC5/cyfitter_cfg.c ****     errorCode = errorCode;
 114:Generated_Source\PSoC5/cyfitter_cfg.c **** 
 115:Generated_Source\PSoC5/cyfitter_cfg.c ****     /* If we have a clock startup error (bad MHz crystal, PLL lock, etc.),  */
 116:Generated_Source\PSoC5/cyfitter_cfg.c ****     /* we will end up here to allow the customer to implement something to  */
 117:Generated_Source\PSoC5/cyfitter_cfg.c ****     /* deal with the clock condition.                                       */
 118:Generated_Source\PSoC5/cyfitter_cfg.c **** 
 119:Generated_Source\PSoC5/cyfitter_cfg.c **** #ifdef CY_CFG_CLOCK_STARTUP_ERROR_CALLBACK
 120:Generated_Source\PSoC5/cyfitter_cfg.c **** 	CY_CFG_Clock_Startup_ErrorCallback();
 121:Generated_Source\PSoC5/cyfitter_cfg.c **** #else
 122:Generated_Source\PSoC5/cyfitter_cfg.c **** 	/*  If not using CY_CFG_CLOCK_STARTUP_ERROR_CALLBACK, place your clock startup code here. */
 123:Generated_Source\PSoC5/cyfitter_cfg.c ****     /* `#START CyClockStartupError` */
 124:Generated_Source\PSoC5/cyfitter_cfg.c **** 
 125:Generated_Source\PSoC5/cyfitter_cfg.c **** 
 126:Generated_Source\PSoC5/cyfitter_cfg.c **** 
 127:Generated_Source\PSoC5/cyfitter_cfg.c ****     /* `#END` */
 128:Generated_Source\PSoC5/cyfitter_cfg.c **** 
 129:Generated_Source\PSoC5/cyfitter_cfg.c ****     /* If nothing else, stop here since the clocks have not started         */
 130:Generated_Source\PSoC5/cyfitter_cfg.c ****     /* correctly.                                                           */
 131:Generated_Source\PSoC5/cyfitter_cfg.c ****     while(1) {}
  34              		.loc 1 131 0 discriminator 1
  35 0000 FEE7     		b	.L2
  36              		.cfi_endproc
  37              	.LFE3:
  38              		.size	CyClockStartupError, .-CyClockStartupError
  39 0002 00BF     		.section	.text.cfg_write_bytes32,"ax",%progbits
  40              		.align	2
ARM GAS  C:\Users\Nelson\AppData\Local\Temp\ccJUGSN3.s 			page 4


  41              		.thumb
  42              		.thumb_func
  43              		.type	cfg_write_bytes32, %function
  44              	cfg_write_bytes32:
  45              	.LFB4:
 132:Generated_Source\PSoC5/cyfitter_cfg.c **** #endif /* CY_CFG_CLOCK_STARTUP_ERROR_CALLBACK */ 
 133:Generated_Source\PSoC5/cyfitter_cfg.c **** }
 134:Generated_Source\PSoC5/cyfitter_cfg.c **** #endif
 135:Generated_Source\PSoC5/cyfitter_cfg.c **** 
 136:Generated_Source\PSoC5/cyfitter_cfg.c **** #define CY_CFG_BASE_ADDR_COUNT 25u
 137:Generated_Source\PSoC5/cyfitter_cfg.c **** CYPACKED typedef struct
 138:Generated_Source\PSoC5/cyfitter_cfg.c **** {
 139:Generated_Source\PSoC5/cyfitter_cfg.c **** 	uint8 offset;
 140:Generated_Source\PSoC5/cyfitter_cfg.c **** 	uint8 value;
 141:Generated_Source\PSoC5/cyfitter_cfg.c **** } CYPACKED_ATTR cy_cfg_addrvalue_t;
 142:Generated_Source\PSoC5/cyfitter_cfg.c **** 
 143:Generated_Source\PSoC5/cyfitter_cfg.c **** #define cy_cfg_addr_table ((const uint32 CYFAR *)0x48000000u)
 144:Generated_Source\PSoC5/cyfitter_cfg.c **** #define cy_cfg_data_table ((const cy_cfg_addrvalue_t CYFAR *)0x48000064u)
 145:Generated_Source\PSoC5/cyfitter_cfg.c **** 
 146:Generated_Source\PSoC5/cyfitter_cfg.c **** /* IOPINS0_0 Address: CYREG_PRT0_DM0 Size (bytes): 8 */
 147:Generated_Source\PSoC5/cyfitter_cfg.c **** #define BS_IOPINS0_0_VAL ((const uint8 CYFAR *)0x48000158u)
 148:Generated_Source\PSoC5/cyfitter_cfg.c **** 
 149:Generated_Source\PSoC5/cyfitter_cfg.c **** /* IOPINS0_8 Address: CYREG_PRT15_DR Size (bytes): 10 */
 150:Generated_Source\PSoC5/cyfitter_cfg.c **** #define BS_IOPINS0_8_VAL ((const uint8 CYFAR *)0x48000160u)
 151:Generated_Source\PSoC5/cyfitter_cfg.c **** 
 152:Generated_Source\PSoC5/cyfitter_cfg.c **** /* IOPINS0_1 Address: CYREG_PRT1_DM0 Size (bytes): 8 */
 153:Generated_Source\PSoC5/cyfitter_cfg.c **** #define BS_IOPINS0_1_VAL ((const uint8 CYFAR *)0x4800016Cu)
 154:Generated_Source\PSoC5/cyfitter_cfg.c **** 
 155:Generated_Source\PSoC5/cyfitter_cfg.c **** /* IOPINS0_2 Address: CYREG_PRT2_DM0 Size (bytes): 8 */
 156:Generated_Source\PSoC5/cyfitter_cfg.c **** #define BS_IOPINS0_2_VAL ((const uint8 CYFAR *)0x48000174u)
 157:Generated_Source\PSoC5/cyfitter_cfg.c **** 
 158:Generated_Source\PSoC5/cyfitter_cfg.c **** /* IOPINS0_3 Address: CYREG_PRT3_DM0 Size (bytes): 8 */
 159:Generated_Source\PSoC5/cyfitter_cfg.c **** #define BS_IOPINS0_3_VAL ((const uint8 CYFAR *)0x4800017Cu)
 160:Generated_Source\PSoC5/cyfitter_cfg.c **** 
 161:Generated_Source\PSoC5/cyfitter_cfg.c **** /* CYDEV_CLKDIST_ACFG0_CFG0 Address: CYREG_CLKDIST_ACFG0_CFG0 Size (bytes): 4 */
 162:Generated_Source\PSoC5/cyfitter_cfg.c **** #define BS_CYDEV_CLKDIST_ACFG0_CFG0_VAL ((const uint8 CYFAR *)0x48000184u)
 163:Generated_Source\PSoC5/cyfitter_cfg.c **** 
 164:Generated_Source\PSoC5/cyfitter_cfg.c **** /* PHUB_CFGMEM1 Address: CYREG_PHUB_CFGMEM1_CFG0 Size (bytes): 4 */
 165:Generated_Source\PSoC5/cyfitter_cfg.c **** #define BS_PHUB_CFGMEM1_VAL ((const uint8 CYFAR *)0x48000188u)
 166:Generated_Source\PSoC5/cyfitter_cfg.c **** 
 167:Generated_Source\PSoC5/cyfitter_cfg.c **** 
 168:Generated_Source\PSoC5/cyfitter_cfg.c **** /*******************************************************************************
 169:Generated_Source\PSoC5/cyfitter_cfg.c **** * Function Name: cfg_write_bytes32
 170:Generated_Source\PSoC5/cyfitter_cfg.c **** ********************************************************************************
 171:Generated_Source\PSoC5/cyfitter_cfg.c **** * Summary:
 172:Generated_Source\PSoC5/cyfitter_cfg.c **** *  This function is used for setting up the chip configuration areas that
 173:Generated_Source\PSoC5/cyfitter_cfg.c **** *  contain relatively sparse data.
 174:Generated_Source\PSoC5/cyfitter_cfg.c **** *
 175:Generated_Source\PSoC5/cyfitter_cfg.c **** * Parameters:
 176:Generated_Source\PSoC5/cyfitter_cfg.c **** *   void
 177:Generated_Source\PSoC5/cyfitter_cfg.c **** *
 178:Generated_Source\PSoC5/cyfitter_cfg.c **** * Return:
 179:Generated_Source\PSoC5/cyfitter_cfg.c **** *   void
 180:Generated_Source\PSoC5/cyfitter_cfg.c **** *
 181:Generated_Source\PSoC5/cyfitter_cfg.c **** *******************************************************************************/
 182:Generated_Source\PSoC5/cyfitter_cfg.c **** static void cfg_write_bytes32(const uint32 addr_table[], const cy_cfg_addrvalue_t data_table[]);
 183:Generated_Source\PSoC5/cyfitter_cfg.c **** static void cfg_write_bytes32(const uint32 addr_table[], const cy_cfg_addrvalue_t data_table[])
ARM GAS  C:\Users\Nelson\AppData\Local\Temp\ccJUGSN3.s 			page 5


 184:Generated_Source\PSoC5/cyfitter_cfg.c **** {
  46              		.loc 1 184 0
  47              		.cfi_startproc
  48              		@ args = 0, pretend = 0, frame = 0
  49              		@ frame_needed = 0, uses_anonymous_args = 0
  50              		@ link register save eliminated.
  51              	.LVL1:
  52 0000 F0B4     		push	{r4, r5, r6, r7}
  53              		.cfi_def_cfa_offset 16
  54              		.cfi_offset 4, -16
  55              		.cfi_offset 5, -12
  56              		.cfi_offset 6, -8
  57              		.cfi_offset 7, -4
  58              	.LVL2:
 185:Generated_Source\PSoC5/cyfitter_cfg.c **** 	/* For 32-bit little-endian architectures */
 186:Generated_Source\PSoC5/cyfitter_cfg.c **** 	uint32 i, j = 0u;
  59              		.loc 1 186 0
  60 0002 0022     		movs	r2, #0
 187:Generated_Source\PSoC5/cyfitter_cfg.c **** 	for (i = 0u; i < CY_CFG_BASE_ADDR_COUNT; i++)
  61              		.loc 1 187 0
  62 0004 1746     		mov	r7, r2
  63 0006 11E0     		b	.L4
  64              	.LVL3:
  65              	.L7:
  66              	.LBB2:
 188:Generated_Source\PSoC5/cyfitter_cfg.c **** 	{
 189:Generated_Source\PSoC5/cyfitter_cfg.c **** 		uint32 baseAddr = addr_table[i];
  67              		.loc 1 189 0
  68 0008 50F82760 		ldr	r6, [r0, r7, lsl #2]
  69              	.LVL4:
 190:Generated_Source\PSoC5/cyfitter_cfg.c **** 		uint8 count = (uint8)baseAddr;
  70              		.loc 1 190 0
  71 000c F3B2     		uxtb	r3, r6
  72              	.LVL5:
 191:Generated_Source\PSoC5/cyfitter_cfg.c **** 		baseAddr &= 0xFFFFFF00u;
  73              		.loc 1 191 0
  74 000e 26F0FF06 		bic	r6, r6, #255
  75              	.LVL6:
 192:Generated_Source\PSoC5/cyfitter_cfg.c **** 		while (count != 0u)
  76              		.loc 1 192 0
  77 0012 08E0     		b	.L5
  78              	.L6:
 193:Generated_Source\PSoC5/cyfitter_cfg.c **** 		{
 194:Generated_Source\PSoC5/cyfitter_cfg.c **** 			CY_SET_XTND_REG8((void CYFAR *)(baseAddr + data_table[j].offset), data_table[j].value);
  79              		.loc 1 194 0
  80 0014 01EB4205 		add	r5, r1, r2, lsl #1
  81 0018 11F81240 		ldrb	r4, [r1, r2, lsl #1]	@ zero_extendqisi2
  82 001c 6D78     		ldrb	r5, [r5, #1]	@ zero_extendqisi2
  83 001e A555     		strb	r5, [r4, r6]
 195:Generated_Source\PSoC5/cyfitter_cfg.c **** 			j++;
  84              		.loc 1 195 0
  85 0020 0132     		adds	r2, r2, #1
  86              	.LVL7:
 196:Generated_Source\PSoC5/cyfitter_cfg.c **** 			count--;
  87              		.loc 1 196 0
  88 0022 013B     		subs	r3, r3, #1
  89              	.LVL8:
ARM GAS  C:\Users\Nelson\AppData\Local\Temp\ccJUGSN3.s 			page 6


  90 0024 DBB2     		uxtb	r3, r3
  91              	.LVL9:
  92              	.L5:
 192:Generated_Source\PSoC5/cyfitter_cfg.c **** 		{
  93              		.loc 1 192 0
  94 0026 002B     		cmp	r3, #0
  95 0028 F4D1     		bne	.L6
  96              	.LBE2:
 187:Generated_Source\PSoC5/cyfitter_cfg.c **** 	{
  97              		.loc 1 187 0 discriminator 2
  98 002a 0137     		adds	r7, r7, #1
  99              	.LVL10:
 100              	.L4:
 187:Generated_Source\PSoC5/cyfitter_cfg.c **** 	{
 101              		.loc 1 187 0 is_stmt 0 discriminator 1
 102 002c 182F     		cmp	r7, #24
 103 002e EBD9     		bls	.L7
 197:Generated_Source\PSoC5/cyfitter_cfg.c **** 		}
 198:Generated_Source\PSoC5/cyfitter_cfg.c **** 	}
 199:Generated_Source\PSoC5/cyfitter_cfg.c **** }
 104              		.loc 1 199 0 is_stmt 1
 105 0030 F0BC     		pop	{r4, r5, r6, r7}
 106              		.cfi_restore 7
 107              		.cfi_restore 6
 108              		.cfi_restore 5
 109              		.cfi_restore 4
 110              		.cfi_def_cfa_offset 0
 111              	.LVL11:
 112 0032 7047     		bx	lr
 113              		.cfi_endproc
 114              	.LFE4:
 115              		.size	cfg_write_bytes32, .-cfg_write_bytes32
 116              		.section	.text.CYMEMZERO,"ax",%progbits
 117              		.align	2
 118              		.thumb
 119              		.thumb_func
 120              		.type	CYMEMZERO, %function
 121              	CYMEMZERO:
 122              	.LFB0:
  63:Generated_Source\PSoC5/cyfitter_cfg.c **** 	(void)memset(s, 0, n);
 123              		.loc 1 63 0
 124              		.cfi_startproc
 125              		@ args = 0, pretend = 0, frame = 0
 126              		@ frame_needed = 0, uses_anonymous_args = 0
 127              	.LVL12:
 128 0000 08B5     		push	{r3, lr}
 129              		.cfi_def_cfa_offset 8
 130              		.cfi_offset 3, -8
 131              		.cfi_offset 14, -4
 132 0002 0A46     		mov	r2, r1
  64:Generated_Source\PSoC5/cyfitter_cfg.c **** }
 133              		.loc 1 64 0
 134 0004 0021     		movs	r1, #0
 135              	.LVL13:
 136 0006 FFF7FEFF 		bl	memset
 137              	.LVL14:
 138 000a 08BD     		pop	{r3, pc}
ARM GAS  C:\Users\Nelson\AppData\Local\Temp\ccJUGSN3.s 			page 7


 139              		.cfi_endproc
 140              	.LFE0:
 141              		.size	CYMEMZERO, .-CYMEMZERO
 142              		.section	.text.AnalogSetDefault,"ax",%progbits
 143              		.align	2
 144              		.thumb
 145              		.thumb_func
 146              		.type	AnalogSetDefault, %function
 147              	AnalogSetDefault:
 148              	.LFB6:
 200:Generated_Source\PSoC5/cyfitter_cfg.c **** 
 201:Generated_Source\PSoC5/cyfitter_cfg.c **** /*******************************************************************************
 202:Generated_Source\PSoC5/cyfitter_cfg.c **** * Function Name: ClockSetup
 203:Generated_Source\PSoC5/cyfitter_cfg.c **** ********************************************************************************
 204:Generated_Source\PSoC5/cyfitter_cfg.c **** *
 205:Generated_Source\PSoC5/cyfitter_cfg.c **** * Summary:
 206:Generated_Source\PSoC5/cyfitter_cfg.c **** *  Performs the initialization of all of the clocks in the device based on the
 207:Generated_Source\PSoC5/cyfitter_cfg.c **** *  settings in the Clock tab of the DWR.  This includes enabling the requested
 208:Generated_Source\PSoC5/cyfitter_cfg.c **** *  clocks and setting the necessary dividers to produce the desired frequency. 
 209:Generated_Source\PSoC5/cyfitter_cfg.c **** *
 210:Generated_Source\PSoC5/cyfitter_cfg.c **** * Parameters:
 211:Generated_Source\PSoC5/cyfitter_cfg.c **** *  void
 212:Generated_Source\PSoC5/cyfitter_cfg.c **** *
 213:Generated_Source\PSoC5/cyfitter_cfg.c **** * Return:
 214:Generated_Source\PSoC5/cyfitter_cfg.c **** *  void
 215:Generated_Source\PSoC5/cyfitter_cfg.c **** *
 216:Generated_Source\PSoC5/cyfitter_cfg.c **** *******************************************************************************/
 217:Generated_Source\PSoC5/cyfitter_cfg.c **** static void ClockSetup(void);
 218:Generated_Source\PSoC5/cyfitter_cfg.c **** static void ClockSetup(void)
 219:Generated_Source\PSoC5/cyfitter_cfg.c **** {
 220:Generated_Source\PSoC5/cyfitter_cfg.c **** 	uint32 timeout;
 221:Generated_Source\PSoC5/cyfitter_cfg.c **** 	uint8 pllLock;
 222:Generated_Source\PSoC5/cyfitter_cfg.c **** 
 223:Generated_Source\PSoC5/cyfitter_cfg.c **** 
 224:Generated_Source\PSoC5/cyfitter_cfg.c **** 	/* Configure Digital Clocks based on settings from Clock DWR */
 225:Generated_Source\PSoC5/cyfitter_cfg.c **** 	CY_SET_XTND_REG16((void CYFAR *)(CYREG_CLKDIST_DCFG0_CFG0), 0x0000u);
 226:Generated_Source\PSoC5/cyfitter_cfg.c **** 	CY_SET_XTND_REG8((void CYFAR *)(CYREG_CLKDIST_DCFG0_CFG0 + 0x2u), 0x50u);
 227:Generated_Source\PSoC5/cyfitter_cfg.c **** 	CY_SET_XTND_REG16((void CYFAR *)(CYREG_CLKDIST_DCFG1_CFG0), 0x0010u);
 228:Generated_Source\PSoC5/cyfitter_cfg.c **** 	CY_SET_XTND_REG8((void CYFAR *)(CYREG_CLKDIST_DCFG1_CFG0 + 0x2u), 0x18u);
 229:Generated_Source\PSoC5/cyfitter_cfg.c **** 	CY_SET_XTND_REG16((void CYFAR *)(CYREG_CLKDIST_DCFG2_CFG0), 0x0010u);
 230:Generated_Source\PSoC5/cyfitter_cfg.c **** 	CY_SET_XTND_REG8((void CYFAR *)(CYREG_CLKDIST_DCFG2_CFG0 + 0x2u), 0x18u);
 231:Generated_Source\PSoC5/cyfitter_cfg.c **** 	CY_SET_XTND_REG16((void CYFAR *)(CYREG_CLKDIST_DCFG3_CFG0), 0x018Fu);
 232:Generated_Source\PSoC5/cyfitter_cfg.c **** 	CY_SET_XTND_REG8((void CYFAR *)(CYREG_CLKDIST_DCFG3_CFG0 + 0x2u), 0x18u);
 233:Generated_Source\PSoC5/cyfitter_cfg.c **** 
 234:Generated_Source\PSoC5/cyfitter_cfg.c **** 	/* Configure Analog Clocks based on settings from Clock DWR */
 235:Generated_Source\PSoC5/cyfitter_cfg.c **** 	CYCONFIGCPY((void CYFAR *)(CYREG_CLKDIST_ACFG0_CFG0), (const void CYFAR *)(BS_CYDEV_CLKDIST_ACFG0_
 236:Generated_Source\PSoC5/cyfitter_cfg.c **** 
 237:Generated_Source\PSoC5/cyfitter_cfg.c **** 	/* Configure ILO based on settings from Clock DWR */
 238:Generated_Source\PSoC5/cyfitter_cfg.c **** 	CY_SET_XTND_REG8((void CYFAR *)(CYREG_SLOWCLK_ILO_CR0), 0x06u);
 239:Generated_Source\PSoC5/cyfitter_cfg.c **** 
 240:Generated_Source\PSoC5/cyfitter_cfg.c **** 	/* Configure IMO based on settings from Clock DWR */
 241:Generated_Source\PSoC5/cyfitter_cfg.c **** 	CY_SET_XTND_REG8((void CYFAR *)(CYREG_FASTCLK_IMO_CR), 0x52u);
 242:Generated_Source\PSoC5/cyfitter_cfg.c **** 	CY_SET_XTND_REG8((void CYFAR *)(CYREG_IMO_TR1), (CY_GET_XTND_REG8((void CYFAR *)CYREG_FLSHID_CUST_
 243:Generated_Source\PSoC5/cyfitter_cfg.c **** 
 244:Generated_Source\PSoC5/cyfitter_cfg.c **** 	/* Configure PLL based on settings from Clock DWR */
 245:Generated_Source\PSoC5/cyfitter_cfg.c **** 	CY_SET_XTND_REG16((void CYFAR *)(CYREG_FASTCLK_PLL_P), 0x0708u);
 246:Generated_Source\PSoC5/cyfitter_cfg.c **** 	CY_SET_XTND_REG16((void CYFAR *)(CYREG_FASTCLK_PLL_CFG0), 0x1251u);
ARM GAS  C:\Users\Nelson\AppData\Local\Temp\ccJUGSN3.s 			page 8


 247:Generated_Source\PSoC5/cyfitter_cfg.c **** 	/* Wait up to 250us for the PLL to lock */
 248:Generated_Source\PSoC5/cyfitter_cfg.c **** 	pllLock = 0u;
 249:Generated_Source\PSoC5/cyfitter_cfg.c **** 	for (timeout = 250u / 10u; (timeout > 0u) && (pllLock != 0x03u); timeout--)
 250:Generated_Source\PSoC5/cyfitter_cfg.c **** 	{ 
 251:Generated_Source\PSoC5/cyfitter_cfg.c **** 		pllLock = 0x03u & ((uint8)((uint8)pllLock << 1) | ((CY_GET_XTND_REG8((void CYFAR *)CYREG_FASTCLK_
 252:Generated_Source\PSoC5/cyfitter_cfg.c **** 		CyDelayCycles(10u * 48u); /* Delay 10us based on 48MHz clock */
 253:Generated_Source\PSoC5/cyfitter_cfg.c **** 	}
 254:Generated_Source\PSoC5/cyfitter_cfg.c **** 	/* If we ran out of time the PLL didn't lock so go to the error function */
 255:Generated_Source\PSoC5/cyfitter_cfg.c **** 	if (timeout == 0u)
 256:Generated_Source\PSoC5/cyfitter_cfg.c **** 	{
 257:Generated_Source\PSoC5/cyfitter_cfg.c **** 		CyClockStartupError(CYCLOCKSTART_PLL_ERROR);
 258:Generated_Source\PSoC5/cyfitter_cfg.c **** 	}
 259:Generated_Source\PSoC5/cyfitter_cfg.c **** 
 260:Generated_Source\PSoC5/cyfitter_cfg.c **** 	/* Configure Bus/Master Clock based on settings from Clock DWR */
 261:Generated_Source\PSoC5/cyfitter_cfg.c **** 	CY_SET_XTND_REG16((void CYFAR *)(CYREG_CLKDIST_MSTR0), 0x0100u);
 262:Generated_Source\PSoC5/cyfitter_cfg.c **** 	CY_SET_XTND_REG8((void CYFAR *)(CYREG_CLKDIST_MSTR0), 0x07u);
 263:Generated_Source\PSoC5/cyfitter_cfg.c **** 	CY_SET_XTND_REG8((void CYFAR *)(CYREG_CLKDIST_BCFG0), 0x00u);
 264:Generated_Source\PSoC5/cyfitter_cfg.c **** 	CY_SET_XTND_REG8((void CYFAR *)(CYREG_CLKDIST_BCFG2), 0x48u);
 265:Generated_Source\PSoC5/cyfitter_cfg.c **** 	CY_SET_XTND_REG8((void CYFAR *)(CYREG_CLKDIST_MSTR0), 0x00u);
 266:Generated_Source\PSoC5/cyfitter_cfg.c **** 
 267:Generated_Source\PSoC5/cyfitter_cfg.c **** 	/* Configure USB Clock based on settings from Clock DWR */
 268:Generated_Source\PSoC5/cyfitter_cfg.c **** 	CY_SET_XTND_REG8((void CYFAR *)(CYREG_CLKDIST_UCFG), 0x00u);
 269:Generated_Source\PSoC5/cyfitter_cfg.c **** 	CY_SET_XTND_REG8((void CYFAR *)(CYREG_CLKDIST_LD), 0x02u);
 270:Generated_Source\PSoC5/cyfitter_cfg.c **** 	CY_SET_XTND_REG8((void CYFAR *)(CYREG_CLKDIST_DLY1), 0x04u);
 271:Generated_Source\PSoC5/cyfitter_cfg.c **** 
 272:Generated_Source\PSoC5/cyfitter_cfg.c **** 	CY_SET_XTND_REG8((void CYFAR *)(CYREG_PM_ACT_CFG2), ((CY_GET_XTND_REG8((void CYFAR *)CYREG_PM_ACT_
 273:Generated_Source\PSoC5/cyfitter_cfg.c **** 	CY_SET_XTND_REG8((void CYFAR *)(CYREG_PM_ACT_CFG1), ((CY_GET_XTND_REG8((void CYFAR *)CYREG_PM_ACT_
 274:Generated_Source\PSoC5/cyfitter_cfg.c **** 	CY_SET_XTND_REG8((void CYFAR *)(CYREG_PM_ACT_CFG0), ((CY_GET_XTND_REG8((void CYFAR *)CYREG_PM_ACT_
 275:Generated_Source\PSoC5/cyfitter_cfg.c **** }
 276:Generated_Source\PSoC5/cyfitter_cfg.c **** 
 277:Generated_Source\PSoC5/cyfitter_cfg.c **** 
 278:Generated_Source\PSoC5/cyfitter_cfg.c **** /* Analog API Functions */
 279:Generated_Source\PSoC5/cyfitter_cfg.c **** 
 280:Generated_Source\PSoC5/cyfitter_cfg.c **** 
 281:Generated_Source\PSoC5/cyfitter_cfg.c **** /*******************************************************************************
 282:Generated_Source\PSoC5/cyfitter_cfg.c **** * Function Name: AnalogSetDefault
 283:Generated_Source\PSoC5/cyfitter_cfg.c **** ********************************************************************************
 284:Generated_Source\PSoC5/cyfitter_cfg.c **** *
 285:Generated_Source\PSoC5/cyfitter_cfg.c **** * Summary:
 286:Generated_Source\PSoC5/cyfitter_cfg.c **** *  Sets up the analog portions of the chip to default values based on chip
 287:Generated_Source\PSoC5/cyfitter_cfg.c **** *  configuration options from the project.
 288:Generated_Source\PSoC5/cyfitter_cfg.c **** *
 289:Generated_Source\PSoC5/cyfitter_cfg.c **** * Parameters:
 290:Generated_Source\PSoC5/cyfitter_cfg.c **** *  void
 291:Generated_Source\PSoC5/cyfitter_cfg.c **** *
 292:Generated_Source\PSoC5/cyfitter_cfg.c **** * Return:
 293:Generated_Source\PSoC5/cyfitter_cfg.c **** *  void
 294:Generated_Source\PSoC5/cyfitter_cfg.c **** *
 295:Generated_Source\PSoC5/cyfitter_cfg.c **** *******************************************************************************/
 296:Generated_Source\PSoC5/cyfitter_cfg.c **** static void AnalogSetDefault(void);
 297:Generated_Source\PSoC5/cyfitter_cfg.c **** static void AnalogSetDefault(void)
 298:Generated_Source\PSoC5/cyfitter_cfg.c **** {
 149              		.loc 1 298 0
 150              		.cfi_startproc
 151              		@ args = 0, pretend = 0, frame = 0
 152              		@ frame_needed = 0, uses_anonymous_args = 0
 153 0000 F8B5     		push	{r3, r4, r5, r6, r7, lr}
ARM GAS  C:\Users\Nelson\AppData\Local\Temp\ccJUGSN3.s 			page 9


 154              		.cfi_def_cfa_offset 24
 155              		.cfi_offset 3, -24
 156              		.cfi_offset 4, -20
 157              		.cfi_offset 5, -16
 158              		.cfi_offset 6, -12
 159              		.cfi_offset 7, -8
 160              		.cfi_offset 14, -4
 299:Generated_Source\PSoC5/cyfitter_cfg.c **** 	uint8 bg_xover_inl_trim = CY_GET_XTND_REG8((void CYFAR *)(CYREG_FLSHID_MFG_CFG_BG_XOVER_INL_TRIM +
 161              		.loc 1 299 0
 162 0002 1B4B     		ldr	r3, .L13
 163 0004 1B78     		ldrb	r3, [r3]	@ zero_extendqisi2
 164 0006 DBB2     		uxtb	r3, r3
 165              	.LVL15:
 300:Generated_Source\PSoC5/cyfitter_cfg.c **** 	uint8 cr4 = CY_GET_XTND_REG8((void CYFAR *)(CYREG_RESET_CR4));
 166              		.loc 1 300 0
 167 0008 1A4E     		ldr	r6, .L13+4
 168 000a 3478     		ldrb	r4, [r6]	@ zero_extendqisi2
 169 000c E4B2     		uxtb	r4, r4
 170              	.LVL16:
 301:Generated_Source\PSoC5/cyfitter_cfg.c **** 	uint8 cr5 = CY_GET_XTND_REG8((void CYFAR *)(CYREG_RESET_CR5));
 171              		.loc 1 301 0
 172 000e 1A4F     		ldr	r7, .L13+8
 173 0010 3D78     		ldrb	r5, [r7]	@ zero_extendqisi2
 174 0012 EDB2     		uxtb	r5, r5
 175              	.LVL17:
 302:Generated_Source\PSoC5/cyfitter_cfg.c **** 	CY_SET_XTND_REG8((void CYFAR *)(CYREG_BG_DFT0), (bg_xover_inl_trim & 0x07u));
 176              		.loc 1 302 0
 177 0014 03F00701 		and	r1, r3, #7
 178 0018 184A     		ldr	r2, .L13+12
 179 001a 1170     		strb	r1, [r2]
 303:Generated_Source\PSoC5/cyfitter_cfg.c **** 	CY_SET_XTND_REG8((void CYFAR *)(CYREG_BG_DFT1), ((bg_xover_inl_trim >> 4) & 0x0Fu));
 180              		.loc 1 303 0
 181 001c 1B09     		lsrs	r3, r3, #4
 182              	.LVL18:
 183 001e 0132     		adds	r2, r2, #1
 184 0020 1370     		strb	r3, [r2]
 304:Generated_Source\PSoC5/cyfitter_cfg.c **** 	/* Disable PRES while setting up SAR voltage reference */
 305:Generated_Source\PSoC5/cyfitter_cfg.c **** 	CY_SET_XTND_REG8((void CYFAR *)(CYREG_RESET_CR4), (cr4 | 0x03u));
 185              		.loc 1 305 0
 186 0022 44F00303 		orr	r3, r4, #3
 187 0026 3370     		strb	r3, [r6]
 306:Generated_Source\PSoC5/cyfitter_cfg.c **** 	CY_SET_XTND_REG8((void CYFAR *)(CYREG_RESET_CR5), (cr5 | 0x03u));
 188              		.loc 1 306 0
 189 0028 45F00303 		orr	r3, r5, #3
 190 002c 3B70     		strb	r3, [r7]
 307:Generated_Source\PSoC5/cyfitter_cfg.c **** 	CY_SET_XTND_REG8((void CYFAR *)CYREG_PRT3_AG, 0x03u);
 191              		.loc 1 307 0
 192 002e 0322     		movs	r2, #3
 193 0030 134B     		ldr	r3, .L13+16
 194 0032 1A70     		strb	r2, [r3]
 308:Generated_Source\PSoC5/cyfitter_cfg.c **** 	CY_SET_XTND_REG8((void CYFAR *)CYREG_SAR0_CSR1, 0x40u);
 195              		.loc 1 308 0
 196 0034 4023     		movs	r3, #64
 197 0036 134A     		ldr	r2, .L13+20
 198 0038 1370     		strb	r3, [r2]
 309:Generated_Source\PSoC5/cyfitter_cfg.c **** 	CY_SET_XTND_REG8((void CYFAR *)CYREG_SAR0_CSR3, 0x40u);
 199              		.loc 1 309 0
ARM GAS  C:\Users\Nelson\AppData\Local\Temp\ccJUGSN3.s 			page 10


 200 003a 0232     		adds	r2, r2, #2
 201 003c 1370     		strb	r3, [r2]
 310:Generated_Source\PSoC5/cyfitter_cfg.c **** 	CY_SET_XTND_REG8((void CYFAR *)CYREG_SAR1_CSR1, 0x40u);
 202              		.loc 1 310 0
 203 003e 0632     		adds	r2, r2, #6
 204 0040 1370     		strb	r3, [r2]
 311:Generated_Source\PSoC5/cyfitter_cfg.c **** 	CY_SET_XTND_REG8((void CYFAR *)CYREG_SAR1_CSR3, 0x40u);
 205              		.loc 1 311 0
 206 0042 0232     		adds	r2, r2, #2
 207 0044 1370     		strb	r3, [r2]
 312:Generated_Source\PSoC5/cyfitter_cfg.c **** 	CY_SET_XTND_REG8((void CYFAR *)CYREG_SAR0_SW0, 0x10u);
 208              		.loc 1 312 0
 209 0046 1022     		movs	r2, #16
 210 0048 0F4B     		ldr	r3, .L13+24
 211 004a 1A70     		strb	r2, [r3]
 313:Generated_Source\PSoC5/cyfitter_cfg.c **** 	CY_SET_XTND_REG8((void CYFAR *)CYREG_SAR0_SW3, 0x20u);
 212              		.loc 1 313 0
 213 004c 2023     		movs	r3, #32
 214 004e 0F49     		ldr	r1, .L13+28
 215 0050 0B70     		strb	r3, [r1]
 314:Generated_Source\PSoC5/cyfitter_cfg.c **** 	CY_SET_XTND_REG8((void CYFAR *)CYREG_SAR1_SW0, 0x20u);
 216              		.loc 1 314 0
 217 0052 0531     		adds	r1, r1, #5
 218 0054 0B70     		strb	r3, [r1]
 315:Generated_Source\PSoC5/cyfitter_cfg.c **** 	CY_SET_XTND_REG8((void CYFAR *)CYREG_SAR1_SW3, 0x20u);
 219              		.loc 1 315 0
 220 0056 0331     		adds	r1, r1, #3
 221 0058 0B70     		strb	r3, [r1]
 316:Generated_Source\PSoC5/cyfitter_cfg.c **** 	CY_SET_XTND_REG8((void CYFAR *)CYREG_BUS_SW0, 0x10u);
 222              		.loc 1 316 0
 223 005a 0D4B     		ldr	r3, .L13+32
 224 005c 1A70     		strb	r2, [r3]
 317:Generated_Source\PSoC5/cyfitter_cfg.c **** 	CyDelayUs(10u); /* Allow vref to settle before re-enabling PRES */
 225              		.loc 1 317 0
 226 005e 0A20     		movs	r0, #10
 227 0060 FFF7FEFF 		bl	CyDelayUs
 228              	.LVL19:
 318:Generated_Source\PSoC5/cyfitter_cfg.c **** 	CY_SET_XTND_REG8((void CYFAR *)(CYREG_RESET_CR5), (cr5));
 229              		.loc 1 318 0
 230 0064 3D70     		strb	r5, [r7]
 319:Generated_Source\PSoC5/cyfitter_cfg.c **** 	CY_SET_XTND_REG8((void CYFAR *)(CYREG_RESET_CR4), (cr4));
 231              		.loc 1 319 0
 232 0066 3470     		strb	r4, [r6]
 320:Generated_Source\PSoC5/cyfitter_cfg.c **** 	CY_SET_XTND_REG8((void CYFAR *)CYREG_PUMP_CR0, 0x44u);
 233              		.loc 1 320 0
 234 0068 4422     		movs	r2, #68
 235 006a 0A4B     		ldr	r3, .L13+36
 236 006c 1A70     		strb	r2, [r3]
 237 006e F8BD     		pop	{r3, r4, r5, r6, r7, pc}
 238              	.LVL20:
 239              	.L14:
 240              		.align	2
 241              	.L13:
 242 0070 CF010049 		.word	1224737231
 243 0074 F8460040 		.word	1073759992
 244 0078 F9460040 		.word	1073759993
 245 007c 6E580040 		.word	1073764462
ARM GAS  C:\Users\Nelson\AppData\Local\Temp\ccJUGSN3.s 			page 11


 246 0080 3D510040 		.word	1073762621
 247 0084 01590040 		.word	1073764609
 248 0088 205B0040 		.word	1073765152
 249 008c 235B0040 		.word	1073765155
 250 0090 585B0040 		.word	1073765208
 251 0094 76580040 		.word	1073764470
 252              		.cfi_endproc
 253              	.LFE6:
 254              		.size	AnalogSetDefault, .-AnalogSetDefault
 255              		.section	.text.CYCONFIGCPY,"ax",%progbits
 256              		.align	2
 257              		.thumb
 258              		.thumb_func
 259              		.type	CYCONFIGCPY, %function
 260              	CYCONFIGCPY:
 261              	.LFB1:
  70:Generated_Source\PSoC5/cyfitter_cfg.c **** 	(void)memcpy(dest, src, n);
 262              		.loc 1 70 0
 263              		.cfi_startproc
 264              		@ args = 0, pretend = 0, frame = 0
 265              		@ frame_needed = 0, uses_anonymous_args = 0
 266              	.LVL21:
 267 0000 08B5     		push	{r3, lr}
 268              		.cfi_def_cfa_offset 8
 269              		.cfi_offset 3, -8
 270              		.cfi_offset 14, -4
  71:Generated_Source\PSoC5/cyfitter_cfg.c **** }
 271              		.loc 1 71 0
 272 0002 FFF7FEFF 		bl	memcpy
 273              	.LVL22:
 274 0006 08BD     		pop	{r3, pc}
 275              		.cfi_endproc
 276              	.LFE1:
 277              		.size	CYCONFIGCPY, .-CYCONFIGCPY
 278              		.section	.text.ClockSetup,"ax",%progbits
 279              		.align	2
 280              		.thumb
 281              		.thumb_func
 282              		.type	ClockSetup, %function
 283              	ClockSetup:
 284              	.LFB5:
 219:Generated_Source\PSoC5/cyfitter_cfg.c **** 	uint32 timeout;
 285              		.loc 1 219 0
 286              		.cfi_startproc
 287              		@ args = 0, pretend = 0, frame = 0
 288              		@ frame_needed = 0, uses_anonymous_args = 0
 289 0000 38B5     		push	{r3, r4, r5, lr}
 290              		.cfi_def_cfa_offset 16
 291              		.cfi_offset 3, -16
 292              		.cfi_offset 4, -12
 293              		.cfi_offset 5, -8
 294              		.cfi_offset 14, -4
 225:Generated_Source\PSoC5/cyfitter_cfg.c **** 	CY_SET_XTND_REG8((void CYFAR *)(CYREG_CLKDIST_DCFG0_CFG0 + 0x2u), 0x50u);
 295              		.loc 1 225 0
 296 0002 0024     		movs	r4, #0
 297 0004 344B     		ldr	r3, .L23
 298 0006 1C80     		strh	r4, [r3]	@ movhi
ARM GAS  C:\Users\Nelson\AppData\Local\Temp\ccJUGSN3.s 			page 12


 226:Generated_Source\PSoC5/cyfitter_cfg.c **** 	CY_SET_XTND_REG16((void CYFAR *)(CYREG_CLKDIST_DCFG1_CFG0), 0x0010u);
 299              		.loc 1 226 0
 300 0008 5022     		movs	r2, #80
 301 000a 0233     		adds	r3, r3, #2
 302 000c 1A70     		strb	r2, [r3]
 227:Generated_Source\PSoC5/cyfitter_cfg.c **** 	CY_SET_XTND_REG8((void CYFAR *)(CYREG_CLKDIST_DCFG1_CFG0 + 0x2u), 0x18u);
 303              		.loc 1 227 0
 304 000e 1022     		movs	r2, #16
 305 0010 0233     		adds	r3, r3, #2
 306 0012 1A80     		strh	r2, [r3]	@ movhi
 228:Generated_Source\PSoC5/cyfitter_cfg.c **** 	CY_SET_XTND_REG16((void CYFAR *)(CYREG_CLKDIST_DCFG2_CFG0), 0x0010u);
 307              		.loc 1 228 0
 308 0014 1823     		movs	r3, #24
 309 0016 3149     		ldr	r1, .L23+4
 310 0018 0B70     		strb	r3, [r1]
 229:Generated_Source\PSoC5/cyfitter_cfg.c **** 	CY_SET_XTND_REG8((void CYFAR *)(CYREG_CLKDIST_DCFG2_CFG0 + 0x2u), 0x18u);
 311              		.loc 1 229 0
 312 001a 0231     		adds	r1, r1, #2
 313 001c 0A80     		strh	r2, [r1]	@ movhi
 230:Generated_Source\PSoC5/cyfitter_cfg.c **** 	CY_SET_XTND_REG16((void CYFAR *)(CYREG_CLKDIST_DCFG3_CFG0), 0x018Fu);
 314              		.loc 1 230 0
 315 001e 304A     		ldr	r2, .L23+8
 316 0020 1370     		strb	r3, [r2]
 231:Generated_Source\PSoC5/cyfitter_cfg.c **** 	CY_SET_XTND_REG8((void CYFAR *)(CYREG_CLKDIST_DCFG3_CFG0 + 0x2u), 0x18u);
 317              		.loc 1 231 0
 318 0022 40F28F11 		movw	r1, #399
 319 0026 0232     		adds	r2, r2, #2
 320 0028 1180     		strh	r1, [r2]	@ movhi
 232:Generated_Source\PSoC5/cyfitter_cfg.c **** 
 321              		.loc 1 232 0
 322 002a 0232     		adds	r2, r2, #2
 323 002c 1370     		strb	r3, [r2]
 235:Generated_Source\PSoC5/cyfitter_cfg.c **** 
 324              		.loc 1 235 0
 325 002e 2D48     		ldr	r0, .L23+12
 326 0030 2D49     		ldr	r1, .L23+16
 327 0032 0422     		movs	r2, #4
 328 0034 FFF7FEFF 		bl	CYCONFIGCPY
 329              	.LVL23:
 238:Generated_Source\PSoC5/cyfitter_cfg.c **** 
 330              		.loc 1 238 0
 331 0038 0622     		movs	r2, #6
 332 003a 2C4B     		ldr	r3, .L23+20
 333 003c 1A70     		strb	r2, [r3]
 241:Generated_Source\PSoC5/cyfitter_cfg.c **** 	CY_SET_XTND_REG8((void CYFAR *)(CYREG_IMO_TR1), (CY_GET_XTND_REG8((void CYFAR *)CYREG_FLSHID_CUST_
 334              		.loc 1 241 0
 335 003e 5222     		movs	r2, #82
 336 0040 A3F58073 		sub	r3, r3, #256
 337 0044 1A70     		strb	r2, [r3]
 242:Generated_Source\PSoC5/cyfitter_cfg.c **** 
 338              		.loc 1 242 0
 339 0046 2A4B     		ldr	r3, .L23+24
 340 0048 1B78     		ldrb	r3, [r3]	@ zero_extendqisi2
 341 004a DBB2     		uxtb	r3, r3
 342 004c 294A     		ldr	r2, .L23+28
 343 004e 1370     		strb	r3, [r2]
 245:Generated_Source\PSoC5/cyfitter_cfg.c **** 	CY_SET_XTND_REG16((void CYFAR *)(CYREG_FASTCLK_PLL_CFG0), 0x1251u);
ARM GAS  C:\Users\Nelson\AppData\Local\Temp\ccJUGSN3.s 			page 13


 344              		.loc 1 245 0
 345 0050 4FF4E162 		mov	r2, #1800
 346 0054 284B     		ldr	r3, .L23+32
 347 0056 1A80     		strh	r2, [r3]	@ movhi
 246:Generated_Source\PSoC5/cyfitter_cfg.c **** 	/* Wait up to 250us for the PLL to lock */
 348              		.loc 1 246 0
 349 0058 41F25122 		movw	r2, #4689
 350 005c 023B     		subs	r3, r3, #2
 351 005e 1A80     		strh	r2, [r3]	@ movhi
 352              	.LVL24:
 249:Generated_Source\PSoC5/cyfitter_cfg.c **** 	{ 
 353              		.loc 1 249 0
 354 0060 1925     		movs	r5, #25
 355 0062 0CE0     		b	.L18
 356              	.LVL25:
 357              	.L20:
 251:Generated_Source\PSoC5/cyfitter_cfg.c **** 		CyDelayCycles(10u * 48u); /* Delay 10us based on 48MHz clock */
 358              		.loc 1 251 0 discriminator 4
 359 0064 254B     		ldr	r3, .L23+36
 360 0066 1B78     		ldrb	r3, [r3]	@ zero_extendqisi2
 361 0068 03F00103 		and	r3, r3, #1
 362 006c 43EA4404 		orr	r4, r3, r4, lsl #1
 363              	.LVL26:
 364 0070 04F00304 		and	r4, r4, #3
 365              	.LVL27:
 252:Generated_Source\PSoC5/cyfitter_cfg.c **** 	}
 366              		.loc 1 252 0 discriminator 4
 367 0074 4FF4F070 		mov	r0, #480
 368 0078 FFF7FEFF 		bl	CyDelayCycles
 369              	.LVL28:
 249:Generated_Source\PSoC5/cyfitter_cfg.c **** 	{ 
 370              		.loc 1 249 0 discriminator 4
 371 007c 013D     		subs	r5, r5, #1
 372              	.LVL29:
 373              	.L18:
 249:Generated_Source\PSoC5/cyfitter_cfg.c **** 	{ 
 374              		.loc 1 249 0 is_stmt 0 discriminator 1
 375 007e 0DB1     		cbz	r5, .L19
 249:Generated_Source\PSoC5/cyfitter_cfg.c **** 	{ 
 376              		.loc 1 249 0 discriminator 3
 377 0080 032C     		cmp	r4, #3
 378 0082 EFD1     		bne	.L20
 379              	.L19:
 255:Generated_Source\PSoC5/cyfitter_cfg.c **** 	{
 380              		.loc 1 255 0 is_stmt 1
 381 0084 15B9     		cbnz	r5, .L21
 257:Generated_Source\PSoC5/cyfitter_cfg.c **** 	}
 382              		.loc 1 257 0
 383 0086 0320     		movs	r0, #3
 384 0088 FFF7FEFF 		bl	CyClockStartupError
 385              	.LVL30:
 386              	.L21:
 261:Generated_Source\PSoC5/cyfitter_cfg.c **** 	CY_SET_XTND_REG8((void CYFAR *)(CYREG_CLKDIST_MSTR0), 0x07u);
 387              		.loc 1 261 0
 388 008c 1C4A     		ldr	r2, .L23+40
 389 008e 4FF48073 		mov	r3, #256
 390 0092 1380     		strh	r3, [r2]	@ movhi
ARM GAS  C:\Users\Nelson\AppData\Local\Temp\ccJUGSN3.s 			page 14


 262:Generated_Source\PSoC5/cyfitter_cfg.c **** 	CY_SET_XTND_REG8((void CYFAR *)(CYREG_CLKDIST_BCFG0), 0x00u);
 391              		.loc 1 262 0
 392 0094 0723     		movs	r3, #7
 393 0096 1370     		strb	r3, [r2]
 263:Generated_Source\PSoC5/cyfitter_cfg.c **** 	CY_SET_XTND_REG8((void CYFAR *)(CYREG_CLKDIST_BCFG2), 0x48u);
 394              		.loc 1 263 0
 395 0098 0023     		movs	r3, #0
 396 009a 1A49     		ldr	r1, .L23+44
 397 009c 0B70     		strb	r3, [r1]
 264:Generated_Source\PSoC5/cyfitter_cfg.c **** 	CY_SET_XTND_REG8((void CYFAR *)(CYREG_CLKDIST_MSTR0), 0x00u);
 398              		.loc 1 264 0
 399 009e 4820     		movs	r0, #72
 400 00a0 0231     		adds	r1, r1, #2
 401 00a2 0870     		strb	r0, [r1]
 265:Generated_Source\PSoC5/cyfitter_cfg.c **** 
 402              		.loc 1 265 0
 403 00a4 1370     		strb	r3, [r2]
 268:Generated_Source\PSoC5/cyfitter_cfg.c **** 	CY_SET_XTND_REG8((void CYFAR *)(CYREG_CLKDIST_LD), 0x02u);
 404              		.loc 1 268 0
 405 00a6 0532     		adds	r2, r2, #5
 406 00a8 1370     		strb	r3, [r2]
 269:Generated_Source\PSoC5/cyfitter_cfg.c **** 	CY_SET_XTND_REG8((void CYFAR *)(CYREG_CLKDIST_DLY1), 0x04u);
 407              		.loc 1 269 0
 408 00aa 0222     		movs	r2, #2
 409 00ac 164B     		ldr	r3, .L23+48
 410 00ae 1A70     		strb	r2, [r3]
 270:Generated_Source\PSoC5/cyfitter_cfg.c **** 
 411              		.loc 1 270 0
 412 00b0 0422     		movs	r2, #4
 413 00b2 0A33     		adds	r3, r3, #10
 414 00b4 1A70     		strb	r2, [r3]
 272:Generated_Source\PSoC5/cyfitter_cfg.c **** 	CY_SET_XTND_REG8((void CYFAR *)(CYREG_PM_ACT_CFG1), ((CY_GET_XTND_REG8((void CYFAR *)CYREG_PM_ACT_
 415              		.loc 1 272 0
 416 00b6 154A     		ldr	r2, .L23+52
 417 00b8 1378     		ldrb	r3, [r2]	@ zero_extendqisi2
 418 00ba 43F00F03 		orr	r3, r3, #15
 419 00be 1370     		strb	r3, [r2]
 273:Generated_Source\PSoC5/cyfitter_cfg.c **** 	CY_SET_XTND_REG8((void CYFAR *)(CYREG_PM_ACT_CFG0), ((CY_GET_XTND_REG8((void CYFAR *)CYREG_PM_ACT_
 420              		.loc 1 273 0
 421 00c0 013A     		subs	r2, r2, #1
 422 00c2 1378     		ldrb	r3, [r2]	@ zero_extendqisi2
 423 00c4 43F00103 		orr	r3, r3, #1
 424 00c8 1370     		strb	r3, [r2]
 274:Generated_Source\PSoC5/cyfitter_cfg.c **** }
 425              		.loc 1 274 0
 426 00ca 013A     		subs	r2, r2, #1
 427 00cc 1378     		ldrb	r3, [r2]	@ zero_extendqisi2
 428 00ce 43F08003 		orr	r3, r3, #128
 429 00d2 1370     		strb	r3, [r2]
 430 00d4 38BD     		pop	{r3, r4, r5, pc}
 431              	.LVL31:
 432              	.L24:
 433 00d6 00BF     		.align	2
 434              	.L23:
 435 00d8 80400040 		.word	1073758336
 436 00dc 86400040 		.word	1073758342
 437 00e0 8A400040 		.word	1073758346
ARM GAS  C:\Users\Nelson\AppData\Local\Temp\ccJUGSN3.s 			page 15


 438 00e4 00410040 		.word	1073758464
 439 00e8 84010048 		.word	1207959940
 440 00ec 00430040 		.word	1073758976
 441 00f0 0F010049 		.word	1224737039
 442 00f4 A1460040 		.word	1073759905
 443 00f8 22420040 		.word	1073758754
 444 00fc 25420040 		.word	1073758757
 445 0100 04400040 		.word	1073758212
 446 0104 06400040 		.word	1073758214
 447 0108 01400040 		.word	1073758209
 448 010c A2430040 		.word	1073759138
 449              		.cfi_endproc
 450              	.LFE5:
 451              		.size	ClockSetup, .-ClockSetup
 452              		.section	.text.SetAnalogRoutingPumps,"ax",%progbits
 453              		.align	2
 454              		.global	SetAnalogRoutingPumps
 455              		.thumb
 456              		.thumb_func
 457              		.type	SetAnalogRoutingPumps, %function
 458              	SetAnalogRoutingPumps:
 459              	.LFB7:
 321:Generated_Source\PSoC5/cyfitter_cfg.c **** }
 322:Generated_Source\PSoC5/cyfitter_cfg.c **** 
 323:Generated_Source\PSoC5/cyfitter_cfg.c **** 
 324:Generated_Source\PSoC5/cyfitter_cfg.c **** /*******************************************************************************
 325:Generated_Source\PSoC5/cyfitter_cfg.c **** * Function Name: SetAnalogRoutingPumps
 326:Generated_Source\PSoC5/cyfitter_cfg.c **** ********************************************************************************
 327:Generated_Source\PSoC5/cyfitter_cfg.c **** *
 328:Generated_Source\PSoC5/cyfitter_cfg.c **** * Summary:
 329:Generated_Source\PSoC5/cyfitter_cfg.c **** * Enables or disables the analog pumps feeding analog routing switches.
 330:Generated_Source\PSoC5/cyfitter_cfg.c **** * Intended to be called at startup, based on the Vdda system configuration;
 331:Generated_Source\PSoC5/cyfitter_cfg.c **** * may be called during operation when the user informs us that the Vdda voltage
 332:Generated_Source\PSoC5/cyfitter_cfg.c **** * crossed the pump threshold.
 333:Generated_Source\PSoC5/cyfitter_cfg.c **** *
 334:Generated_Source\PSoC5/cyfitter_cfg.c **** * Parameters:
 335:Generated_Source\PSoC5/cyfitter_cfg.c **** *  enabled - 1 to enable the pumps, 0 to disable the pumps
 336:Generated_Source\PSoC5/cyfitter_cfg.c **** *
 337:Generated_Source\PSoC5/cyfitter_cfg.c **** * Return:
 338:Generated_Source\PSoC5/cyfitter_cfg.c **** *  void
 339:Generated_Source\PSoC5/cyfitter_cfg.c **** *
 340:Generated_Source\PSoC5/cyfitter_cfg.c **** *******************************************************************************/
 341:Generated_Source\PSoC5/cyfitter_cfg.c **** void SetAnalogRoutingPumps(uint8 enabled)
 342:Generated_Source\PSoC5/cyfitter_cfg.c **** {
 460              		.loc 1 342 0
 461              		.cfi_startproc
 462              		@ args = 0, pretend = 0, frame = 0
 463              		@ frame_needed = 0, uses_anonymous_args = 0
 464              		@ link register save eliminated.
 465              	.LVL32:
 343:Generated_Source\PSoC5/cyfitter_cfg.c **** 	uint8 regValue = CY_GET_XTND_REG8((void CYFAR *)CYREG_PUMP_CR0);
 466              		.loc 1 343 0
 467 0000 054B     		ldr	r3, .L28
 468 0002 1B78     		ldrb	r3, [r3]	@ zero_extendqisi2
 469 0004 DBB2     		uxtb	r3, r3
 470              	.LVL33:
 344:Generated_Source\PSoC5/cyfitter_cfg.c **** 	if (enabled != 0u)
ARM GAS  C:\Users\Nelson\AppData\Local\Temp\ccJUGSN3.s 			page 16


 471              		.loc 1 344 0
 472 0006 10B1     		cbz	r0, .L26
 345:Generated_Source\PSoC5/cyfitter_cfg.c **** 	{
 346:Generated_Source\PSoC5/cyfitter_cfg.c **** 		regValue |= 0x22u;
 473              		.loc 1 346 0
 474 0008 43F02203 		orr	r3, r3, #34
 475              	.LVL34:
 476 000c 01E0     		b	.L27
 477              	.L26:
 347:Generated_Source\PSoC5/cyfitter_cfg.c **** 	}
 348:Generated_Source\PSoC5/cyfitter_cfg.c **** 	else
 349:Generated_Source\PSoC5/cyfitter_cfg.c **** 	{
 350:Generated_Source\PSoC5/cyfitter_cfg.c **** 		regValue &= (uint8)~0x22u;
 478              		.loc 1 350 0
 479 000e 03F0DD03 		and	r3, r3, #221
 480              	.LVL35:
 481              	.L27:
 351:Generated_Source\PSoC5/cyfitter_cfg.c **** 	}
 352:Generated_Source\PSoC5/cyfitter_cfg.c **** 	CY_SET_XTND_REG8((void CYFAR *)CYREG_PUMP_CR0, regValue);
 482              		.loc 1 352 0
 483 0012 014A     		ldr	r2, .L28
 484 0014 1370     		strb	r3, [r2]
 485 0016 7047     		bx	lr
 486              	.L29:
 487              		.align	2
 488              	.L28:
 489 0018 76580040 		.word	1073764470
 490              		.cfi_endproc
 491              	.LFE7:
 492              		.size	SetAnalogRoutingPumps, .-SetAnalogRoutingPumps
 493              		.section	.text.ADC_DelSig_AMux_Set,"ax",%progbits
 494              		.align	2
 495              		.global	ADC_DelSig_AMux_Set
 496              		.thumb
 497              		.thumb_func
 498              		.type	ADC_DelSig_AMux_Set, %function
 499              	ADC_DelSig_AMux_Set:
 500              	.LFB8:
 353:Generated_Source\PSoC5/cyfitter_cfg.c **** }
 354:Generated_Source\PSoC5/cyfitter_cfg.c **** 
 355:Generated_Source\PSoC5/cyfitter_cfg.c **** #define CY_AMUX_UNUSED CYREG_BOOST_SR
 356:Generated_Source\PSoC5/cyfitter_cfg.c **** /* This is an implementation detail of the AMux. Code that depends on it may be
 357:Generated_Source\PSoC5/cyfitter_cfg.c ****    incompatible with other versions of PSoC Creator. */
 358:Generated_Source\PSoC5/cyfitter_cfg.c **** uint8 CYXDATA * const CYCODE ADC_DelSig_AMux__addrTable[2] = {
 359:Generated_Source\PSoC5/cyfitter_cfg.c **** 	(uint8 CYXDATA *)CYREG_DSM0_SW3, 
 360:Generated_Source\PSoC5/cyfitter_cfg.c **** 	(uint8 CYXDATA *)CY_AMUX_UNUSED, 
 361:Generated_Source\PSoC5/cyfitter_cfg.c **** };
 362:Generated_Source\PSoC5/cyfitter_cfg.c **** 
 363:Generated_Source\PSoC5/cyfitter_cfg.c **** /* This is an implementation detail of the AMux. Code that depends on it may be
 364:Generated_Source\PSoC5/cyfitter_cfg.c ****    incompatible with other versions of PSoC Creator. */
 365:Generated_Source\PSoC5/cyfitter_cfg.c **** const uint8 CYCODE ADC_DelSig_AMux__maskTable[2] = {
 366:Generated_Source\PSoC5/cyfitter_cfg.c **** 	0x40u, 
 367:Generated_Source\PSoC5/cyfitter_cfg.c **** 	0x00u, 
 368:Generated_Source\PSoC5/cyfitter_cfg.c **** };
 369:Generated_Source\PSoC5/cyfitter_cfg.c **** 
 370:Generated_Source\PSoC5/cyfitter_cfg.c **** /*******************************************************************************
 371:Generated_Source\PSoC5/cyfitter_cfg.c **** * Function Name: ADC_DelSig_AMux_Set
ARM GAS  C:\Users\Nelson\AppData\Local\Temp\ccJUGSN3.s 			page 17


 372:Generated_Source\PSoC5/cyfitter_cfg.c **** ********************************************************************************
 373:Generated_Source\PSoC5/cyfitter_cfg.c **** * Summary:
 374:Generated_Source\PSoC5/cyfitter_cfg.c **** *  This function is used to set a particular channel as active on the AMux.
 375:Generated_Source\PSoC5/cyfitter_cfg.c **** *
 376:Generated_Source\PSoC5/cyfitter_cfg.c **** * Parameters:  
 377:Generated_Source\PSoC5/cyfitter_cfg.c **** *   channel - The mux channel input to set as active
 378:Generated_Source\PSoC5/cyfitter_cfg.c **** *
 379:Generated_Source\PSoC5/cyfitter_cfg.c **** * Return:
 380:Generated_Source\PSoC5/cyfitter_cfg.c **** *   void
 381:Generated_Source\PSoC5/cyfitter_cfg.c **** *
 382:Generated_Source\PSoC5/cyfitter_cfg.c **** *******************************************************************************/
 383:Generated_Source\PSoC5/cyfitter_cfg.c **** void ADC_DelSig_AMux_Set(uint8 channel)
 384:Generated_Source\PSoC5/cyfitter_cfg.c **** {
 501              		.loc 1 384 0
 502              		.cfi_startproc
 503              		@ args = 0, pretend = 0, frame = 0
 504              		@ frame_needed = 0, uses_anonymous_args = 0
 505              		@ link register save eliminated.
 506              	.LVL36:
 385:Generated_Source\PSoC5/cyfitter_cfg.c **** 	if (channel < 2)
 507              		.loc 1 385 0
 508 0000 0128     		cmp	r0, #1
 509 0002 07D8     		bhi	.L30
 386:Generated_Source\PSoC5/cyfitter_cfg.c **** 	{
 387:Generated_Source\PSoC5/cyfitter_cfg.c **** 		*ADC_DelSig_AMux__addrTable[channel] |= ADC_DelSig_AMux__maskTable[channel];
 510              		.loc 1 387 0
 511 0004 044B     		ldr	r3, .L32
 512 0006 53F82020 		ldr	r2, [r3, r0, lsl #2]
 513 000a 1844     		add	r0, r0, r3
 514              	.LVL37:
 515 000c 017A     		ldrb	r1, [r0, #8]	@ zero_extendqisi2
 516 000e 1378     		ldrb	r3, [r2]	@ zero_extendqisi2
 517 0010 0B43     		orrs	r3, r3, r1
 518 0012 1370     		strb	r3, [r2]
 519              	.L30:
 520 0014 7047     		bx	lr
 521              	.L33:
 522 0016 00BF     		.align	2
 523              	.L32:
 524 0018 00000000 		.word	.LANCHOR0
 525              		.cfi_endproc
 526              	.LFE8:
 527              		.size	ADC_DelSig_AMux_Set, .-ADC_DelSig_AMux_Set
 528              		.section	.text.ADC_DelSig_AMux_Unset,"ax",%progbits
 529              		.align	2
 530              		.global	ADC_DelSig_AMux_Unset
 531              		.thumb
 532              		.thumb_func
 533              		.type	ADC_DelSig_AMux_Unset, %function
 534              	ADC_DelSig_AMux_Unset:
 535              	.LFB9:
 388:Generated_Source\PSoC5/cyfitter_cfg.c **** 	}
 389:Generated_Source\PSoC5/cyfitter_cfg.c **** }
 390:Generated_Source\PSoC5/cyfitter_cfg.c **** 
 391:Generated_Source\PSoC5/cyfitter_cfg.c **** /*******************************************************************************
 392:Generated_Source\PSoC5/cyfitter_cfg.c **** * Function Name: ADC_DelSig_AMux_Unset
 393:Generated_Source\PSoC5/cyfitter_cfg.c **** ********************************************************************************
ARM GAS  C:\Users\Nelson\AppData\Local\Temp\ccJUGSN3.s 			page 18


 394:Generated_Source\PSoC5/cyfitter_cfg.c **** * Summary:
 395:Generated_Source\PSoC5/cyfitter_cfg.c **** *  This function is used to clear a particular channel from being active on the
 396:Generated_Source\PSoC5/cyfitter_cfg.c **** *  AMux.
 397:Generated_Source\PSoC5/cyfitter_cfg.c **** *
 398:Generated_Source\PSoC5/cyfitter_cfg.c **** * Parameters:  
 399:Generated_Source\PSoC5/cyfitter_cfg.c **** *   channel - The mux channel input to mark inactive
 400:Generated_Source\PSoC5/cyfitter_cfg.c **** *
 401:Generated_Source\PSoC5/cyfitter_cfg.c **** * Return:
 402:Generated_Source\PSoC5/cyfitter_cfg.c **** *   void
 403:Generated_Source\PSoC5/cyfitter_cfg.c **** *
 404:Generated_Source\PSoC5/cyfitter_cfg.c **** *******************************************************************************/
 405:Generated_Source\PSoC5/cyfitter_cfg.c **** void ADC_DelSig_AMux_Unset(uint8 channel)
 406:Generated_Source\PSoC5/cyfitter_cfg.c **** {
 536              		.loc 1 406 0
 537              		.cfi_startproc
 538              		@ args = 0, pretend = 0, frame = 0
 539              		@ frame_needed = 0, uses_anonymous_args = 0
 540              		@ link register save eliminated.
 541              	.LVL38:
 407:Generated_Source\PSoC5/cyfitter_cfg.c **** 	if (channel < 2)
 542              		.loc 1 407 0
 543 0000 0128     		cmp	r0, #1
 544 0002 08D8     		bhi	.L34
 408:Generated_Source\PSoC5/cyfitter_cfg.c **** 	{
 409:Generated_Source\PSoC5/cyfitter_cfg.c **** 		*ADC_DelSig_AMux__addrTable[channel] &= (uint8)~ADC_DelSig_AMux__maskTable[channel];
 545              		.loc 1 409 0
 546 0004 044B     		ldr	r3, .L36
 547 0006 53F82020 		ldr	r2, [r3, r0, lsl #2]
 548 000a 1844     		add	r0, r0, r3
 549              	.LVL39:
 550 000c 017A     		ldrb	r1, [r0, #8]	@ zero_extendqisi2
 551 000e 1378     		ldrb	r3, [r2]	@ zero_extendqisi2
 552 0010 23EA0103 		bic	r3, r3, r1
 553 0014 1370     		strb	r3, [r2]
 554              	.L34:
 555 0016 7047     		bx	lr
 556              	.L37:
 557              		.align	2
 558              	.L36:
 559 0018 00000000 		.word	.LANCHOR0
 560              		.cfi_endproc
 561              	.LFE9:
 562              		.size	ADC_DelSig_AMux_Unset, .-ADC_DelSig_AMux_Unset
 563              		.section	.text.potSelect_Set,"ax",%progbits
 564              		.align	2
 565              		.global	potSelect_Set
 566              		.thumb
 567              		.thumb_func
 568              		.type	potSelect_Set, %function
 569              	potSelect_Set:
 570              	.LFB10:
 410:Generated_Source\PSoC5/cyfitter_cfg.c **** 	}
 411:Generated_Source\PSoC5/cyfitter_cfg.c **** }
 412:Generated_Source\PSoC5/cyfitter_cfg.c **** 
 413:Generated_Source\PSoC5/cyfitter_cfg.c **** /* This is an implementation detail of the AMux. Code that depends on it may be
 414:Generated_Source\PSoC5/cyfitter_cfg.c ****    incompatible with other versions of PSoC Creator. */
 415:Generated_Source\PSoC5/cyfitter_cfg.c **** uint8 CYXDATA * const CYCODE potSelect__addrTable[4] = {
ARM GAS  C:\Users\Nelson\AppData\Local\Temp\ccJUGSN3.s 			page 19


 416:Generated_Source\PSoC5/cyfitter_cfg.c **** 	(uint8 CYXDATA *)CYREG_PRT2_AG, (uint8 CYXDATA *)CYREG_DSM0_SW0, 
 417:Generated_Source\PSoC5/cyfitter_cfg.c **** 	(uint8 CYXDATA *)CYREG_PRT2_AG, (uint8 CYXDATA *)CYREG_DSM0_SW0, 
 418:Generated_Source\PSoC5/cyfitter_cfg.c **** };
 419:Generated_Source\PSoC5/cyfitter_cfg.c **** 
 420:Generated_Source\PSoC5/cyfitter_cfg.c **** /* This is an implementation detail of the AMux. Code that depends on it may be
 421:Generated_Source\PSoC5/cyfitter_cfg.c ****    incompatible with other versions of PSoC Creator. */
 422:Generated_Source\PSoC5/cyfitter_cfg.c **** const uint8 CYCODE potSelect__maskTable[4] = {
 423:Generated_Source\PSoC5/cyfitter_cfg.c **** 	0x08u, 0x08u, 
 424:Generated_Source\PSoC5/cyfitter_cfg.c **** 	0x40u, 0x04u, 
 425:Generated_Source\PSoC5/cyfitter_cfg.c **** };
 426:Generated_Source\PSoC5/cyfitter_cfg.c **** 
 427:Generated_Source\PSoC5/cyfitter_cfg.c **** /*******************************************************************************
 428:Generated_Source\PSoC5/cyfitter_cfg.c **** * Function Name: potSelect_Set
 429:Generated_Source\PSoC5/cyfitter_cfg.c **** ********************************************************************************
 430:Generated_Source\PSoC5/cyfitter_cfg.c **** * Summary:
 431:Generated_Source\PSoC5/cyfitter_cfg.c **** *  This function is used to set a particular channel as active on the AMux.
 432:Generated_Source\PSoC5/cyfitter_cfg.c **** *
 433:Generated_Source\PSoC5/cyfitter_cfg.c **** * Parameters:  
 434:Generated_Source\PSoC5/cyfitter_cfg.c **** *   channel - The mux channel input to set as active
 435:Generated_Source\PSoC5/cyfitter_cfg.c **** *
 436:Generated_Source\PSoC5/cyfitter_cfg.c **** * Return:
 437:Generated_Source\PSoC5/cyfitter_cfg.c **** *   void
 438:Generated_Source\PSoC5/cyfitter_cfg.c **** *
 439:Generated_Source\PSoC5/cyfitter_cfg.c **** *******************************************************************************/
 440:Generated_Source\PSoC5/cyfitter_cfg.c **** void potSelect_Set(uint8 channel)
 441:Generated_Source\PSoC5/cyfitter_cfg.c **** {
 571              		.loc 1 441 0
 572              		.cfi_startproc
 573              		@ args = 0, pretend = 0, frame = 0
 574              		@ frame_needed = 0, uses_anonymous_args = 0
 575              		@ link register save eliminated.
 442:Generated_Source\PSoC5/cyfitter_cfg.c **** 	if (channel < 2)
 576              		.loc 1 442 0
 577 0000 0128     		cmp	r0, #1
 578 0002 17D8     		bhi	.L42
 441:Generated_Source\PSoC5/cyfitter_cfg.c **** 	if (channel < 2)
 579              		.loc 1 441 0
 580 0004 10B4     		push	{r4}
 581              		.cfi_def_cfa_offset 4
 582              		.cfi_offset 4, -4
 443:Generated_Source\PSoC5/cyfitter_cfg.c **** 	{
 444:Generated_Source\PSoC5/cyfitter_cfg.c **** 		channel += channel;
 583              		.loc 1 444 0
 584 0006 4000     		lsls	r0, r0, #1
 585 0008 C0B2     		uxtb	r0, r0
 445:Generated_Source\PSoC5/cyfitter_cfg.c **** 		*potSelect__addrTable[channel] |= potSelect__maskTable[channel];
 586              		.loc 1 445 0
 587 000a 0B4B     		ldr	r3, .L43
 588 000c 03EB8002 		add	r2, r3, r0, lsl #2
 589 0010 D168     		ldr	r1, [r2, #12]
 590 0012 1A18     		adds	r2, r3, r0
 591 0014 147F     		ldrb	r4, [r2, #28]	@ zero_extendqisi2
 592 0016 0A78     		ldrb	r2, [r1]	@ zero_extendqisi2
 593 0018 2243     		orrs	r2, r2, r4
 594 001a 0A70     		strb	r2, [r1]
 446:Generated_Source\PSoC5/cyfitter_cfg.c **** 		channel++;
 595              		.loc 1 446 0
ARM GAS  C:\Users\Nelson\AppData\Local\Temp\ccJUGSN3.s 			page 20


 596 001c 0130     		adds	r0, r0, #1
 597 001e C0B2     		uxtb	r0, r0
 447:Generated_Source\PSoC5/cyfitter_cfg.c **** 		*potSelect__addrTable[channel] |= potSelect__maskTable[channel];
 598              		.loc 1 447 0
 599 0020 03EB8002 		add	r2, r3, r0, lsl #2
 600 0024 D268     		ldr	r2, [r2, #12]
 601 0026 1844     		add	r0, r0, r3
 602 0028 017F     		ldrb	r1, [r0, #28]	@ zero_extendqisi2
 603 002a 1378     		ldrb	r3, [r2]	@ zero_extendqisi2
 604 002c 0B43     		orrs	r3, r3, r1
 605 002e 1370     		strb	r3, [r2]
 448:Generated_Source\PSoC5/cyfitter_cfg.c **** 	}
 449:Generated_Source\PSoC5/cyfitter_cfg.c **** }
 606              		.loc 1 449 0
 607 0030 5DF8044B 		ldr	r4, [sp], #4
 608              		.cfi_restore 4
 609              		.cfi_def_cfa_offset 0
 610              	.L42:
 611 0034 7047     		bx	lr
 612              	.L44:
 613 0036 00BF     		.align	2
 614              	.L43:
 615 0038 00000000 		.word	.LANCHOR0
 616              		.cfi_endproc
 617              	.LFE10:
 618              		.size	potSelect_Set, .-potSelect_Set
 619              		.section	.text.potSelect_Unset,"ax",%progbits
 620              		.align	2
 621              		.global	potSelect_Unset
 622              		.thumb
 623              		.thumb_func
 624              		.type	potSelect_Unset, %function
 625              	potSelect_Unset:
 626              	.LFB11:
 450:Generated_Source\PSoC5/cyfitter_cfg.c **** 
 451:Generated_Source\PSoC5/cyfitter_cfg.c **** /*******************************************************************************
 452:Generated_Source\PSoC5/cyfitter_cfg.c **** * Function Name: potSelect_Unset
 453:Generated_Source\PSoC5/cyfitter_cfg.c **** ********************************************************************************
 454:Generated_Source\PSoC5/cyfitter_cfg.c **** * Summary:
 455:Generated_Source\PSoC5/cyfitter_cfg.c **** *  This function is used to clear a particular channel from being active on the
 456:Generated_Source\PSoC5/cyfitter_cfg.c **** *  AMux.
 457:Generated_Source\PSoC5/cyfitter_cfg.c **** *
 458:Generated_Source\PSoC5/cyfitter_cfg.c **** * Parameters:  
 459:Generated_Source\PSoC5/cyfitter_cfg.c **** *   channel - The mux channel input to mark inactive
 460:Generated_Source\PSoC5/cyfitter_cfg.c **** *
 461:Generated_Source\PSoC5/cyfitter_cfg.c **** * Return:
 462:Generated_Source\PSoC5/cyfitter_cfg.c **** *   void
 463:Generated_Source\PSoC5/cyfitter_cfg.c **** *
 464:Generated_Source\PSoC5/cyfitter_cfg.c **** *******************************************************************************/
 465:Generated_Source\PSoC5/cyfitter_cfg.c **** void potSelect_Unset(uint8 channel)
 466:Generated_Source\PSoC5/cyfitter_cfg.c **** {
 627              		.loc 1 466 0
 628              		.cfi_startproc
 629              		@ args = 0, pretend = 0, frame = 0
 630              		@ frame_needed = 0, uses_anonymous_args = 0
 631              		@ link register save eliminated.
 467:Generated_Source\PSoC5/cyfitter_cfg.c **** 	if (channel < 2)
ARM GAS  C:\Users\Nelson\AppData\Local\Temp\ccJUGSN3.s 			page 21


 632              		.loc 1 467 0
 633 0000 0128     		cmp	r0, #1
 634 0002 19D8     		bhi	.L49
 466:Generated_Source\PSoC5/cyfitter_cfg.c **** 	if (channel < 2)
 635              		.loc 1 466 0
 636 0004 10B4     		push	{r4}
 637              		.cfi_def_cfa_offset 4
 638              		.cfi_offset 4, -4
 468:Generated_Source\PSoC5/cyfitter_cfg.c **** 	{
 469:Generated_Source\PSoC5/cyfitter_cfg.c **** 		channel += channel;
 639              		.loc 1 469 0
 640 0006 4000     		lsls	r0, r0, #1
 641 0008 C0B2     		uxtb	r0, r0
 470:Generated_Source\PSoC5/cyfitter_cfg.c **** 		*potSelect__addrTable[channel] &= (uint8)~potSelect__maskTable[channel];
 642              		.loc 1 470 0
 643 000a 0C4B     		ldr	r3, .L50
 644 000c 03EB8002 		add	r2, r3, r0, lsl #2
 645 0010 D168     		ldr	r1, [r2, #12]
 646 0012 1A18     		adds	r2, r3, r0
 647 0014 147F     		ldrb	r4, [r2, #28]	@ zero_extendqisi2
 648 0016 0A78     		ldrb	r2, [r1]	@ zero_extendqisi2
 649 0018 22EA0402 		bic	r2, r2, r4
 650 001c 0A70     		strb	r2, [r1]
 471:Generated_Source\PSoC5/cyfitter_cfg.c **** 		channel++;
 651              		.loc 1 471 0
 652 001e 0130     		adds	r0, r0, #1
 653 0020 C0B2     		uxtb	r0, r0
 472:Generated_Source\PSoC5/cyfitter_cfg.c **** 		*potSelect__addrTable[channel] &= (uint8)~potSelect__maskTable[channel];
 654              		.loc 1 472 0
 655 0022 03EB8002 		add	r2, r3, r0, lsl #2
 656 0026 D268     		ldr	r2, [r2, #12]
 657 0028 1844     		add	r0, r0, r3
 658 002a 017F     		ldrb	r1, [r0, #28]	@ zero_extendqisi2
 659 002c 1378     		ldrb	r3, [r2]	@ zero_extendqisi2
 660 002e 23EA0103 		bic	r3, r3, r1
 661 0032 1370     		strb	r3, [r2]
 473:Generated_Source\PSoC5/cyfitter_cfg.c **** 	}
 474:Generated_Source\PSoC5/cyfitter_cfg.c **** }
 662              		.loc 1 474 0
 663 0034 5DF8044B 		ldr	r4, [sp], #4
 664              		.cfi_restore 4
 665              		.cfi_def_cfa_offset 0
 666              	.L49:
 667 0038 7047     		bx	lr
 668              	.L51:
 669 003a 00BF     		.align	2
 670              	.L50:
 671 003c 00000000 		.word	.LANCHOR0
 672              		.cfi_endproc
 673              	.LFE11:
 674              		.size	potSelect_Unset, .-potSelect_Unset
 675              		.section	.text.cyfitter_cfg,"ax",%progbits
 676              		.align	2
 677              		.global	cyfitter_cfg
 678              		.thumb
 679              		.thumb_func
 680              		.type	cyfitter_cfg, %function
ARM GAS  C:\Users\Nelson\AppData\Local\Temp\ccJUGSN3.s 			page 22


 681              	cyfitter_cfg:
 682              	.LFB12:
 475:Generated_Source\PSoC5/cyfitter_cfg.c **** 
 476:Generated_Source\PSoC5/cyfitter_cfg.c **** 
 477:Generated_Source\PSoC5/cyfitter_cfg.c **** 
 478:Generated_Source\PSoC5/cyfitter_cfg.c **** /*******************************************************************************
 479:Generated_Source\PSoC5/cyfitter_cfg.c **** * Function Name: cyfitter_cfg
 480:Generated_Source\PSoC5/cyfitter_cfg.c **** ********************************************************************************
 481:Generated_Source\PSoC5/cyfitter_cfg.c **** * Summary:
 482:Generated_Source\PSoC5/cyfitter_cfg.c **** *  This function is called by the start-up code for the selected device. It
 483:Generated_Source\PSoC5/cyfitter_cfg.c **** *  performs all of the necessary device configuration based on the design
 484:Generated_Source\PSoC5/cyfitter_cfg.c **** *  settings.  This includes settings from the Design Wide Resources (DWR) such
 485:Generated_Source\PSoC5/cyfitter_cfg.c **** *  as Clocks and Pins as well as any component configuration that is necessary.
 486:Generated_Source\PSoC5/cyfitter_cfg.c **** *
 487:Generated_Source\PSoC5/cyfitter_cfg.c **** * Parameters:  
 488:Generated_Source\PSoC5/cyfitter_cfg.c **** *   void
 489:Generated_Source\PSoC5/cyfitter_cfg.c **** *
 490:Generated_Source\PSoC5/cyfitter_cfg.c **** * Return:
 491:Generated_Source\PSoC5/cyfitter_cfg.c **** *   void
 492:Generated_Source\PSoC5/cyfitter_cfg.c **** *
 493:Generated_Source\PSoC5/cyfitter_cfg.c **** *******************************************************************************/
 494:Generated_Source\PSoC5/cyfitter_cfg.c **** 
 495:Generated_Source\PSoC5/cyfitter_cfg.c **** void cyfitter_cfg(void)
 496:Generated_Source\PSoC5/cyfitter_cfg.c **** {
 683              		.loc 1 496 0
 684              		.cfi_startproc
 685              		@ args = 0, pretend = 0, frame = 0
 686              		@ frame_needed = 0, uses_anonymous_args = 0
 687 0000 38B5     		push	{r3, r4, r5, lr}
 688              		.cfi_def_cfa_offset 16
 689              		.cfi_offset 3, -16
 690              		.cfi_offset 4, -12
 691              		.cfi_offset 5, -8
 692              		.cfi_offset 14, -4
 497:Generated_Source\PSoC5/cyfitter_cfg.c **** #ifdef CYGlobalIntDisable
 498:Generated_Source\PSoC5/cyfitter_cfg.c **** 	/* Disable interrupts by default. Let user enable if/when they want. */
 499:Generated_Source\PSoC5/cyfitter_cfg.c **** 	CYGlobalIntDisable
 693              		.loc 1 499 0
 694              	@ 499 "Generated_Source\PSoC5\cyfitter_cfg.c" 1
 695 0002 72B6     		CPSID   i
 696              	@ 0 "" 2
 500:Generated_Source\PSoC5/cyfitter_cfg.c **** #endif
 501:Generated_Source\PSoC5/cyfitter_cfg.c **** 
 502:Generated_Source\PSoC5/cyfitter_cfg.c **** 	/* Enable/Disable Debug functionality based on settings from System DWR */
 503:Generated_Source\PSoC5/cyfitter_cfg.c **** 	CY_SET_XTND_REG8((void CYFAR *)CYREG_MLOGIC_DEBUG, (CY_GET_XTND_REG8((void CYFAR *)CYREG_MLOGIC_DE
 697              		.loc 1 503 0
 698              		.thumb
 699 0004 334A     		ldr	r2, .L56
 700 0006 1378     		ldrb	r3, [r2]	@ zero_extendqisi2
 701 0008 43F00403 		orr	r3, r3, #4
 702 000c 1370     		strb	r3, [r2]
 703              	.LVL40:
 704              	.LBB3:
 504:Generated_Source\PSoC5/cyfitter_cfg.c **** 
 505:Generated_Source\PSoC5/cyfitter_cfg.c **** 	{
 506:Generated_Source\PSoC5/cyfitter_cfg.c **** 
 507:Generated_Source\PSoC5/cyfitter_cfg.c **** 		CYPACKED typedef struct {
ARM GAS  C:\Users\Nelson\AppData\Local\Temp\ccJUGSN3.s 			page 23


 508:Generated_Source\PSoC5/cyfitter_cfg.c **** 			void CYFAR *address;
 509:Generated_Source\PSoC5/cyfitter_cfg.c **** 			uint16 size;
 510:Generated_Source\PSoC5/cyfitter_cfg.c **** 		} CYPACKED_ATTR cfg_memset_t;
 511:Generated_Source\PSoC5/cyfitter_cfg.c **** 
 512:Generated_Source\PSoC5/cyfitter_cfg.c **** 		static const cfg_memset_t CYCODE cfg_memset_list [] = {
 513:Generated_Source\PSoC5/cyfitter_cfg.c **** 			/* address, size */
 514:Generated_Source\PSoC5/cyfitter_cfg.c **** 			{(void CYFAR *)(CYREG_PRT4_DR), 48u},
 515:Generated_Source\PSoC5/cyfitter_cfg.c **** 			{(void CYFAR *)(CYREG_PRT12_DR), 16u},
 516:Generated_Source\PSoC5/cyfitter_cfg.c **** 			{(void CYFAR *)(CYDEV_UCFG_B0_P0_U0_BASE), 4096u},
 517:Generated_Source\PSoC5/cyfitter_cfg.c **** 			{(void CYFAR *)(CYDEV_UCFG_B1_P2_U0_BASE), 2048u},
 518:Generated_Source\PSoC5/cyfitter_cfg.c **** 			{(void CYFAR *)(CYDEV_UCFG_DSI0_BASE), 2560u},
 519:Generated_Source\PSoC5/cyfitter_cfg.c **** 			{(void CYFAR *)(CYDEV_UCFG_DSI12_BASE), 512u},
 520:Generated_Source\PSoC5/cyfitter_cfg.c **** 			{(void CYFAR *)(CYREG_BCTL0_MDCLK_EN), 32u},
 521:Generated_Source\PSoC5/cyfitter_cfg.c **** 		};
 522:Generated_Source\PSoC5/cyfitter_cfg.c **** 
 523:Generated_Source\PSoC5/cyfitter_cfg.c **** 		uint8 CYDATA i;
 524:Generated_Source\PSoC5/cyfitter_cfg.c **** 
 525:Generated_Source\PSoC5/cyfitter_cfg.c **** 		/* Zero out critical memory blocks before beginning configuration */
 526:Generated_Source\PSoC5/cyfitter_cfg.c **** 		for (i = 0u; i < (sizeof(cfg_memset_list)/sizeof(cfg_memset_list[0])); i++)
 705              		.loc 1 526 0
 706 000e 0024     		movs	r4, #0
 707 0010 0AE0     		b	.L53
 708              	.LVL41:
 709              	.L54:
 710              	.LBB4:
 527:Generated_Source\PSoC5/cyfitter_cfg.c **** 		{
 528:Generated_Source\PSoC5/cyfitter_cfg.c **** 			const cfg_memset_t CYCODE * CYDATA ms = &cfg_memset_list[i];
 529:Generated_Source\PSoC5/cyfitter_cfg.c **** 			CYMEMZERO(ms->address, (size_t)(uint32)(ms->size));
 711              		.loc 1 529 0 discriminator 3
 712 0012 3149     		ldr	r1, .L56+4
 713 0014 6300     		lsls	r3, r4, #1
 714 0016 1A19     		adds	r2, r3, r4
 715 0018 5200     		lsls	r2, r2, #1
 716 001a 0A44     		add	r2, r2, r1
 717 001c 106A     		ldr	r0, [r2, #32]	@ unaligned
 718 001e 918C     		ldrh	r1, [r2, #36]
 719 0020 FFF7FEFF 		bl	CYMEMZERO
 720              	.LVL42:
 721              	.LBE4:
 526:Generated_Source\PSoC5/cyfitter_cfg.c **** 		{
 722              		.loc 1 526 0 discriminator 3
 723 0024 0134     		adds	r4, r4, #1
 724              	.LVL43:
 725 0026 E4B2     		uxtb	r4, r4
 726              	.LVL44:
 727              	.L53:
 526:Generated_Source\PSoC5/cyfitter_cfg.c **** 		{
 728              		.loc 1 526 0 is_stmt 0 discriminator 1
 729 0028 062C     		cmp	r4, #6
 730 002a F2D9     		bls	.L54
 530:Generated_Source\PSoC5/cyfitter_cfg.c **** 		}
 531:Generated_Source\PSoC5/cyfitter_cfg.c **** 
 532:Generated_Source\PSoC5/cyfitter_cfg.c **** 		cfg_write_bytes32(cy_cfg_addr_table, cy_cfg_data_table);
 731              		.loc 1 532 0 is_stmt 1
 732 002c 4FF09040 		mov	r0, #1207959552
 733 0030 2A49     		ldr	r1, .L56+8
 734 0032 FFF7FEFF 		bl	cfg_write_bytes32
ARM GAS  C:\Users\Nelson\AppData\Local\Temp\ccJUGSN3.s 			page 24


 735              	.LVL45:
 533:Generated_Source\PSoC5/cyfitter_cfg.c **** 
 534:Generated_Source\PSoC5/cyfitter_cfg.c **** 		/* Perform normal device configuration. Order is not critical for these items. */
 535:Generated_Source\PSoC5/cyfitter_cfg.c **** 		CY_SET_XTND_REG8((void CYFAR *)(CYREG_DSM0_CR3), 0x0Au);
 736              		.loc 1 535 0
 737 0036 0A25     		movs	r5, #10
 738 0038 294B     		ldr	r3, .L56+12
 739 003a 1D70     		strb	r5, [r3]
 536:Generated_Source\PSoC5/cyfitter_cfg.c **** 		CYMEMZERO((void CYFAR *)(CYREG_PHUB_CFGMEM0_CFG0), 4u);
 740              		.loc 1 536 0
 741 003c 2948     		ldr	r0, .L56+16
 742 003e 0421     		movs	r1, #4
 743 0040 FFF7FEFF 		bl	CYMEMZERO
 744              	.LVL46:
 537:Generated_Source\PSoC5/cyfitter_cfg.c **** 		CYCONFIGCPY((void CYFAR *)(CYREG_PHUB_CFGMEM1_CFG0), (const void CYFAR *)(BS_PHUB_CFGMEM1_VAL), 4
 745              		.loc 1 537 0
 746 0044 2848     		ldr	r0, .L56+20
 747 0046 2949     		ldr	r1, .L56+24
 748 0048 0422     		movs	r2, #4
 749 004a FFF7FEFF 		bl	CYCONFIGCPY
 750              	.LVL47:
 538:Generated_Source\PSoC5/cyfitter_cfg.c **** 
 539:Generated_Source\PSoC5/cyfitter_cfg.c **** 		/* Enable digital routing */
 540:Generated_Source\PSoC5/cyfitter_cfg.c **** 		CY_SET_XTND_REG8((void CYFAR *)CYREG_BCTL0_BANK_CTL, CY_GET_XTND_REG8((void CYFAR *)CYREG_BCTL0_B
 751              		.loc 1 540 0
 752 004e 284A     		ldr	r2, .L56+28
 753 0050 1378     		ldrb	r3, [r2]	@ zero_extendqisi2
 754 0052 43F00203 		orr	r3, r3, #2
 755 0056 1370     		strb	r3, [r2]
 541:Generated_Source\PSoC5/cyfitter_cfg.c **** 		CY_SET_XTND_REG8((void CYFAR *)CYREG_BCTL1_BANK_CTL, CY_GET_XTND_REG8((void CYFAR *)CYREG_BCTL1_B
 756              		.loc 1 541 0
 757 0058 1032     		adds	r2, r2, #16
 758 005a 1378     		ldrb	r3, [r2]	@ zero_extendqisi2
 759 005c 43F00203 		orr	r3, r3, #2
 760 0060 1370     		strb	r3, [r2]
 542:Generated_Source\PSoC5/cyfitter_cfg.c **** 
 543:Generated_Source\PSoC5/cyfitter_cfg.c **** 		/* Enable UDB array */
 544:Generated_Source\PSoC5/cyfitter_cfg.c **** 		CY_SET_XTND_REG8((void CYFAR *)CYREG_PM_ACT_CFG0, CY_GET_XTND_REG8((void CYFAR *)CYREG_PM_ACT_CFG
 761              		.loc 1 544 0
 762 0062 244C     		ldr	r4, .L56+32
 763              	.LVL48:
 764 0064 2378     		ldrb	r3, [r4]	@ zero_extendqisi2
 765 0066 43F04003 		orr	r3, r3, #64
 766 006a 2370     		strb	r3, [r4]
 545:Generated_Source\PSoC5/cyfitter_cfg.c **** 		CY_SET_XTND_REG8((void CYFAR *)CYREG_PM_AVAIL_CR2, CY_GET_XTND_REG8((void CYFAR *)CYREG_PM_AVAIL_
 767              		.loc 1 545 0
 768 006c A2F58632 		sub	r2, r2, #68608
 769 0070 513A     		subs	r2, r2, #81
 770 0072 1378     		ldrb	r3, [r2]	@ zero_extendqisi2
 771 0074 43F01003 		orr	r3, r3, #16
 772 0078 1370     		strb	r3, [r2]
 773              	.LBE3:
 546:Generated_Source\PSoC5/cyfitter_cfg.c **** 	}
 547:Generated_Source\PSoC5/cyfitter_cfg.c **** 
 548:Generated_Source\PSoC5/cyfitter_cfg.c **** 
 549:Generated_Source\PSoC5/cyfitter_cfg.c **** 	/* Perform second pass device configuration. These items must be configured in specific order afte
 550:Generated_Source\PSoC5/cyfitter_cfg.c **** 	CYCONFIGCPY((void CYFAR *)(CYREG_PRT0_DM0), (const void CYFAR *)(BS_IOPINS0_0_VAL), 8u);
ARM GAS  C:\Users\Nelson\AppData\Local\Temp\ccJUGSN3.s 			page 25


 774              		.loc 1 550 0
 775 007a 1F48     		ldr	r0, .L56+36
 776 007c 1F49     		ldr	r1, .L56+40
 777 007e 0822     		movs	r2, #8
 778 0080 FFF7FEFF 		bl	CYCONFIGCPY
 779              	.LVL49:
 551:Generated_Source\PSoC5/cyfitter_cfg.c **** 	CYCONFIGCPY((void CYFAR *)(CYREG_PRT15_DR), (const void CYFAR *)(BS_IOPINS0_8_VAL), 10u);
 780              		.loc 1 551 0
 781 0084 1E48     		ldr	r0, .L56+44
 782 0086 1F49     		ldr	r1, .L56+48
 783 0088 2A46     		mov	r2, r5
 784 008a FFF7FEFF 		bl	CYCONFIGCPY
 785              	.LVL50:
 552:Generated_Source\PSoC5/cyfitter_cfg.c **** 	CYCONFIGCPY((void CYFAR *)(CYREG_PRT1_DM0), (const void CYFAR *)(BS_IOPINS0_1_VAL), 8u);
 786              		.loc 1 552 0
 787 008e 1E48     		ldr	r0, .L56+52
 788 0090 1E49     		ldr	r1, .L56+56
 789 0092 0822     		movs	r2, #8
 790 0094 FFF7FEFF 		bl	CYCONFIGCPY
 791              	.LVL51:
 553:Generated_Source\PSoC5/cyfitter_cfg.c **** 	CYCONFIGCPY((void CYFAR *)(CYREG_PRT2_DM0), (const void CYFAR *)(BS_IOPINS0_2_VAL), 8u);
 792              		.loc 1 553 0
 793 0098 1D48     		ldr	r0, .L56+60
 794 009a 1E49     		ldr	r1, .L56+64
 795 009c 0822     		movs	r2, #8
 796 009e FFF7FEFF 		bl	CYCONFIGCPY
 797              	.LVL52:
 554:Generated_Source\PSoC5/cyfitter_cfg.c **** 	CYCONFIGCPY((void CYFAR *)(CYREG_PRT3_DM0), (const void CYFAR *)(BS_IOPINS0_3_VAL), 8u);
 798              		.loc 1 554 0
 799 00a2 1D48     		ldr	r0, .L56+68
 800 00a4 1D49     		ldr	r1, .L56+72
 801 00a6 0822     		movs	r2, #8
 802 00a8 FFF7FEFF 		bl	CYCONFIGCPY
 803              	.LVL53:
 555:Generated_Source\PSoC5/cyfitter_cfg.c **** 	/* Switch Boost to the precision bandgap reference from its internal reference */
 556:Generated_Source\PSoC5/cyfitter_cfg.c **** 	CY_SET_REG8((void CYXDATA *)CYREG_BOOST_CR2, (CY_GET_REG8((void CYXDATA *)CYREG_BOOST_CR2) | 0x08u
 804              		.loc 1 556 0
 805 00ac 1C4A     		ldr	r2, .L56+76
 806 00ae 1378     		ldrb	r3, [r2]	@ zero_extendqisi2
 807 00b0 43F00803 		orr	r3, r3, #8
 808 00b4 1370     		strb	r3, [r2]
 557:Generated_Source\PSoC5/cyfitter_cfg.c **** 
 558:Generated_Source\PSoC5/cyfitter_cfg.c **** 	/* Set Flash Cycles based on max possible frequency in case a glitch occurs during ClockSetup(). *
 559:Generated_Source\PSoC5/cyfitter_cfg.c **** 	CY_SET_XTND_REG8((void CYFAR *)(CYREG_CACHE_CC_CTL), (((CYDEV_INSTRUCT_CACHE_ENABLED) != 0) ? 0x61
 809              		.loc 1 559 0
 810 00b6 1B4D     		ldr	r5, .L56+80
 811 00b8 6123     		movs	r3, #97
 812 00ba 2B70     		strb	r3, [r5]
 560:Generated_Source\PSoC5/cyfitter_cfg.c **** 	/* Setup clocks based on selections from Clock DWR */
 561:Generated_Source\PSoC5/cyfitter_cfg.c **** 	ClockSetup();
 813              		.loc 1 561 0
 814 00bc FFF7FEFF 		bl	ClockSetup
 815              	.LVL54:
 562:Generated_Source\PSoC5/cyfitter_cfg.c **** 	/* Set Flash Cycles based on newly configured 24.00MHz Bus Clock. */
 563:Generated_Source\PSoC5/cyfitter_cfg.c **** 	CY_SET_XTND_REG8((void CYFAR *)(CYREG_CACHE_CC_CTL), (((CYDEV_INSTRUCT_CACHE_ENABLED) != 0) ? 0x81
 816              		.loc 1 563 0
 817 00c0 8123     		movs	r3, #129
ARM GAS  C:\Users\Nelson\AppData\Local\Temp\ccJUGSN3.s 			page 26


 818 00c2 2B70     		strb	r3, [r5]
 564:Generated_Source\PSoC5/cyfitter_cfg.c **** 
 565:Generated_Source\PSoC5/cyfitter_cfg.c **** 	/* Perform basic analog initialization to defaults */
 566:Generated_Source\PSoC5/cyfitter_cfg.c **** 	AnalogSetDefault();
 819              		.loc 1 566 0
 820 00c4 FFF7FEFF 		bl	AnalogSetDefault
 821              	.LVL55:
 567:Generated_Source\PSoC5/cyfitter_cfg.c **** 
 568:Generated_Source\PSoC5/cyfitter_cfg.c **** 	/* Configure alternate active mode */
 569:Generated_Source\PSoC5/cyfitter_cfg.c **** 	CYCONFIGCPY((void CYFAR *)CYDEV_PM_STBY_BASE, (const void CYFAR *)CYDEV_PM_ACT_BASE, 14u);
 822              		.loc 1 569 0
 823 00c8 1748     		ldr	r0, .L56+84
 824 00ca 2146     		mov	r1, r4
 825 00cc 0E22     		movs	r2, #14
 826 00ce FFF7FEFF 		bl	CYCONFIGCPY
 827              	.LVL56:
 828 00d2 38BD     		pop	{r3, r4, r5, pc}
 829              	.L57:
 830              		.align	2
 831              	.L56:
 832 00d4 E8460040 		.word	1073759976
 833 00d8 00000000 		.word	.LANCHOR0
 834 00dc 64000048 		.word	1207959652
 835 00e0 83580040 		.word	1073764483
 836 00e4 00760040 		.word	1073772032
 837 00e8 08760040 		.word	1073772040
 838 00ec 88010048 		.word	1207959944
 839 00f0 03500140 		.word	1073827843
 840 00f4 A0430040 		.word	1073759136
 841 00f8 02510040 		.word	1073762562
 842 00fc 58010048 		.word	1207959896
 843 0100 F0510040 		.word	1073762800
 844 0104 60010048 		.word	1207959904
 845 0108 12510040 		.word	1073762578
 846 010c 6C010048 		.word	1207959916
 847 0110 22510040 		.word	1073762594
 848 0114 74010048 		.word	1207959924
 849 0118 32510040 		.word	1073762610
 850 011c 7C010048 		.word	1207959932
 851 0120 22430040 		.word	1073759010
 852 0124 00480040 		.word	1073760256
 853 0128 B0430040 		.word	1073759152
 854              		.cfi_endproc
 855              	.LFE12:
 856              		.size	cyfitter_cfg, .-cyfitter_cfg
 857              		.global	potSelect__maskTable
 858              		.global	potSelect__addrTable
 859              		.global	ADC_DelSig_AMux__maskTable
 860              		.global	ADC_DelSig_AMux__addrTable
 861              		.section	.rodata
 862              		.align	2
 863              		.set	.LANCHOR0,. + 0
 864              		.type	ADC_DelSig_AMux__addrTable, %object
 865              		.size	ADC_DelSig_AMux__addrTable, 8
 866              	ADC_DelSig_AMux__addrTable:
 867 0000 035B0040 		.word	1073765123
 868 0004 24430040 		.word	1073759012
ARM GAS  C:\Users\Nelson\AppData\Local\Temp\ccJUGSN3.s 			page 27


 869              		.type	ADC_DelSig_AMux__maskTable, %object
 870              		.size	ADC_DelSig_AMux__maskTable, 2
 871              	ADC_DelSig_AMux__maskTable:
 872 0008 40       		.byte	64
 873 0009 00       		.byte	0
 874 000a 0000     		.space	2
 875              		.type	potSelect__addrTable, %object
 876              		.size	potSelect__addrTable, 16
 877              	potSelect__addrTable:
 878 000c 2D510040 		.word	1073762605
 879 0010 005B0040 		.word	1073765120
 880 0014 2D510040 		.word	1073762605
 881 0018 005B0040 		.word	1073765120
 882              		.type	potSelect__maskTable, %object
 883              		.size	potSelect__maskTable, 4
 884              	potSelect__maskTable:
 885 001c 08       		.byte	8
 886 001d 08       		.byte	8
 887 001e 40       		.byte	64
 888 001f 04       		.byte	4
 889              		.type	cfg_memset_list.4910, %object
 890              		.size	cfg_memset_list.4910, 42
 891              	cfg_memset_list.4910:
 892 0020 40510040 		.word	1073762624
 893 0024 3000     		.short	48
 894 0026 C0510040 		.4byte	1073762752
 895 002a 1000     		.short	16
 896 002c 00000140 		.word	1073807360
 897 0030 0010     		.short	4096
 898 0032 00140140 		.4byte	1073812480
 899 0036 0008     		.short	2048
 900 0038 00400140 		.word	1073823744
 901 003c 000A     		.short	2560
 902 003e 004C0140 		.4byte	1073826816
 903 0042 0002     		.short	512
 904 0044 00500140 		.word	1073827840
 905 0048 2000     		.short	32
 906 004a 0000     		.text
 907              	.Letext0:
 908              		.file 2 "c:\\program files (x86)\\cypress\\psoc creator\\4.0\\psoc creator\\import\\gnu\\arm\\4.9.
 909              		.file 3 "Generated_Source\\PSoC5\\cytypes.h"
 910              		.file 4 "Generated_Source\\PSoC5\\CyLib.h"