ARM GAS  C:\Users\Nelson\AppData\Local\Temp\ccnnK959.s 			page 1


   1              		.syntax unified
   2              		.cpu cortex-m3
   3              		.fpu softvfp
   4              		.eabi_attribute 20, 1
   5              		.eabi_attribute 21, 1
   6              		.eabi_attribute 23, 3
   7              		.eabi_attribute 24, 1
   8              		.eabi_attribute 25, 1
   9              		.eabi_attribute 26, 1
  10              		.eabi_attribute 30, 1
  11              		.eabi_attribute 34, 1
  12              		.eabi_attribute 18, 4
  13              		.thumb
  14              		.file	"main.c"
  15              		.text
  16              	.Ltext0:
  17              		.cfi_sections	.debug_frame
  18              		.section	.text.ADCDMAISR1,"ax",%progbits
  19              		.align	2
  20              		.global	ADCDMAISR1
  21              		.thumb
  22              		.thumb_func
  23              		.type	ADCDMAISR1, %function
  24              	ADCDMAISR1:
  25              	.LFB63:
  26              		.file 1 "main.c"
   1:main.c        **** /* ========================================
   2:main.c        ****  *
   3:main.c        ****  * Copyright YOUR COMPANY, THE YEAR
   4:main.c        ****  * All Rights Reserved
   5:main.c        ****  * UNPUBLISHED, LICENSED SOFTWARE.
   6:main.c        ****  *
   7:main.c        ****  * CONFIDENTIAL AND PROPRIETARY INFORMATION
   8:main.c        ****  * WHICH IS THE PROPERTY OF your company.
   9:main.c        ****  *
  10:main.c        ****  * ========================================
  11:main.c        **** */
  12:main.c        **** #include "project.h"
  13:main.c        **** 
  14:main.c        **** uint8 source [2][2][64];            // ping pong buffer arrays
  15:main.c        **** int probe1TXTD = 0;                 // ping pong selector for channel 1 data
  16:main.c        **** int probe2TXTD = 0;                 // ping pong selector for channel 1 data
  17:main.c        **** uint8 pot1Value[1];
  18:main.c        **** uint8 pot2Value[1];
  19:main.c        **** 
  20:main.c        **** 
  21:main.c        **** 
  22:main.c        **** CY_ISR(ADCDMAISR1)
  23:main.c        **** {
  27              		.loc 1 23 0
  28              		.cfi_startproc
  29              		@ args = 0, pretend = 0, frame = 0
  30              		@ frame_needed = 0, uses_anonymous_args = 0
  31 0000 08B5     		push	{r3, lr}
  32              		.cfi_def_cfa_offset 8
  33              		.cfi_offset 3, -8
  34              		.cfi_offset 14, -4
ARM GAS  C:\Users\Nelson\AppData\Local\Temp\ccnnK959.s 			page 2


  24:main.c        ****     if (USBFS_GetEPState(1) == USBFS_IN_BUFFER_EMPTY)           // send data if the buffer is empty
  35              		.loc 1 24 0
  36 0002 0120     		movs	r0, #1
  37 0004 FFF7FEFF 		bl	USBFS_GetEPState
  38              	.LVL0:
  39 0008 0128     		cmp	r0, #1
  40 000a 07D1     		bne	.L2
  25:main.c        ****     {
  26:main.c        ****         USBFS_LoadInEP(1,source[0][probe1TXTD],64);
  41              		.loc 1 26 0
  42 000c 114B     		ldr	r3, .L6
  43 000e 1968     		ldr	r1, [r3]
  44 0010 114B     		ldr	r3, .L6+4
  45 0012 03EB8111 		add	r1, r3, r1, lsl #6
  46 0016 4022     		movs	r2, #64
  47 0018 FFF7FEFF 		bl	USBFS_LoadInEP
  48              	.LVL1:
  49              	.L2:
  27:main.c        ****     }   
  28:main.c        ****     probe1TXTD = 1 - probe1TXTD;            // switch buffer to send from
  50              		.loc 1 28 0
  51 001c 0D4A     		ldr	r2, .L6
  52 001e 1368     		ldr	r3, [r2]
  53 0020 C3F10103 		rsb	r3, r3, #1
  54 0024 1360     		str	r3, [r2]
  29:main.c        ****     
  30:main.c        ****     potSelect_Select(0);            // select channel 1 pot
  55              		.loc 1 30 0
  56 0026 0020     		movs	r0, #0
  57 0028 FFF7FEFF 		bl	potSelect_Select
  58              	.LVL2:
  31:main.c        ****     pot1Value[0] = ADC_DelSig_Read16();
  59              		.loc 1 31 0
  60 002c FFF7FEFF 		bl	ADC_DelSig_Read16
  61              	.LVL3:
  62 0030 C0B2     		uxtb	r0, r0
  63 0032 0A4B     		ldr	r3, .L6+8
  64 0034 1870     		strb	r0, [r3]
  32:main.c        ****     if (pot1Value[0] >= 255)
  65              		.loc 1 32 0
  66 0036 FF28     		cmp	r0, #255
  67 0038 01D1     		bne	.L3
  33:main.c        ****     {
  34:main.c        ****         pot1Value[0] = 255;
  68              		.loc 1 34 0
  69 003a FF22     		movs	r2, #255
  70 003c 1A70     		strb	r2, [r3]
  71              	.L3:
  35:main.c        ****     }
  36:main.c        ****     else if (pot1Value[0] < 0)
  37:main.c        ****     {
  38:main.c        ****         pot1Value[0] = 0;
  39:main.c        ****     }
  40:main.c        ****     if (USBFS_GetEPState(3) == USBFS_IN_BUFFER_EMPTY)           // send pot value to Pi
  72              		.loc 1 40 0
  73 003e 0320     		movs	r0, #3
  74 0040 FFF7FEFF 		bl	USBFS_GetEPState
ARM GAS  C:\Users\Nelson\AppData\Local\Temp\ccnnK959.s 			page 3


  75              	.LVL4:
  76 0044 0128     		cmp	r0, #1
  77 0046 04D1     		bne	.L1
  41:main.c        ****     {
  42:main.c        ****         USBFS_LoadInEP(3,pot1Value,1);
  78              		.loc 1 42 0
  79 0048 0320     		movs	r0, #3
  80 004a 0449     		ldr	r1, .L6+8
  81 004c 0122     		movs	r2, #1
  82 004e FFF7FEFF 		bl	USBFS_LoadInEP
  83              	.LVL5:
  84              	.L1:
  85 0052 08BD     		pop	{r3, pc}
  86              	.L7:
  87              		.align	2
  88              	.L6:
  89 0054 00000000 		.word	.LANCHOR0
  90 0058 00000000 		.word	source
  91 005c 00000000 		.word	pot1Value
  92              		.cfi_endproc
  93              	.LFE63:
  94              		.size	ADCDMAISR1, .-ADCDMAISR1
  95              		.section	.text.ADCDMAISR2,"ax",%progbits
  96              		.align	2
  97              		.global	ADCDMAISR2
  98              		.thumb
  99              		.thumb_func
 100              		.type	ADCDMAISR2, %function
 101              	ADCDMAISR2:
 102              	.LFB64:
  43:main.c        ****     }
  44:main.c        **** }
  45:main.c        **** 
  46:main.c        **** CY_ISR(ADCDMAISR2)
  47:main.c        **** {
 103              		.loc 1 47 0
 104              		.cfi_startproc
 105              		@ args = 0, pretend = 0, frame = 0
 106              		@ frame_needed = 0, uses_anonymous_args = 0
 107 0000 08B5     		push	{r3, lr}
 108              		.cfi_def_cfa_offset 8
 109              		.cfi_offset 3, -8
 110              		.cfi_offset 14, -4
  48:main.c        ****     if (USBFS_GetEPState(2) == USBFS_IN_BUFFER_EMPTY)           // send data if the buffer is empty
 111              		.loc 1 48 0
 112 0002 0220     		movs	r0, #2
 113 0004 FFF7FEFF 		bl	USBFS_GetEPState
 114              	.LVL6:
 115 0008 0128     		cmp	r0, #1
 116 000a 09D1     		bne	.L9
  49:main.c        ****     {
  50:main.c        ****         USBFS_LoadInEP(2,source[1][probe2TXTD],64);
 117              		.loc 1 50 0
 118 000c 124B     		ldr	r3, .L13
 119 000e 5B68     		ldr	r3, [r3, #4]
 120 0010 0233     		adds	r3, r3, #2
 121 0012 0220     		movs	r0, #2
ARM GAS  C:\Users\Nelson\AppData\Local\Temp\ccnnK959.s 			page 4


 122 0014 1149     		ldr	r1, .L13+4
 123 0016 01EB8311 		add	r1, r1, r3, lsl #6
 124 001a 4022     		movs	r2, #64
 125 001c FFF7FEFF 		bl	USBFS_LoadInEP
 126              	.LVL7:
 127              	.L9:
  51:main.c        ****     }
  52:main.c        ****     probe2TXTD = 1 - probe2TXTD;            // switch buffer to send from
 128              		.loc 1 52 0
 129 0020 0D4A     		ldr	r2, .L13
 130 0022 5368     		ldr	r3, [r2, #4]
 131 0024 C3F10103 		rsb	r3, r3, #1
 132 0028 5360     		str	r3, [r2, #4]
  53:main.c        ****     
  54:main.c        ****     potSelect_Select(1);            // select channel 1 pot
 133              		.loc 1 54 0
 134 002a 0120     		movs	r0, #1
 135 002c FFF7FEFF 		bl	potSelect_Select
 136              	.LVL8:
  55:main.c        ****     pot2Value[0] = ADC_DelSig_Read16();
 137              		.loc 1 55 0
 138 0030 FFF7FEFF 		bl	ADC_DelSig_Read16
 139              	.LVL9:
 140 0034 C0B2     		uxtb	r0, r0
 141 0036 0A4B     		ldr	r3, .L13+8
 142 0038 1870     		strb	r0, [r3]
  56:main.c        ****     if (pot2Value[0] >= 255)
 143              		.loc 1 56 0
 144 003a FF28     		cmp	r0, #255
 145 003c 01D1     		bne	.L10
  57:main.c        ****     {
  58:main.c        ****         pot2Value[0] = 255;
 146              		.loc 1 58 0
 147 003e FF22     		movs	r2, #255
 148 0040 1A70     		strb	r2, [r3]
 149              	.L10:
  59:main.c        ****     }
  60:main.c        ****     else if (pot2Value[0] < 0)
  61:main.c        ****     {
  62:main.c        ****         pot2Value[0] = 0;
  63:main.c        ****     }
  64:main.c        ****     if (USBFS_GetEPState(4) == USBFS_IN_BUFFER_EMPTY)           // send pot value to Pi
 150              		.loc 1 64 0
 151 0042 0420     		movs	r0, #4
 152 0044 FFF7FEFF 		bl	USBFS_GetEPState
 153              	.LVL10:
 154 0048 0128     		cmp	r0, #1
 155 004a 04D1     		bne	.L8
  65:main.c        ****     {
  66:main.c        ****         USBFS_LoadInEP(4,pot2Value,1);
 156              		.loc 1 66 0
 157 004c 0420     		movs	r0, #4
 158 004e 0449     		ldr	r1, .L13+8
 159 0050 0122     		movs	r2, #1
 160 0052 FFF7FEFF 		bl	USBFS_LoadInEP
 161              	.LVL11:
 162              	.L8:
ARM GAS  C:\Users\Nelson\AppData\Local\Temp\ccnnK959.s 			page 5


 163 0056 08BD     		pop	{r3, pc}
 164              	.L14:
 165              		.align	2
 166              	.L13:
 167 0058 00000000 		.word	.LANCHOR0
 168 005c 00000000 		.word	source
 169 0060 00000000 		.word	pot2Value
 170              		.cfi_endproc
 171              	.LFE64:
 172              		.size	ADCDMAISR2, .-ADCDMAISR2
 173              		.section	.text.main,"ax",%progbits
 174              		.align	2
 175              		.global	main
 176              		.thumb
 177              		.thumb_func
 178              		.type	main, %function
 179              	main:
 180              	.LFB65:
  67:main.c        ****     }
  68:main.c        **** }
  69:main.c        **** 
  70:main.c        **** int main(void)
  71:main.c        **** {
 181              		.loc 1 71 0
 182              		.cfi_startproc
 183              		@ args = 0, pretend = 0, frame = 8
 184              		@ frame_needed = 0, uses_anonymous_args = 0
 185 0000 2DE9F041 		push	{r4, r5, r6, r7, r8, lr}
 186              		.cfi_def_cfa_offset 24
 187              		.cfi_offset 4, -24
 188              		.cfi_offset 5, -20
 189              		.cfi_offset 6, -16
 190              		.cfi_offset 7, -12
 191              		.cfi_offset 8, -8
 192              		.cfi_offset 14, -4
 193 0004 82B0     		sub	sp, sp, #8
 194              		.cfi_def_cfa_offset 32
  72:main.c        ****     CyGlobalIntEnable; /* Enable global interrupts. */
 195              		.loc 1 72 0
 196              	@ 72 "main.c" 1
 197 0006 62B6     		CPSIE   i
 198              	@ 0 "" 2
  73:main.c        ****     USBFS_Start(0,USBFS_5V_OPERATION);
 199              		.loc 1 73 0
 200              		.thumb
 201 0008 0020     		movs	r0, #0
 202 000a 0121     		movs	r1, #1
 203 000c FFF7FEFF 		bl	USBFS_Start
 204              	.LVL12:
 205              	.L16:
  74:main.c        ****     while (0u == USBFS_GetConfiguration())
 206              		.loc 1 74 0 discriminator 1
 207 0010 FFF7FEFF 		bl	USBFS_GetConfiguration
 208              	.LVL13:
 209 0014 0028     		cmp	r0, #0
 210 0016 FBD0     		beq	.L16
  75:main.c        ****     {
ARM GAS  C:\Users\Nelson\AppData\Local\Temp\ccnnK959.s 			page 6


  76:main.c        ****         
  77:main.c        ****     }
  78:main.c        ****     USBFS_EnableOutEP(5);
 211              		.loc 1 78 0
 212 0018 0520     		movs	r0, #5
 213 001a FFF7FEFF 		bl	USBFS_EnableOutEP
 214              	.LVL14:
  79:main.c        ****     
  80:main.c        ****     ADCInt1_StartEx(ADCDMAISR1);
 215              		.loc 1 80 0
 216 001e 7148     		ldr	r0, .L32
 217 0020 FFF7FEFF 		bl	ADCInt1_StartEx
 218              	.LVL15:
  81:main.c        ****     ADCInt2_StartEx(ADCDMAISR2);
 219              		.loc 1 81 0
 220 0024 7048     		ldr	r0, .L32+4
 221 0026 FFF7FEFF 		bl	ADCInt2_StartEx
 222              	.LVL16:
  82:main.c        **** 
  83:main.c        ****     //WaveDAC8_1_Start();
  84:main.c        ****     ADC_SAR_1_Start();
 223              		.loc 1 84 0
 224 002a FFF7FEFF 		bl	ADC_SAR_1_Start
 225              	.LVL17:
  85:main.c        ****     ADC_SAR_1_StartConvert();
 226              		.loc 1 85 0
 227 002e FFF7FEFF 		bl	ADC_SAR_1_StartConvert
 228              	.LVL18:
  86:main.c        ****     
  87:main.c        ****     //WaveDAC8_2_Start();
  88:main.c        ****     ADC_SAR_2_Start();
 229              		.loc 1 88 0
 230 0032 FFF7FEFF 		bl	ADC_SAR_2_Start
 231              	.LVL19:
  89:main.c        ****     ADC_SAR_2_StartConvert();
 232              		.loc 1 89 0
 233 0036 FFF7FEFF 		bl	ADC_SAR_2_StartConvert
 234              	.LVL20:
  90:main.c        ****     
  91:main.c        ****     potSelect_Start();
 235              		.loc 1 91 0
 236 003a FFF7FEFF 		bl	potSelect_Start
 237              	.LVL21:
  92:main.c        ****     potSelect_Select(0);
 238              		.loc 1 92 0
 239 003e 0020     		movs	r0, #0
 240 0040 FFF7FEFF 		bl	potSelect_Select
 241              	.LVL22:
  93:main.c        ****     ADC_DelSig_Start();
 242              		.loc 1 93 0
 243 0044 FFF7FEFF 		bl	ADC_DelSig_Start
 244              	.LVL23:
  94:main.c        ****     
  95:main.c        ****     /* Defines for DMA_1 */
  96:main.c        ****     #define DMA_1_BYTES_PER_BURST 1
  97:main.c        ****     #define DMA_1_REQUEST_PER_BURST 1
  98:main.c        ****     #define DMA_1_SRC_BASE (CYDEV_PERIPH_BASE)
ARM GAS  C:\Users\Nelson\AppData\Local\Temp\ccnnK959.s 			page 7


  99:main.c        ****     #define DMA_1_DST_BASE (CYDEV_SRAM_BASE)
 100:main.c        **** 
 101:main.c        ****     /* Variable declarations for DMA_1 */
 102:main.c        ****     /* Move these variable declarations to the top of the function */
 103:main.c        ****     
 104:main.c        ****     uint8 DMA_1_Chan;
 105:main.c        ****     uint8 DMA_1_TD[2];
 106:main.c        **** 
 107:main.c        ****     /* DMA Configuration for DMA_1 */
 108:main.c        ****     
 109:main.c        ****     DMA_1_Chan = ADCDMA1_DmaInitialize(DMA_1_BYTES_PER_BURST, DMA_1_REQUEST_PER_BURST, 
 245              		.loc 1 109 0
 246 0048 0120     		movs	r0, #1
 247 004a 0146     		mov	r1, r0
 248 004c 4FF48042 		mov	r2, #16384
 249 0050 41F6FF73 		movw	r3, #8191
 250 0054 FFF7FEFF 		bl	ADCDMA1_DmaInitialize
 251              	.LVL24:
 252 0058 0646     		mov	r6, r0
 253              	.LVL25:
 110:main.c        ****                                      HI16(DMA_1_SRC_BASE), HI16(DMA_1_DST_BASE));
 111:main.c        ****     DMA_1_TD[0] = CyDmaTdAllocate();
 254              		.loc 1 111 0
 255 005a FFF7FEFF 		bl	CyDmaTdAllocate
 256              	.LVL26:
 257 005e 0546     		mov	r5, r0
 112:main.c        ****     DMA_1_TD[1] = CyDmaTdAllocate();
 258              		.loc 1 112 0
 259 0060 FFF7FEFF 		bl	CyDmaTdAllocate
 260              	.LVL27:
 261 0064 0746     		mov	r7, r0
 113:main.c        ****     CyDmaTdSetConfiguration(DMA_1_TD[0], 64, DMA_1_TD[1], ADCDMA1__TD_TERMOUT_EN | CY_DMA_TD_INC_DS
 262              		.loc 1 113 0
 263 0066 2846     		mov	r0, r5
 264 0068 4021     		movs	r1, #64
 265 006a 3A46     		mov	r2, r7
 266 006c 0623     		movs	r3, #6
 267 006e FFF7FEFF 		bl	CyDmaTdSetConfiguration
 268              	.LVL28:
 114:main.c        ****     CyDmaTdSetConfiguration(DMA_1_TD[1], 64, DMA_1_TD[0], ADCDMA1__TD_TERMOUT_EN | CY_DMA_TD_INC_DS
 269              		.loc 1 114 0
 270 0072 3846     		mov	r0, r7
 271 0074 4021     		movs	r1, #64
 272 0076 2A46     		mov	r2, r5
 273 0078 0623     		movs	r3, #6
 274 007a FFF7FEFF 		bl	CyDmaTdSetConfiguration
 275              	.LVL29:
 115:main.c        ****     CyDmaTdSetAddress(DMA_1_TD[0], LO16((uint32)ADC_SAR_1_SAR_WRK0_PTR), LO16((uint32)&source[0][0]
 276              		.loc 1 115 0
 277 007e 5B4C     		ldr	r4, .L32+8
 278 0080 2846     		mov	r0, r5
 279 0082 45F6A031 		movw	r1, #23456
 280 0086 A2B2     		uxth	r2, r4
 281 0088 FFF7FEFF 		bl	CyDmaTdSetAddress
 282              	.LVL30:
 116:main.c        ****     CyDmaTdSetAddress(DMA_1_TD[1], LO16((uint32)ADC_SAR_1_SAR_WRK0_PTR), LO16((uint32)&source[0][1]
 283              		.loc 1 116 0
ARM GAS  C:\Users\Nelson\AppData\Local\Temp\ccnnK959.s 			page 8


 284 008c 04F14002 		add	r2, r4, #64
 285 0090 3846     		mov	r0, r7
 286 0092 45F6A031 		movw	r1, #23456
 287 0096 92B2     		uxth	r2, r2
 288 0098 FFF7FEFF 		bl	CyDmaTdSetAddress
 289              	.LVL31:
 117:main.c        ****     CyDmaChSetInitialTd(DMA_1_Chan, DMA_1_TD[0]);
 290              		.loc 1 117 0
 291 009c 3046     		mov	r0, r6
 292 009e 2946     		mov	r1, r5
 293 00a0 FFF7FEFF 		bl	CyDmaChSetInitialTd
 294              	.LVL32:
 118:main.c        ****     CyDmaChEnable(DMA_1_Chan, 1);
 295              		.loc 1 118 0
 296 00a4 3046     		mov	r0, r6
 297 00a6 0121     		movs	r1, #1
 298 00a8 FFF7FEFF 		bl	CyDmaChEnable
 299              	.LVL33:
 119:main.c        ****     
 120:main.c        ****     
 121:main.c        ****     /* Defines for ADCDMA2 */
 122:main.c        ****     #define ADCDMA2_BYTES_PER_BURST 1
 123:main.c        ****     #define ADCDMA2_REQUEST_PER_BURST 1
 124:main.c        ****     #define ADCDMA2_SRC_BASE (CYDEV_PERIPH_BASE)
 125:main.c        ****     #define ADCDMA2_DST_BASE (CYDEV_SRAM_BASE)
 126:main.c        **** 
 127:main.c        ****     /* Variable declarations for ADCDMA2 */
 128:main.c        ****     /* Move these variable declarations to the top of the function */
 129:main.c        ****     uint8 ADCDMA2_Chan;
 130:main.c        ****     uint8 ADCDMA2_TD[2];
 131:main.c        **** 
 132:main.c        ****     /* DMA Configuration for ADCDMA2 */
 133:main.c        ****     ADCDMA2_Chan = ADCDMA2_DmaInitialize(ADCDMA2_BYTES_PER_BURST, ADCDMA2_REQUEST_PER_BURST, 
 300              		.loc 1 133 0
 301 00ac 0120     		movs	r0, #1
 302 00ae 0146     		mov	r1, r0
 303 00b0 4FF48042 		mov	r2, #16384
 304 00b4 41F6FF73 		movw	r3, #8191
 305 00b8 FFF7FEFF 		bl	ADCDMA2_DmaInitialize
 306              	.LVL34:
 307 00bc 0546     		mov	r5, r0
 308              	.LVL35:
 134:main.c        ****                                          HI16(ADCDMA2_SRC_BASE), HI16(ADCDMA2_DST_BASE));
 135:main.c        ****     ADCDMA2_TD[0] = CyDmaTdAllocate();
 309              		.loc 1 135 0
 310 00be FFF7FEFF 		bl	CyDmaTdAllocate
 311              	.LVL36:
 312 00c2 0746     		mov	r7, r0
 136:main.c        ****     ADCDMA2_TD[1] = CyDmaTdAllocate();
 313              		.loc 1 136 0
 314 00c4 FFF7FEFF 		bl	CyDmaTdAllocate
 315              	.LVL37:
 316 00c8 8046     		mov	r8, r0
 137:main.c        ****     CyDmaTdSetConfiguration(ADCDMA2_TD[0], 64, ADCDMA2_TD[1], ADCDMA2__TD_TERMOUT_EN | CY_DMA_TD_IN
 317              		.loc 1 137 0
 318 00ca 3846     		mov	r0, r7
 319 00cc 4021     		movs	r1, #64
ARM GAS  C:\Users\Nelson\AppData\Local\Temp\ccnnK959.s 			page 9


 320 00ce 4246     		mov	r2, r8
 321 00d0 0623     		movs	r3, #6
 322 00d2 FFF7FEFF 		bl	CyDmaTdSetConfiguration
 323              	.LVL38:
 138:main.c        ****     CyDmaTdSetConfiguration(ADCDMA2_TD[1], 64, ADCDMA2_TD[0], ADCDMA2__TD_TERMOUT_EN | CY_DMA_TD_IN
 324              		.loc 1 138 0
 325 00d6 4046     		mov	r0, r8
 326 00d8 4021     		movs	r1, #64
 327 00da 3A46     		mov	r2, r7
 328 00dc 0623     		movs	r3, #6
 329 00de FFF7FEFF 		bl	CyDmaTdSetConfiguration
 330              	.LVL39:
 139:main.c        ****     CyDmaTdSetAddress(ADCDMA2_TD[0], LO16((uint32)ADC_SAR_2_SAR_WRK0_PTR), LO16((uint32)&source[1][
 331              		.loc 1 139 0
 332 00e2 04F18002 		add	r2, r4, #128
 333 00e6 3846     		mov	r0, r7
 334 00e8 45F6A231 		movw	r1, #23458
 335 00ec 92B2     		uxth	r2, r2
 336 00ee FFF7FEFF 		bl	CyDmaTdSetAddress
 337              	.LVL40:
 140:main.c        ****     CyDmaTdSetAddress(ADCDMA2_TD[1], LO16((uint32)ADC_SAR_2_SAR_WRK0_PTR), LO16((uint32)&source[1][
 338              		.loc 1 140 0
 339 00f2 04F1C002 		add	r2, r4, #192
 340 00f6 4046     		mov	r0, r8
 341 00f8 45F6A231 		movw	r1, #23458
 342 00fc 92B2     		uxth	r2, r2
 343 00fe FFF7FEFF 		bl	CyDmaTdSetAddress
 344              	.LVL41:
 141:main.c        ****     CyDmaChSetInitialTd(ADCDMA2_Chan, ADCDMA2_TD[0]);
 345              		.loc 1 141 0
 346 0102 2846     		mov	r0, r5
 347 0104 3946     		mov	r1, r7
 348 0106 FFF7FEFF 		bl	CyDmaChSetInitialTd
 349              	.LVL42:
 142:main.c        ****     CyDmaChEnable(ADCDMA2_Chan, 1);
 350              		.loc 1 142 0
 351 010a 2846     		mov	r0, r5
 352 010c 0121     		movs	r1, #1
 353 010e FFF7FEFF 		bl	CyDmaChEnable
 354              	.LVL43:
 355              	.L26:
 143:main.c        **** 
 144:main.c        ****     
 145:main.c        ****     uint8 run[1];       // variable for starting /stopiing data collection
 146:main.c        ****     int i,j,k;
 147:main.c        ****     
 148:main.c        ****     for(;;)
 149:main.c        ****     {
 150:main.c        ****         /* Place your application code here. */
 151:main.c        ****         if (USBFS_GetEPState(5) != USBFS_OUT_BUFFER_EMPTY)          // receive data on run argument
 356              		.loc 1 151 0
 357 0112 0520     		movs	r0, #5
 358 0114 FFF7FEFF 		bl	USBFS_GetEPState
 359              	.LVL44:
 360 0118 20B1     		cbz	r0, .L17
 152:main.c        ****         {
 153:main.c        ****             USBFS_ReadOutEP(5,run,1);
ARM GAS  C:\Users\Nelson\AppData\Local\Temp\ccnnK959.s 			page 10


 361              		.loc 1 153 0
 362 011a 0520     		movs	r0, #5
 363 011c 01A9     		add	r1, sp, #4
 364 011e 0122     		movs	r2, #1
 365 0120 FFF7FEFF 		bl	USBFS_ReadOutEP
 366              	.LVL45:
 367              	.L17:
 154:main.c        ****         }
 155:main.c        ****         if (run[0] == 1)            // if run is 1 then enable DMAs and send data to Pi
 368              		.loc 1 155 0
 369 0124 9DF80430 		ldrb	r3, [sp, #4]	@ zero_extendqisi2
 370 0128 012B     		cmp	r3, #1
 371 012a 0AD1     		bne	.L18
 156:main.c        ****         {
 157:main.c        ****             CyDmaChEnable(ADCDMA2_Chan,1);
 372              		.loc 1 157 0
 373 012c 2846     		mov	r0, r5
 374 012e 0121     		movs	r1, #1
 375 0130 FFF7FEFF 		bl	CyDmaChEnable
 376              	.LVL46:
 158:main.c        ****             CyDmaChEnable(DMA_1_Chan,1);
 377              		.loc 1 158 0
 378 0134 3046     		mov	r0, r6
 379 0136 0121     		movs	r1, #1
 380 0138 FFF7FEFF 		bl	CyDmaChEnable
 381              	.LVL47:
 159:main.c        ****             run[0] = 2;
 382              		.loc 1 159 0
 383 013c 0223     		movs	r3, #2
 384 013e 8DF80430 		strb	r3, [sp, #4]
 385              	.L18:
 160:main.c        ****         }
 161:main.c        ****         if (run[0] == 0)            // if run is 0 stop the DMAs
 386              		.loc 1 161 0
 387 0142 9DF80430 		ldrb	r3, [sp, #4]	@ zero_extendqisi2
 388 0146 F3B9     		cbnz	r3, .L19
 162:main.c        ****         {
 163:main.c        ****             CyDmaChDisable(ADCDMA2_Chan);
 389              		.loc 1 163 0
 390 0148 2846     		mov	r0, r5
 391 014a FFF7FEFF 		bl	CyDmaChDisable
 392              	.LVL48:
 164:main.c        ****             CyDmaChDisable(DMA_1_Chan);
 393              		.loc 1 164 0
 394 014e 3046     		mov	r0, r6
 395 0150 FFF7FEFF 		bl	CyDmaChDisable
 396              	.LVL49:
 165:main.c        ****             for (i = 0; i < 2; i++)         // clears the send buffer when run is 0
 397              		.loc 1 165 0
 398 0154 0027     		movs	r7, #0
 399 0156 11E0     		b	.L20
 400              	.LVL50:
 401              	.L21:
 166:main.c        ****             {
 167:main.c        ****                 for (j = 0; j < 2; j++)
 168:main.c        ****                 {
 169:main.c        ****                     for (k = 0; k < 64; k++)
ARM GAS  C:\Users\Nelson\AppData\Local\Temp\ccnnK959.s 			page 11


 170:main.c        ****                     {
 171:main.c        ****                        source[i][j][k] = 0;
 402              		.loc 1 171 0 discriminator 3
 403 0158 04EB4702 		add	r2, r4, r7, lsl #1
 404 015c 03EB8212 		add	r2, r3, r2, lsl #6
 405 0160 0020     		movs	r0, #0
 406 0162 2249     		ldr	r1, .L32+8
 407 0164 8854     		strb	r0, [r1, r2]
 169:main.c        ****                     {
 408              		.loc 1 169 0 discriminator 3
 409 0166 0133     		adds	r3, r3, #1
 410              	.LVL51:
 411 0168 00E0     		b	.L22
 412              	.LVL52:
 413              	.L29:
 414 016a 0023     		movs	r3, #0
 415              	.L22:
 416              	.LVL53:
 169:main.c        ****                     {
 417              		.loc 1 169 0 is_stmt 0 discriminator 1
 418 016c 3F2B     		cmp	r3, #63
 419 016e F3DD     		ble	.L21
 167:main.c        ****                 {
 420              		.loc 1 167 0 is_stmt 1 discriminator 2
 421 0170 0134     		adds	r4, r4, #1
 422              	.LVL54:
 423 0172 00E0     		b	.L23
 424              	.LVL55:
 425              	.L30:
 426 0174 0024     		movs	r4, #0
 427              	.L23:
 428              	.LVL56:
 167:main.c        ****                 {
 429              		.loc 1 167 0 is_stmt 0 discriminator 1
 430 0176 012C     		cmp	r4, #1
 431 0178 F7DD     		ble	.L29
 165:main.c        ****             {
 432              		.loc 1 165 0 is_stmt 1 discriminator 2
 433 017a 0137     		adds	r7, r7, #1
 434              	.LVL57:
 435              	.L20:
 165:main.c        ****             {
 436              		.loc 1 165 0 is_stmt 0 discriminator 1
 437 017c 012F     		cmp	r7, #1
 438 017e F9DD     		ble	.L30
 172:main.c        ****                     }
 173:main.c        ****                 }
 174:main.c        ****             }
 175:main.c        ****             run[0] = 3;         // set run 3 so that i can continuously send zeros to the Pi
 439              		.loc 1 175 0 is_stmt 1
 440 0180 0323     		movs	r3, #3
 441 0182 8DF80430 		strb	r3, [sp, #4]
 442              	.LVL58:
 443              	.L19:
 176:main.c        ****         }
 177:main.c        ****         if (run[0] == 3)            // send zeros to Pi
 444              		.loc 1 177 0
ARM GAS  C:\Users\Nelson\AppData\Local\Temp\ccnnK959.s 			page 12


 445 0186 9DF80430 		ldrb	r3, [sp, #4]	@ zero_extendqisi2
 446 018a 032B     		cmp	r3, #3
 447 018c 12D1     		bne	.L24
 178:main.c        ****         {
 179:main.c        ****             if (USBFS_GetEPState(1) == USBFS_IN_BUFFER_EMPTY)
 448              		.loc 1 179 0
 449 018e 0120     		movs	r0, #1
 450 0190 FFF7FEFF 		bl	USBFS_GetEPState
 451              	.LVL59:
 452 0194 0128     		cmp	r0, #1
 453 0196 03D1     		bne	.L25
 180:main.c        ****             {
 181:main.c        ****                 USBFS_LoadInEP(1,source[1][0],64);
 454              		.loc 1 181 0
 455 0198 1549     		ldr	r1, .L32+12
 456 019a 4022     		movs	r2, #64
 457 019c FFF7FEFF 		bl	USBFS_LoadInEP
 458              	.LVL60:
 459              	.L25:
 182:main.c        ****             }
 183:main.c        ****             if (USBFS_GetEPState(2) == USBFS_IN_BUFFER_EMPTY)
 460              		.loc 1 183 0
 461 01a0 0220     		movs	r0, #2
 462 01a2 FFF7FEFF 		bl	USBFS_GetEPState
 463              	.LVL61:
 464 01a6 0128     		cmp	r0, #1
 465 01a8 04D1     		bne	.L24
 184:main.c        ****             {
 185:main.c        ****                 USBFS_LoadInEP(2,source[1][0],64);
 466              		.loc 1 185 0
 467 01aa 0220     		movs	r0, #2
 468 01ac 1049     		ldr	r1, .L32+12
 469 01ae 4022     		movs	r2, #64
 470 01b0 FFF7FEFF 		bl	USBFS_LoadInEP
 471              	.LVL62:
 472              	.L24:
 186:main.c        ****             } 
 187:main.c        ****         }
 188:main.c        ****         if (0u != USBFS_IsConfigurationChanged())
 473              		.loc 1 188 0
 474 01b4 FFF7FEFF 		bl	USBFS_IsConfigurationChanged
 475              	.LVL63:
 476 01b8 0028     		cmp	r0, #0
 477 01ba AAD0     		beq	.L26
 189:main.c        ****         {
 190:main.c        ****             /* Re-enable endpoint when device is configured. */
 191:main.c        ****             if (0u != USBFS_GetConfiguration())
 478              		.loc 1 191 0
 479 01bc FFF7FEFF 		bl	USBFS_GetConfiguration
 480              	.LVL64:
 481 01c0 0028     		cmp	r0, #0
 482 01c2 A6D0     		beq	.L26
 192:main.c        ****             {
 193:main.c        ****                 /* Enable OUT endpoint to receive data from host. */
 194:main.c        ****                 USBFS_EnableOutEP(1);
 483              		.loc 1 194 0
 484 01c4 0120     		movs	r0, #1
ARM GAS  C:\Users\Nelson\AppData\Local\Temp\ccnnK959.s 			page 13


 485 01c6 FFF7FEFF 		bl	USBFS_EnableOutEP
 486              	.LVL65:
 195:main.c        ****                 USBFS_EnableOutEP(2);
 487              		.loc 1 195 0
 488 01ca 0220     		movs	r0, #2
 489 01cc FFF7FEFF 		bl	USBFS_EnableOutEP
 490              	.LVL66:
 196:main.c        ****                 USBFS_EnableOutEP(3);
 491              		.loc 1 196 0
 492 01d0 0320     		movs	r0, #3
 493 01d2 FFF7FEFF 		bl	USBFS_EnableOutEP
 494              	.LVL67:
 197:main.c        ****                 USBFS_EnableOutEP(4);
 495              		.loc 1 197 0
 496 01d6 0420     		movs	r0, #4
 497 01d8 FFF7FEFF 		bl	USBFS_EnableOutEP
 498              	.LVL68:
 198:main.c        ****                 USBFS_EnableOutEP(5);
 499              		.loc 1 198 0
 500 01dc 0520     		movs	r0, #5
 501 01de FFF7FEFF 		bl	USBFS_EnableOutEP
 502              	.LVL69:
 503 01e2 96E7     		b	.L26
 504              	.L33:
 505              		.align	2
 506              	.L32:
 507 01e4 00000000 		.word	ADCDMAISR1
 508 01e8 00000000 		.word	ADCDMAISR2
 509 01ec 00000000 		.word	source
 510 01f0 80000000 		.word	source+128
 511              		.cfi_endproc
 512              	.LFE65:
 513              		.size	main, .-main
 514              		.comm	pot2Value,1,4
 515              		.comm	pot1Value,1,4
 516              		.global	probe2TXTD
 517              		.global	probe1TXTD
 518              		.comm	source,256,4
 519              		.bss
 520              		.align	2
 521              		.set	.LANCHOR0,. + 0
 522              		.type	probe1TXTD, %object
 523              		.size	probe1TXTD, 4
 524              	probe1TXTD:
 525 0000 00000000 		.space	4
 526              		.type	probe2TXTD, %object
 527              		.size	probe2TXTD, 4
 528              	probe2TXTD:
 529 0004 00000000 		.space	4
 530              		.text
 531              	.Letext0:
 532              		.file 2 "c:\\program files (x86)\\cypress\\psoc creator\\4.0\\psoc creator\\import\\gnu\\arm\\4.9.
 533              		.file 3 "c:\\program files (x86)\\cypress\\psoc creator\\4.0\\psoc creator\\import\\gnu\\arm\\4.9.
 534              		.file 4 "Generated_Source\\PSoC5/cytypes.h"
 535              		.file 5 "Generated_Source\\PSoC5/core_cm3.h"
 536              		.file 6 "Generated_Source\\PSoC5/USBFS.h"
 537              		.file 7 "Generated_Source\\PSoC5/potSelect.h"
ARM GAS  C:\Users\Nelson\AppData\Local\Temp\ccnnK959.s 			page 14


 538              		.file 8 "Generated_Source\\PSoC5/ADC_DelSig.h"
 539              		.file 9 "Generated_Source\\PSoC5/ADCInt1.h"
 540              		.file 10 "Generated_Source\\PSoC5/ADCInt2.h"
 541              		.file 11 "Generated_Source\\PSoC5/ADC_SAR_1.h"
 542              		.file 12 "Generated_Source\\PSoC5/ADC_SAR_2.h"
 543              		.file 13 "Generated_Source\\PSoC5/ADCDMA1_dma.h"
 544              		.file 14 "Generated_Source\\PSoC5/CYDMAC.H"
 545              		.file 15 "Generated_Source\\PSoC5/ADCDMA2_dma.h"